
RCFW.elf:     file format elf32-littlearm

Sections:
Idx Name          Size      VMA       LMA       File off  Algn
  0 .isr_vector   000001e4  08000000  08000000  00010000  2**0
                  CONTENTS, ALLOC, LOAD, READONLY, DATA
  1 .text         000099e4  080001e8  080001e8  000101e8  2**3
                  CONTENTS, ALLOC, LOAD, READONLY, CODE
  2 .rodata       000006b4  08009bd0  08009bd0  00019bd0  2**3
                  CONTENTS, ALLOC, LOAD, READONLY, DATA
  3 .ARM.extab    00000000  0800a284  0800a284  000201e4  2**0
                  CONTENTS
  4 .ARM          00000000  0800a284  0800a284  000201e4  2**0
                  CONTENTS
  5 .preinit_array 00000000  0800a284  0800a284  000201e4  2**0
                  CONTENTS, ALLOC, LOAD, DATA
  6 .init_array   00000004  0800a284  0800a284  0001a284  2**2
                  CONTENTS, ALLOC, LOAD, DATA
  7 .fini_array   00000004  0800a288  0800a288  0001a288  2**2
                  CONTENTS, ALLOC, LOAD, DATA
  8 .data         000001e4  20000000  0800a28c  00020000  2**2
                  CONTENTS, ALLOC, LOAD, DATA
  9 .bss          000009ec  200001e4  0800a470  000201e4  2**2
                  ALLOC
 10 ._user_heap_stack 00000600  20000bd0  0800a470  00020bd0  2**0
                  ALLOC
 11 .ARM.attributes 00000029  00000000  00000000  000201e4  2**0
                  CONTENTS, READONLY
 12 .comment      00000053  00000000  00000000  0002020d  2**0
                  CONTENTS, READONLY
 13 .debug_frame  00001514  00000000  00000000  00020260  2**2
                  CONTENTS, READONLY, DEBUGGING, OCTETS

Disassembly of section .text:

080001e8 <__do_global_dtors_aux>:
 80001e8:	b510      	push	{r4, lr}
 80001ea:	4c05      	ldr	r4, [pc, #20]	; (8000200 <__do_global_dtors_aux+0x18>)
 80001ec:	7823      	ldrb	r3, [r4, #0]
 80001ee:	b933      	cbnz	r3, 80001fe <__do_global_dtors_aux+0x16>
 80001f0:	4b04      	ldr	r3, [pc, #16]	; (8000204 <__do_global_dtors_aux+0x1c>)
 80001f2:	b113      	cbz	r3, 80001fa <__do_global_dtors_aux+0x12>
 80001f4:	4804      	ldr	r0, [pc, #16]	; (8000208 <__do_global_dtors_aux+0x20>)
 80001f6:	f3af 8000 	nop.w
 80001fa:	2301      	movs	r3, #1
 80001fc:	7023      	strb	r3, [r4, #0]
 80001fe:	bd10      	pop	{r4, pc}
 8000200:	200001e4 	.word	0x200001e4
 8000204:	00000000 	.word	0x00000000
 8000208:	08009bb4 	.word	0x08009bb4

0800020c <frame_dummy>:
 800020c:	b508      	push	{r3, lr}
 800020e:	4b03      	ldr	r3, [pc, #12]	; (800021c <frame_dummy+0x10>)
 8000210:	b11b      	cbz	r3, 800021a <frame_dummy+0xe>
 8000212:	4903      	ldr	r1, [pc, #12]	; (8000220 <frame_dummy+0x14>)
 8000214:	4803      	ldr	r0, [pc, #12]	; (8000224 <frame_dummy+0x18>)
 8000216:	f3af 8000 	nop.w
 800021a:	bd08      	pop	{r3, pc}
 800021c:	00000000 	.word	0x00000000
 8000220:	200001e8 	.word	0x200001e8
 8000224:	08009bb4 	.word	0x08009bb4

08000228 <strlen>:
 8000228:	4603      	mov	r3, r0
 800022a:	f813 2b01 	ldrb.w	r2, [r3], #1
 800022e:	2a00      	cmp	r2, #0
 8000230:	d1fb      	bne.n	800022a <strlen+0x2>
 8000232:	1a18      	subs	r0, r3, r0
 8000234:	3801      	subs	r0, #1
 8000236:	4770      	bx	lr

08000238 <__aeabi_drsub>:
 8000238:	f081 4100 	eor.w	r1, r1, #2147483648	; 0x80000000
 800023c:	e002      	b.n	8000244 <__adddf3>
 800023e:	bf00      	nop

08000240 <__aeabi_dsub>:
 8000240:	f083 4300 	eor.w	r3, r3, #2147483648	; 0x80000000

08000244 <__adddf3>:
 8000244:	b530      	push	{r4, r5, lr}
 8000246:	ea4f 0441 	mov.w	r4, r1, lsl #1
 800024a:	ea4f 0543 	mov.w	r5, r3, lsl #1
 800024e:	ea94 0f05 	teq	r4, r5
 8000252:	bf08      	it	eq
 8000254:	ea90 0f02 	teqeq	r0, r2
 8000258:	bf1f      	itttt	ne
 800025a:	ea54 0c00 	orrsne.w	ip, r4, r0
 800025e:	ea55 0c02 	orrsne.w	ip, r5, r2
 8000262:	ea7f 5c64 	mvnsne.w	ip, r4, asr #21
 8000266:	ea7f 5c65 	mvnsne.w	ip, r5, asr #21
 800026a:	f000 80e2 	beq.w	8000432 <__adddf3+0x1ee>
 800026e:	ea4f 5454 	mov.w	r4, r4, lsr #21
 8000272:	ebd4 5555 	rsbs	r5, r4, r5, lsr #21
 8000276:	bfb8      	it	lt
 8000278:	426d      	neglt	r5, r5
 800027a:	dd0c      	ble.n	8000296 <__adddf3+0x52>
 800027c:	442c      	add	r4, r5
 800027e:	ea80 0202 	eor.w	r2, r0, r2
 8000282:	ea81 0303 	eor.w	r3, r1, r3
 8000286:	ea82 0000 	eor.w	r0, r2, r0
 800028a:	ea83 0101 	eor.w	r1, r3, r1
 800028e:	ea80 0202 	eor.w	r2, r0, r2
 8000292:	ea81 0303 	eor.w	r3, r1, r3
 8000296:	2d36      	cmp	r5, #54	; 0x36
 8000298:	bf88      	it	hi
 800029a:	bd30      	pophi	{r4, r5, pc}
 800029c:	f011 4f00 	tst.w	r1, #2147483648	; 0x80000000
 80002a0:	ea4f 3101 	mov.w	r1, r1, lsl #12
 80002a4:	f44f 1c80 	mov.w	ip, #1048576	; 0x100000
 80002a8:	ea4c 3111 	orr.w	r1, ip, r1, lsr #12
 80002ac:	d002      	beq.n	80002b4 <__adddf3+0x70>
 80002ae:	4240      	negs	r0, r0
 80002b0:	eb61 0141 	sbc.w	r1, r1, r1, lsl #1
 80002b4:	f013 4f00 	tst.w	r3, #2147483648	; 0x80000000
 80002b8:	ea4f 3303 	mov.w	r3, r3, lsl #12
 80002bc:	ea4c 3313 	orr.w	r3, ip, r3, lsr #12
 80002c0:	d002      	beq.n	80002c8 <__adddf3+0x84>
 80002c2:	4252      	negs	r2, r2
 80002c4:	eb63 0343 	sbc.w	r3, r3, r3, lsl #1
 80002c8:	ea94 0f05 	teq	r4, r5
 80002cc:	f000 80a7 	beq.w	800041e <__adddf3+0x1da>
 80002d0:	f1a4 0401 	sub.w	r4, r4, #1
 80002d4:	f1d5 0e20 	rsbs	lr, r5, #32
 80002d8:	db0d      	blt.n	80002f6 <__adddf3+0xb2>
 80002da:	fa02 fc0e 	lsl.w	ip, r2, lr
 80002de:	fa22 f205 	lsr.w	r2, r2, r5
 80002e2:	1880      	adds	r0, r0, r2
 80002e4:	f141 0100 	adc.w	r1, r1, #0
 80002e8:	fa03 f20e 	lsl.w	r2, r3, lr
 80002ec:	1880      	adds	r0, r0, r2
 80002ee:	fa43 f305 	asr.w	r3, r3, r5
 80002f2:	4159      	adcs	r1, r3
 80002f4:	e00e      	b.n	8000314 <__adddf3+0xd0>
 80002f6:	f1a5 0520 	sub.w	r5, r5, #32
 80002fa:	f10e 0e20 	add.w	lr, lr, #32
 80002fe:	2a01      	cmp	r2, #1
 8000300:	fa03 fc0e 	lsl.w	ip, r3, lr
 8000304:	bf28      	it	cs
 8000306:	f04c 0c02 	orrcs.w	ip, ip, #2
 800030a:	fa43 f305 	asr.w	r3, r3, r5
 800030e:	18c0      	adds	r0, r0, r3
 8000310:	eb51 71e3 	adcs.w	r1, r1, r3, asr #31
 8000314:	f001 4500 	and.w	r5, r1, #2147483648	; 0x80000000
 8000318:	d507      	bpl.n	800032a <__adddf3+0xe6>
 800031a:	f04f 0e00 	mov.w	lr, #0
 800031e:	f1dc 0c00 	rsbs	ip, ip, #0
 8000322:	eb7e 0000 	sbcs.w	r0, lr, r0
 8000326:	eb6e 0101 	sbc.w	r1, lr, r1
 800032a:	f5b1 1f80 	cmp.w	r1, #1048576	; 0x100000
 800032e:	d31b      	bcc.n	8000368 <__adddf3+0x124>
 8000330:	f5b1 1f00 	cmp.w	r1, #2097152	; 0x200000
 8000334:	d30c      	bcc.n	8000350 <__adddf3+0x10c>
 8000336:	0849      	lsrs	r1, r1, #1
 8000338:	ea5f 0030 	movs.w	r0, r0, rrx
 800033c:	ea4f 0c3c 	mov.w	ip, ip, rrx
 8000340:	f104 0401 	add.w	r4, r4, #1
 8000344:	ea4f 5244 	mov.w	r2, r4, lsl #21
 8000348:	f512 0f80 	cmn.w	r2, #4194304	; 0x400000
 800034c:	f080 809a 	bcs.w	8000484 <__adddf3+0x240>
 8000350:	f1bc 4f00 	cmp.w	ip, #2147483648	; 0x80000000
 8000354:	bf08      	it	eq
 8000356:	ea5f 0c50 	movseq.w	ip, r0, lsr #1
 800035a:	f150 0000 	adcs.w	r0, r0, #0
 800035e:	eb41 5104 	adc.w	r1, r1, r4, lsl #20
 8000362:	ea41 0105 	orr.w	r1, r1, r5
 8000366:	bd30      	pop	{r4, r5, pc}
 8000368:	ea5f 0c4c 	movs.w	ip, ip, lsl #1
 800036c:	4140      	adcs	r0, r0
 800036e:	eb41 0101 	adc.w	r1, r1, r1
 8000372:	3c01      	subs	r4, #1
 8000374:	bf28      	it	cs
 8000376:	f5b1 1f80 	cmpcs.w	r1, #1048576	; 0x100000
 800037a:	d2e9      	bcs.n	8000350 <__adddf3+0x10c>
 800037c:	f091 0f00 	teq	r1, #0
 8000380:	bf04      	itt	eq
 8000382:	4601      	moveq	r1, r0
 8000384:	2000      	moveq	r0, #0
 8000386:	fab1 f381 	clz	r3, r1
 800038a:	bf08      	it	eq
 800038c:	3320      	addeq	r3, #32
 800038e:	f1a3 030b 	sub.w	r3, r3, #11
 8000392:	f1b3 0220 	subs.w	r2, r3, #32
 8000396:	da0c      	bge.n	80003b2 <__adddf3+0x16e>
 8000398:	320c      	adds	r2, #12
 800039a:	dd08      	ble.n	80003ae <__adddf3+0x16a>
 800039c:	f102 0c14 	add.w	ip, r2, #20
 80003a0:	f1c2 020c 	rsb	r2, r2, #12
 80003a4:	fa01 f00c 	lsl.w	r0, r1, ip
 80003a8:	fa21 f102 	lsr.w	r1, r1, r2
 80003ac:	e00c      	b.n	80003c8 <__adddf3+0x184>
 80003ae:	f102 0214 	add.w	r2, r2, #20
 80003b2:	bfd8      	it	le
 80003b4:	f1c2 0c20 	rsble	ip, r2, #32
 80003b8:	fa01 f102 	lsl.w	r1, r1, r2
 80003bc:	fa20 fc0c 	lsr.w	ip, r0, ip
 80003c0:	bfdc      	itt	le
 80003c2:	ea41 010c 	orrle.w	r1, r1, ip
 80003c6:	4090      	lslle	r0, r2
 80003c8:	1ae4      	subs	r4, r4, r3
 80003ca:	bfa2      	ittt	ge
 80003cc:	eb01 5104 	addge.w	r1, r1, r4, lsl #20
 80003d0:	4329      	orrge	r1, r5
 80003d2:	bd30      	popge	{r4, r5, pc}
 80003d4:	ea6f 0404 	mvn.w	r4, r4
 80003d8:	3c1f      	subs	r4, #31
 80003da:	da1c      	bge.n	8000416 <__adddf3+0x1d2>
 80003dc:	340c      	adds	r4, #12
 80003de:	dc0e      	bgt.n	80003fe <__adddf3+0x1ba>
 80003e0:	f104 0414 	add.w	r4, r4, #20
 80003e4:	f1c4 0220 	rsb	r2, r4, #32
 80003e8:	fa20 f004 	lsr.w	r0, r0, r4
 80003ec:	fa01 f302 	lsl.w	r3, r1, r2
 80003f0:	ea40 0003 	orr.w	r0, r0, r3
 80003f4:	fa21 f304 	lsr.w	r3, r1, r4
 80003f8:	ea45 0103 	orr.w	r1, r5, r3
 80003fc:	bd30      	pop	{r4, r5, pc}
 80003fe:	f1c4 040c 	rsb	r4, r4, #12
 8000402:	f1c4 0220 	rsb	r2, r4, #32
 8000406:	fa20 f002 	lsr.w	r0, r0, r2
 800040a:	fa01 f304 	lsl.w	r3, r1, r4
 800040e:	ea40 0003 	orr.w	r0, r0, r3
 8000412:	4629      	mov	r1, r5
 8000414:	bd30      	pop	{r4, r5, pc}
 8000416:	fa21 f004 	lsr.w	r0, r1, r4
 800041a:	4629      	mov	r1, r5
 800041c:	bd30      	pop	{r4, r5, pc}
 800041e:	f094 0f00 	teq	r4, #0
 8000422:	f483 1380 	eor.w	r3, r3, #1048576	; 0x100000
 8000426:	bf06      	itte	eq
 8000428:	f481 1180 	eoreq.w	r1, r1, #1048576	; 0x100000
 800042c:	3401      	addeq	r4, #1
 800042e:	3d01      	subne	r5, #1
 8000430:	e74e      	b.n	80002d0 <__adddf3+0x8c>
 8000432:	ea7f 5c64 	mvns.w	ip, r4, asr #21
 8000436:	bf18      	it	ne
 8000438:	ea7f 5c65 	mvnsne.w	ip, r5, asr #21
 800043c:	d029      	beq.n	8000492 <__adddf3+0x24e>
 800043e:	ea94 0f05 	teq	r4, r5
 8000442:	bf08      	it	eq
 8000444:	ea90 0f02 	teqeq	r0, r2
 8000448:	d005      	beq.n	8000456 <__adddf3+0x212>
 800044a:	ea54 0c00 	orrs.w	ip, r4, r0
 800044e:	bf04      	itt	eq
 8000450:	4619      	moveq	r1, r3
 8000452:	4610      	moveq	r0, r2
 8000454:	bd30      	pop	{r4, r5, pc}
 8000456:	ea91 0f03 	teq	r1, r3
 800045a:	bf1e      	ittt	ne
 800045c:	2100      	movne	r1, #0
 800045e:	2000      	movne	r0, #0
 8000460:	bd30      	popne	{r4, r5, pc}
 8000462:	ea5f 5c54 	movs.w	ip, r4, lsr #21
 8000466:	d105      	bne.n	8000474 <__adddf3+0x230>
 8000468:	0040      	lsls	r0, r0, #1
 800046a:	4149      	adcs	r1, r1
 800046c:	bf28      	it	cs
 800046e:	f041 4100 	orrcs.w	r1, r1, #2147483648	; 0x80000000
 8000472:	bd30      	pop	{r4, r5, pc}
 8000474:	f514 0480 	adds.w	r4, r4, #4194304	; 0x400000
 8000478:	bf3c      	itt	cc
 800047a:	f501 1180 	addcc.w	r1, r1, #1048576	; 0x100000
 800047e:	bd30      	popcc	{r4, r5, pc}
 8000480:	f001 4500 	and.w	r5, r1, #2147483648	; 0x80000000
 8000484:	f045 41fe 	orr.w	r1, r5, #2130706432	; 0x7f000000
 8000488:	f441 0170 	orr.w	r1, r1, #15728640	; 0xf00000
 800048c:	f04f 0000 	mov.w	r0, #0
 8000490:	bd30      	pop	{r4, r5, pc}
 8000492:	ea7f 5c64 	mvns.w	ip, r4, asr #21
 8000496:	bf1a      	itte	ne
 8000498:	4619      	movne	r1, r3
 800049a:	4610      	movne	r0, r2
 800049c:	ea7f 5c65 	mvnseq.w	ip, r5, asr #21
 80004a0:	bf1c      	itt	ne
 80004a2:	460b      	movne	r3, r1
 80004a4:	4602      	movne	r2, r0
 80004a6:	ea50 3401 	orrs.w	r4, r0, r1, lsl #12
 80004aa:	bf06      	itte	eq
 80004ac:	ea52 3503 	orrseq.w	r5, r2, r3, lsl #12
 80004b0:	ea91 0f03 	teqeq	r1, r3
 80004b4:	f441 2100 	orrne.w	r1, r1, #524288	; 0x80000
 80004b8:	bd30      	pop	{r4, r5, pc}
 80004ba:	bf00      	nop

080004bc <__aeabi_ui2d>:
 80004bc:	f090 0f00 	teq	r0, #0
 80004c0:	bf04      	itt	eq
 80004c2:	2100      	moveq	r1, #0
 80004c4:	4770      	bxeq	lr
 80004c6:	b530      	push	{r4, r5, lr}
 80004c8:	f44f 6480 	mov.w	r4, #1024	; 0x400
 80004cc:	f104 0432 	add.w	r4, r4, #50	; 0x32
 80004d0:	f04f 0500 	mov.w	r5, #0
 80004d4:	f04f 0100 	mov.w	r1, #0
 80004d8:	e750      	b.n	800037c <__adddf3+0x138>
 80004da:	bf00      	nop

080004dc <__aeabi_i2d>:
 80004dc:	f090 0f00 	teq	r0, #0
 80004e0:	bf04      	itt	eq
 80004e2:	2100      	moveq	r1, #0
 80004e4:	4770      	bxeq	lr
 80004e6:	b530      	push	{r4, r5, lr}
 80004e8:	f44f 6480 	mov.w	r4, #1024	; 0x400
 80004ec:	f104 0432 	add.w	r4, r4, #50	; 0x32
 80004f0:	f010 4500 	ands.w	r5, r0, #2147483648	; 0x80000000
 80004f4:	bf48      	it	mi
 80004f6:	4240      	negmi	r0, r0
 80004f8:	f04f 0100 	mov.w	r1, #0
 80004fc:	e73e      	b.n	800037c <__adddf3+0x138>
 80004fe:	bf00      	nop

08000500 <__aeabi_f2d>:
 8000500:	0042      	lsls	r2, r0, #1
 8000502:	ea4f 01e2 	mov.w	r1, r2, asr #3
 8000506:	ea4f 0131 	mov.w	r1, r1, rrx
 800050a:	ea4f 7002 	mov.w	r0, r2, lsl #28
 800050e:	bf1f      	itttt	ne
 8000510:	f012 437f 	andsne.w	r3, r2, #4278190080	; 0xff000000
 8000514:	f093 4f7f 	teqne	r3, #4278190080	; 0xff000000
 8000518:	f081 5160 	eorne.w	r1, r1, #939524096	; 0x38000000
 800051c:	4770      	bxne	lr
 800051e:	f032 427f 	bics.w	r2, r2, #4278190080	; 0xff000000
 8000522:	bf08      	it	eq
 8000524:	4770      	bxeq	lr
 8000526:	f093 4f7f 	teq	r3, #4278190080	; 0xff000000
 800052a:	bf04      	itt	eq
 800052c:	f441 2100 	orreq.w	r1, r1, #524288	; 0x80000
 8000530:	4770      	bxeq	lr
 8000532:	b530      	push	{r4, r5, lr}
 8000534:	f44f 7460 	mov.w	r4, #896	; 0x380
 8000538:	f001 4500 	and.w	r5, r1, #2147483648	; 0x80000000
 800053c:	f021 4100 	bic.w	r1, r1, #2147483648	; 0x80000000
 8000540:	e71c      	b.n	800037c <__adddf3+0x138>
 8000542:	bf00      	nop

08000544 <__aeabi_ul2d>:
 8000544:	ea50 0201 	orrs.w	r2, r0, r1
 8000548:	bf08      	it	eq
 800054a:	4770      	bxeq	lr
 800054c:	b530      	push	{r4, r5, lr}
 800054e:	f04f 0500 	mov.w	r5, #0
 8000552:	e00a      	b.n	800056a <__aeabi_l2d+0x16>

08000554 <__aeabi_l2d>:
 8000554:	ea50 0201 	orrs.w	r2, r0, r1
 8000558:	bf08      	it	eq
 800055a:	4770      	bxeq	lr
 800055c:	b530      	push	{r4, r5, lr}
 800055e:	f011 4500 	ands.w	r5, r1, #2147483648	; 0x80000000
 8000562:	d502      	bpl.n	800056a <__aeabi_l2d+0x16>
 8000564:	4240      	negs	r0, r0
 8000566:	eb61 0141 	sbc.w	r1, r1, r1, lsl #1
 800056a:	f44f 6480 	mov.w	r4, #1024	; 0x400
 800056e:	f104 0432 	add.w	r4, r4, #50	; 0x32
 8000572:	ea5f 5c91 	movs.w	ip, r1, lsr #22
 8000576:	f43f aed8 	beq.w	800032a <__adddf3+0xe6>
 800057a:	f04f 0203 	mov.w	r2, #3
 800057e:	ea5f 0cdc 	movs.w	ip, ip, lsr #3
 8000582:	bf18      	it	ne
 8000584:	3203      	addne	r2, #3
 8000586:	ea5f 0cdc 	movs.w	ip, ip, lsr #3
 800058a:	bf18      	it	ne
 800058c:	3203      	addne	r2, #3
 800058e:	eb02 02dc 	add.w	r2, r2, ip, lsr #3
 8000592:	f1c2 0320 	rsb	r3, r2, #32
 8000596:	fa00 fc03 	lsl.w	ip, r0, r3
 800059a:	fa20 f002 	lsr.w	r0, r0, r2
 800059e:	fa01 fe03 	lsl.w	lr, r1, r3
 80005a2:	ea40 000e 	orr.w	r0, r0, lr
 80005a6:	fa21 f102 	lsr.w	r1, r1, r2
 80005aa:	4414      	add	r4, r2
 80005ac:	e6bd      	b.n	800032a <__adddf3+0xe6>
 80005ae:	bf00      	nop

080005b0 <__aeabi_dmul>:
 80005b0:	b570      	push	{r4, r5, r6, lr}
 80005b2:	f04f 0cff 	mov.w	ip, #255	; 0xff
 80005b6:	f44c 6ce0 	orr.w	ip, ip, #1792	; 0x700
 80005ba:	ea1c 5411 	ands.w	r4, ip, r1, lsr #20
 80005be:	bf1d      	ittte	ne
 80005c0:	ea1c 5513 	andsne.w	r5, ip, r3, lsr #20
 80005c4:	ea94 0f0c 	teqne	r4, ip
 80005c8:	ea95 0f0c 	teqne	r5, ip
 80005cc:	f000 f8de 	bleq	800078c <__aeabi_dmul+0x1dc>
 80005d0:	442c      	add	r4, r5
 80005d2:	ea81 0603 	eor.w	r6, r1, r3
 80005d6:	ea21 514c 	bic.w	r1, r1, ip, lsl #21
 80005da:	ea23 534c 	bic.w	r3, r3, ip, lsl #21
 80005de:	ea50 3501 	orrs.w	r5, r0, r1, lsl #12
 80005e2:	bf18      	it	ne
 80005e4:	ea52 3503 	orrsne.w	r5, r2, r3, lsl #12
 80005e8:	f441 1180 	orr.w	r1, r1, #1048576	; 0x100000
 80005ec:	f443 1380 	orr.w	r3, r3, #1048576	; 0x100000
 80005f0:	d038      	beq.n	8000664 <__aeabi_dmul+0xb4>
 80005f2:	fba0 ce02 	umull	ip, lr, r0, r2
 80005f6:	f04f 0500 	mov.w	r5, #0
 80005fa:	fbe1 e502 	umlal	lr, r5, r1, r2
 80005fe:	f006 4200 	and.w	r2, r6, #2147483648	; 0x80000000
 8000602:	fbe0 e503 	umlal	lr, r5, r0, r3
 8000606:	f04f 0600 	mov.w	r6, #0
 800060a:	fbe1 5603 	umlal	r5, r6, r1, r3
 800060e:	f09c 0f00 	teq	ip, #0
 8000612:	bf18      	it	ne
 8000614:	f04e 0e01 	orrne.w	lr, lr, #1
 8000618:	f1a4 04ff 	sub.w	r4, r4, #255	; 0xff
 800061c:	f5b6 7f00 	cmp.w	r6, #512	; 0x200
 8000620:	f564 7440 	sbc.w	r4, r4, #768	; 0x300
 8000624:	d204      	bcs.n	8000630 <__aeabi_dmul+0x80>
 8000626:	ea5f 0e4e 	movs.w	lr, lr, lsl #1
 800062a:	416d      	adcs	r5, r5
 800062c:	eb46 0606 	adc.w	r6, r6, r6
 8000630:	ea42 21c6 	orr.w	r1, r2, r6, lsl #11
 8000634:	ea41 5155 	orr.w	r1, r1, r5, lsr #21
 8000638:	ea4f 20c5 	mov.w	r0, r5, lsl #11
 800063c:	ea40 505e 	orr.w	r0, r0, lr, lsr #21
 8000640:	ea4f 2ece 	mov.w	lr, lr, lsl #11
 8000644:	f1b4 0cfd 	subs.w	ip, r4, #253	; 0xfd
 8000648:	bf88      	it	hi
 800064a:	f5bc 6fe0 	cmphi.w	ip, #1792	; 0x700
 800064e:	d81e      	bhi.n	800068e <__aeabi_dmul+0xde>
 8000650:	f1be 4f00 	cmp.w	lr, #2147483648	; 0x80000000
 8000654:	bf08      	it	eq
 8000656:	ea5f 0e50 	movseq.w	lr, r0, lsr #1
 800065a:	f150 0000 	adcs.w	r0, r0, #0
 800065e:	eb41 5104 	adc.w	r1, r1, r4, lsl #20
 8000662:	bd70      	pop	{r4, r5, r6, pc}
 8000664:	f006 4600 	and.w	r6, r6, #2147483648	; 0x80000000
 8000668:	ea46 0101 	orr.w	r1, r6, r1
 800066c:	ea40 0002 	orr.w	r0, r0, r2
 8000670:	ea81 0103 	eor.w	r1, r1, r3
 8000674:	ebb4 045c 	subs.w	r4, r4, ip, lsr #1
 8000678:	bfc2      	ittt	gt
 800067a:	ebd4 050c 	rsbsgt	r5, r4, ip
 800067e:	ea41 5104 	orrgt.w	r1, r1, r4, lsl #20
 8000682:	bd70      	popgt	{r4, r5, r6, pc}
 8000684:	f441 1180 	orr.w	r1, r1, #1048576	; 0x100000
 8000688:	f04f 0e00 	mov.w	lr, #0
 800068c:	3c01      	subs	r4, #1
 800068e:	f300 80ab 	bgt.w	80007e8 <__aeabi_dmul+0x238>
 8000692:	f114 0f36 	cmn.w	r4, #54	; 0x36
 8000696:	bfde      	ittt	le
 8000698:	2000      	movle	r0, #0
 800069a:	f001 4100 	andle.w	r1, r1, #2147483648	; 0x80000000
 800069e:	bd70      	pople	{r4, r5, r6, pc}
 80006a0:	f1c4 0400 	rsb	r4, r4, #0
 80006a4:	3c20      	subs	r4, #32
 80006a6:	da35      	bge.n	8000714 <__aeabi_dmul+0x164>
 80006a8:	340c      	adds	r4, #12
 80006aa:	dc1b      	bgt.n	80006e4 <__aeabi_dmul+0x134>
 80006ac:	f104 0414 	add.w	r4, r4, #20
 80006b0:	f1c4 0520 	rsb	r5, r4, #32
 80006b4:	fa00 f305 	lsl.w	r3, r0, r5
 80006b8:	fa20 f004 	lsr.w	r0, r0, r4
 80006bc:	fa01 f205 	lsl.w	r2, r1, r5
 80006c0:	ea40 0002 	orr.w	r0, r0, r2
 80006c4:	f001 4200 	and.w	r2, r1, #2147483648	; 0x80000000
 80006c8:	f021 4100 	bic.w	r1, r1, #2147483648	; 0x80000000
 80006cc:	eb10 70d3 	adds.w	r0, r0, r3, lsr #31
 80006d0:	fa21 f604 	lsr.w	r6, r1, r4
 80006d4:	eb42 0106 	adc.w	r1, r2, r6
 80006d8:	ea5e 0e43 	orrs.w	lr, lr, r3, lsl #1
 80006dc:	bf08      	it	eq
 80006de:	ea20 70d3 	biceq.w	r0, r0, r3, lsr #31
 80006e2:	bd70      	pop	{r4, r5, r6, pc}
 80006e4:	f1c4 040c 	rsb	r4, r4, #12
 80006e8:	f1c4 0520 	rsb	r5, r4, #32
 80006ec:	fa00 f304 	lsl.w	r3, r0, r4
 80006f0:	fa20 f005 	lsr.w	r0, r0, r5
 80006f4:	fa01 f204 	lsl.w	r2, r1, r4
 80006f8:	ea40 0002 	orr.w	r0, r0, r2
 80006fc:	f001 4100 	and.w	r1, r1, #2147483648	; 0x80000000
 8000700:	eb10 70d3 	adds.w	r0, r0, r3, lsr #31
 8000704:	f141 0100 	adc.w	r1, r1, #0
 8000708:	ea5e 0e43 	orrs.w	lr, lr, r3, lsl #1
 800070c:	bf08      	it	eq
 800070e:	ea20 70d3 	biceq.w	r0, r0, r3, lsr #31
 8000712:	bd70      	pop	{r4, r5, r6, pc}
 8000714:	f1c4 0520 	rsb	r5, r4, #32
 8000718:	fa00 f205 	lsl.w	r2, r0, r5
 800071c:	ea4e 0e02 	orr.w	lr, lr, r2
 8000720:	fa20 f304 	lsr.w	r3, r0, r4
 8000724:	fa01 f205 	lsl.w	r2, r1, r5
 8000728:	ea43 0302 	orr.w	r3, r3, r2
 800072c:	fa21 f004 	lsr.w	r0, r1, r4
 8000730:	f001 4100 	and.w	r1, r1, #2147483648	; 0x80000000
 8000734:	fa21 f204 	lsr.w	r2, r1, r4
 8000738:	ea20 0002 	bic.w	r0, r0, r2
 800073c:	eb00 70d3 	add.w	r0, r0, r3, lsr #31
 8000740:	ea5e 0e43 	orrs.w	lr, lr, r3, lsl #1
 8000744:	bf08      	it	eq
 8000746:	ea20 70d3 	biceq.w	r0, r0, r3, lsr #31
 800074a:	bd70      	pop	{r4, r5, r6, pc}
 800074c:	f094 0f00 	teq	r4, #0
 8000750:	d10f      	bne.n	8000772 <__aeabi_dmul+0x1c2>
 8000752:	f001 4600 	and.w	r6, r1, #2147483648	; 0x80000000
 8000756:	0040      	lsls	r0, r0, #1
 8000758:	eb41 0101 	adc.w	r1, r1, r1
 800075c:	f411 1f80 	tst.w	r1, #1048576	; 0x100000
 8000760:	bf08      	it	eq
 8000762:	3c01      	subeq	r4, #1
 8000764:	d0f7      	beq.n	8000756 <__aeabi_dmul+0x1a6>
 8000766:	ea41 0106 	orr.w	r1, r1, r6
 800076a:	f095 0f00 	teq	r5, #0
 800076e:	bf18      	it	ne
 8000770:	4770      	bxne	lr
 8000772:	f003 4600 	and.w	r6, r3, #2147483648	; 0x80000000
 8000776:	0052      	lsls	r2, r2, #1
 8000778:	eb43 0303 	adc.w	r3, r3, r3
 800077c:	f413 1f80 	tst.w	r3, #1048576	; 0x100000
 8000780:	bf08      	it	eq
 8000782:	3d01      	subeq	r5, #1
 8000784:	d0f7      	beq.n	8000776 <__aeabi_dmul+0x1c6>
 8000786:	ea43 0306 	orr.w	r3, r3, r6
 800078a:	4770      	bx	lr
 800078c:	ea94 0f0c 	teq	r4, ip
 8000790:	ea0c 5513 	and.w	r5, ip, r3, lsr #20
 8000794:	bf18      	it	ne
 8000796:	ea95 0f0c 	teqne	r5, ip
 800079a:	d00c      	beq.n	80007b6 <__aeabi_dmul+0x206>
 800079c:	ea50 0641 	orrs.w	r6, r0, r1, lsl #1
 80007a0:	bf18      	it	ne
 80007a2:	ea52 0643 	orrsne.w	r6, r2, r3, lsl #1
 80007a6:	d1d1      	bne.n	800074c <__aeabi_dmul+0x19c>
 80007a8:	ea81 0103 	eor.w	r1, r1, r3
 80007ac:	f001 4100 	and.w	r1, r1, #2147483648	; 0x80000000
 80007b0:	f04f 0000 	mov.w	r0, #0
 80007b4:	bd70      	pop	{r4, r5, r6, pc}
 80007b6:	ea50 0641 	orrs.w	r6, r0, r1, lsl #1
 80007ba:	bf06      	itte	eq
 80007bc:	4610      	moveq	r0, r2
 80007be:	4619      	moveq	r1, r3
 80007c0:	ea52 0643 	orrsne.w	r6, r2, r3, lsl #1
 80007c4:	d019      	beq.n	80007fa <__aeabi_dmul+0x24a>
 80007c6:	ea94 0f0c 	teq	r4, ip
 80007ca:	d102      	bne.n	80007d2 <__aeabi_dmul+0x222>
 80007cc:	ea50 3601 	orrs.w	r6, r0, r1, lsl #12
 80007d0:	d113      	bne.n	80007fa <__aeabi_dmul+0x24a>
 80007d2:	ea95 0f0c 	teq	r5, ip
 80007d6:	d105      	bne.n	80007e4 <__aeabi_dmul+0x234>
 80007d8:	ea52 3603 	orrs.w	r6, r2, r3, lsl #12
 80007dc:	bf1c      	itt	ne
 80007de:	4610      	movne	r0, r2
 80007e0:	4619      	movne	r1, r3
 80007e2:	d10a      	bne.n	80007fa <__aeabi_dmul+0x24a>
 80007e4:	ea81 0103 	eor.w	r1, r1, r3
 80007e8:	f001 4100 	and.w	r1, r1, #2147483648	; 0x80000000
 80007ec:	f041 41fe 	orr.w	r1, r1, #2130706432	; 0x7f000000
 80007f0:	f441 0170 	orr.w	r1, r1, #15728640	; 0xf00000
 80007f4:	f04f 0000 	mov.w	r0, #0
 80007f8:	bd70      	pop	{r4, r5, r6, pc}
 80007fa:	f041 41fe 	orr.w	r1, r1, #2130706432	; 0x7f000000
 80007fe:	f441 0178 	orr.w	r1, r1, #16252928	; 0xf80000
 8000802:	bd70      	pop	{r4, r5, r6, pc}

08000804 <__aeabi_ddiv>:
 8000804:	b570      	push	{r4, r5, r6, lr}
 8000806:	f04f 0cff 	mov.w	ip, #255	; 0xff
 800080a:	f44c 6ce0 	orr.w	ip, ip, #1792	; 0x700
 800080e:	ea1c 5411 	ands.w	r4, ip, r1, lsr #20
 8000812:	bf1d      	ittte	ne
 8000814:	ea1c 5513 	andsne.w	r5, ip, r3, lsr #20
 8000818:	ea94 0f0c 	teqne	r4, ip
 800081c:	ea95 0f0c 	teqne	r5, ip
 8000820:	f000 f8a7 	bleq	8000972 <__aeabi_ddiv+0x16e>
 8000824:	eba4 0405 	sub.w	r4, r4, r5
 8000828:	ea81 0e03 	eor.w	lr, r1, r3
 800082c:	ea52 3503 	orrs.w	r5, r2, r3, lsl #12
 8000830:	ea4f 3101 	mov.w	r1, r1, lsl #12
 8000834:	f000 8088 	beq.w	8000948 <__aeabi_ddiv+0x144>
 8000838:	ea4f 3303 	mov.w	r3, r3, lsl #12
 800083c:	f04f 5580 	mov.w	r5, #268435456	; 0x10000000
 8000840:	ea45 1313 	orr.w	r3, r5, r3, lsr #4
 8000844:	ea43 6312 	orr.w	r3, r3, r2, lsr #24
 8000848:	ea4f 2202 	mov.w	r2, r2, lsl #8
 800084c:	ea45 1511 	orr.w	r5, r5, r1, lsr #4
 8000850:	ea45 6510 	orr.w	r5, r5, r0, lsr #24
 8000854:	ea4f 2600 	mov.w	r6, r0, lsl #8
 8000858:	f00e 4100 	and.w	r1, lr, #2147483648	; 0x80000000
 800085c:	429d      	cmp	r5, r3
 800085e:	bf08      	it	eq
 8000860:	4296      	cmpeq	r6, r2
 8000862:	f144 04fd 	adc.w	r4, r4, #253	; 0xfd
 8000866:	f504 7440 	add.w	r4, r4, #768	; 0x300
 800086a:	d202      	bcs.n	8000872 <__aeabi_ddiv+0x6e>
 800086c:	085b      	lsrs	r3, r3, #1
 800086e:	ea4f 0232 	mov.w	r2, r2, rrx
 8000872:	1ab6      	subs	r6, r6, r2
 8000874:	eb65 0503 	sbc.w	r5, r5, r3
 8000878:	085b      	lsrs	r3, r3, #1
 800087a:	ea4f 0232 	mov.w	r2, r2, rrx
 800087e:	f44f 1080 	mov.w	r0, #1048576	; 0x100000
 8000882:	f44f 2c00 	mov.w	ip, #524288	; 0x80000
 8000886:	ebb6 0e02 	subs.w	lr, r6, r2
 800088a:	eb75 0e03 	sbcs.w	lr, r5, r3
 800088e:	bf22      	ittt	cs
 8000890:	1ab6      	subcs	r6, r6, r2
 8000892:	4675      	movcs	r5, lr
 8000894:	ea40 000c 	orrcs.w	r0, r0, ip
 8000898:	085b      	lsrs	r3, r3, #1
 800089a:	ea4f 0232 	mov.w	r2, r2, rrx
 800089e:	ebb6 0e02 	subs.w	lr, r6, r2
 80008a2:	eb75 0e03 	sbcs.w	lr, r5, r3
 80008a6:	bf22      	ittt	cs
 80008a8:	1ab6      	subcs	r6, r6, r2
 80008aa:	4675      	movcs	r5, lr
 80008ac:	ea40 005c 	orrcs.w	r0, r0, ip, lsr #1
 80008b0:	085b      	lsrs	r3, r3, #1
 80008b2:	ea4f 0232 	mov.w	r2, r2, rrx
 80008b6:	ebb6 0e02 	subs.w	lr, r6, r2
 80008ba:	eb75 0e03 	sbcs.w	lr, r5, r3
 80008be:	bf22      	ittt	cs
 80008c0:	1ab6      	subcs	r6, r6, r2
 80008c2:	4675      	movcs	r5, lr
 80008c4:	ea40 009c 	orrcs.w	r0, r0, ip, lsr #2
 80008c8:	085b      	lsrs	r3, r3, #1
 80008ca:	ea4f 0232 	mov.w	r2, r2, rrx
 80008ce:	ebb6 0e02 	subs.w	lr, r6, r2
 80008d2:	eb75 0e03 	sbcs.w	lr, r5, r3
 80008d6:	bf22      	ittt	cs
 80008d8:	1ab6      	subcs	r6, r6, r2
 80008da:	4675      	movcs	r5, lr
 80008dc:	ea40 00dc 	orrcs.w	r0, r0, ip, lsr #3
 80008e0:	ea55 0e06 	orrs.w	lr, r5, r6
 80008e4:	d018      	beq.n	8000918 <__aeabi_ddiv+0x114>
 80008e6:	ea4f 1505 	mov.w	r5, r5, lsl #4
 80008ea:	ea45 7516 	orr.w	r5, r5, r6, lsr #28
 80008ee:	ea4f 1606 	mov.w	r6, r6, lsl #4
 80008f2:	ea4f 03c3 	mov.w	r3, r3, lsl #3
 80008f6:	ea43 7352 	orr.w	r3, r3, r2, lsr #29
 80008fa:	ea4f 02c2 	mov.w	r2, r2, lsl #3
 80008fe:	ea5f 1c1c 	movs.w	ip, ip, lsr #4
 8000902:	d1c0      	bne.n	8000886 <__aeabi_ddiv+0x82>
 8000904:	f411 1f80 	tst.w	r1, #1048576	; 0x100000
 8000908:	d10b      	bne.n	8000922 <__aeabi_ddiv+0x11e>
 800090a:	ea41 0100 	orr.w	r1, r1, r0
 800090e:	f04f 0000 	mov.w	r0, #0
 8000912:	f04f 4c00 	mov.w	ip, #2147483648	; 0x80000000
 8000916:	e7b6      	b.n	8000886 <__aeabi_ddiv+0x82>
 8000918:	f411 1f80 	tst.w	r1, #1048576	; 0x100000
 800091c:	bf04      	itt	eq
 800091e:	4301      	orreq	r1, r0
 8000920:	2000      	moveq	r0, #0
 8000922:	f1b4 0cfd 	subs.w	ip, r4, #253	; 0xfd
 8000926:	bf88      	it	hi
 8000928:	f5bc 6fe0 	cmphi.w	ip, #1792	; 0x700
 800092c:	f63f aeaf 	bhi.w	800068e <__aeabi_dmul+0xde>
 8000930:	ebb5 0c03 	subs.w	ip, r5, r3
 8000934:	bf04      	itt	eq
 8000936:	ebb6 0c02 	subseq.w	ip, r6, r2
 800093a:	ea5f 0c50 	movseq.w	ip, r0, lsr #1
 800093e:	f150 0000 	adcs.w	r0, r0, #0
 8000942:	eb41 5104 	adc.w	r1, r1, r4, lsl #20
 8000946:	bd70      	pop	{r4, r5, r6, pc}
 8000948:	f00e 4e00 	and.w	lr, lr, #2147483648	; 0x80000000
 800094c:	ea4e 3111 	orr.w	r1, lr, r1, lsr #12
 8000950:	eb14 045c 	adds.w	r4, r4, ip, lsr #1
 8000954:	bfc2      	ittt	gt
 8000956:	ebd4 050c 	rsbsgt	r5, r4, ip
 800095a:	ea41 5104 	orrgt.w	r1, r1, r4, lsl #20
 800095e:	bd70      	popgt	{r4, r5, r6, pc}
 8000960:	f441 1180 	orr.w	r1, r1, #1048576	; 0x100000
 8000964:	f04f 0e00 	mov.w	lr, #0
 8000968:	3c01      	subs	r4, #1
 800096a:	e690      	b.n	800068e <__aeabi_dmul+0xde>
 800096c:	ea45 0e06 	orr.w	lr, r5, r6
 8000970:	e68d      	b.n	800068e <__aeabi_dmul+0xde>
 8000972:	ea0c 5513 	and.w	r5, ip, r3, lsr #20
 8000976:	ea94 0f0c 	teq	r4, ip
 800097a:	bf08      	it	eq
 800097c:	ea95 0f0c 	teqeq	r5, ip
 8000980:	f43f af3b 	beq.w	80007fa <__aeabi_dmul+0x24a>
 8000984:	ea94 0f0c 	teq	r4, ip
 8000988:	d10a      	bne.n	80009a0 <__aeabi_ddiv+0x19c>
 800098a:	ea50 3401 	orrs.w	r4, r0, r1, lsl #12
 800098e:	f47f af34 	bne.w	80007fa <__aeabi_dmul+0x24a>
 8000992:	ea95 0f0c 	teq	r5, ip
 8000996:	f47f af25 	bne.w	80007e4 <__aeabi_dmul+0x234>
 800099a:	4610      	mov	r0, r2
 800099c:	4619      	mov	r1, r3
 800099e:	e72c      	b.n	80007fa <__aeabi_dmul+0x24a>
 80009a0:	ea95 0f0c 	teq	r5, ip
 80009a4:	d106      	bne.n	80009b4 <__aeabi_ddiv+0x1b0>
 80009a6:	ea52 3503 	orrs.w	r5, r2, r3, lsl #12
 80009aa:	f43f aefd 	beq.w	80007a8 <__aeabi_dmul+0x1f8>
 80009ae:	4610      	mov	r0, r2
 80009b0:	4619      	mov	r1, r3
 80009b2:	e722      	b.n	80007fa <__aeabi_dmul+0x24a>
 80009b4:	ea50 0641 	orrs.w	r6, r0, r1, lsl #1
 80009b8:	bf18      	it	ne
 80009ba:	ea52 0643 	orrsne.w	r6, r2, r3, lsl #1
 80009be:	f47f aec5 	bne.w	800074c <__aeabi_dmul+0x19c>
 80009c2:	ea50 0441 	orrs.w	r4, r0, r1, lsl #1
 80009c6:	f47f af0d 	bne.w	80007e4 <__aeabi_dmul+0x234>
 80009ca:	ea52 0543 	orrs.w	r5, r2, r3, lsl #1
 80009ce:	f47f aeeb 	bne.w	80007a8 <__aeabi_dmul+0x1f8>
 80009d2:	e712      	b.n	80007fa <__aeabi_dmul+0x24a>

080009d4 <__gedf2>:
 80009d4:	f04f 3cff 	mov.w	ip, #4294967295
 80009d8:	e006      	b.n	80009e8 <__cmpdf2+0x4>
 80009da:	bf00      	nop

080009dc <__ledf2>:
 80009dc:	f04f 0c01 	mov.w	ip, #1
 80009e0:	e002      	b.n	80009e8 <__cmpdf2+0x4>
 80009e2:	bf00      	nop

080009e4 <__cmpdf2>:
 80009e4:	f04f 0c01 	mov.w	ip, #1
 80009e8:	f84d cd04 	str.w	ip, [sp, #-4]!
 80009ec:	ea4f 0c41 	mov.w	ip, r1, lsl #1
 80009f0:	ea7f 5c6c 	mvns.w	ip, ip, asr #21
 80009f4:	ea4f 0c43 	mov.w	ip, r3, lsl #1
 80009f8:	bf18      	it	ne
 80009fa:	ea7f 5c6c 	mvnsne.w	ip, ip, asr #21
 80009fe:	d01b      	beq.n	8000a38 <__cmpdf2+0x54>
 8000a00:	b001      	add	sp, #4
 8000a02:	ea50 0c41 	orrs.w	ip, r0, r1, lsl #1
 8000a06:	bf0c      	ite	eq
 8000a08:	ea52 0c43 	orrseq.w	ip, r2, r3, lsl #1
 8000a0c:	ea91 0f03 	teqne	r1, r3
 8000a10:	bf02      	ittt	eq
 8000a12:	ea90 0f02 	teqeq	r0, r2
 8000a16:	2000      	moveq	r0, #0
 8000a18:	4770      	bxeq	lr
 8000a1a:	f110 0f00 	cmn.w	r0, #0
 8000a1e:	ea91 0f03 	teq	r1, r3
 8000a22:	bf58      	it	pl
 8000a24:	4299      	cmppl	r1, r3
 8000a26:	bf08      	it	eq
 8000a28:	4290      	cmpeq	r0, r2
 8000a2a:	bf2c      	ite	cs
 8000a2c:	17d8      	asrcs	r0, r3, #31
 8000a2e:	ea6f 70e3 	mvncc.w	r0, r3, asr #31
 8000a32:	f040 0001 	orr.w	r0, r0, #1
 8000a36:	4770      	bx	lr
 8000a38:	ea4f 0c41 	mov.w	ip, r1, lsl #1
 8000a3c:	ea7f 5c6c 	mvns.w	ip, ip, asr #21
 8000a40:	d102      	bne.n	8000a48 <__cmpdf2+0x64>
 8000a42:	ea50 3c01 	orrs.w	ip, r0, r1, lsl #12
 8000a46:	d107      	bne.n	8000a58 <__cmpdf2+0x74>
 8000a48:	ea4f 0c43 	mov.w	ip, r3, lsl #1
 8000a4c:	ea7f 5c6c 	mvns.w	ip, ip, asr #21
 8000a50:	d1d6      	bne.n	8000a00 <__cmpdf2+0x1c>
 8000a52:	ea52 3c03 	orrs.w	ip, r2, r3, lsl #12
 8000a56:	d0d3      	beq.n	8000a00 <__cmpdf2+0x1c>
 8000a58:	f85d 0b04 	ldr.w	r0, [sp], #4
 8000a5c:	4770      	bx	lr
 8000a5e:	bf00      	nop

08000a60 <__aeabi_cdrcmple>:
 8000a60:	4684      	mov	ip, r0
 8000a62:	4610      	mov	r0, r2
 8000a64:	4662      	mov	r2, ip
 8000a66:	468c      	mov	ip, r1
 8000a68:	4619      	mov	r1, r3
 8000a6a:	4663      	mov	r3, ip
 8000a6c:	e000      	b.n	8000a70 <__aeabi_cdcmpeq>
 8000a6e:	bf00      	nop

08000a70 <__aeabi_cdcmpeq>:
 8000a70:	b501      	push	{r0, lr}
 8000a72:	f7ff ffb7 	bl	80009e4 <__cmpdf2>
 8000a76:	2800      	cmp	r0, #0
 8000a78:	bf48      	it	mi
 8000a7a:	f110 0f00 	cmnmi.w	r0, #0
 8000a7e:	bd01      	pop	{r0, pc}

08000a80 <__aeabi_dcmpeq>:
 8000a80:	f84d ed08 	str.w	lr, [sp, #-8]!
 8000a84:	f7ff fff4 	bl	8000a70 <__aeabi_cdcmpeq>
 8000a88:	bf0c      	ite	eq
 8000a8a:	2001      	moveq	r0, #1
 8000a8c:	2000      	movne	r0, #0
 8000a8e:	f85d fb08 	ldr.w	pc, [sp], #8
 8000a92:	bf00      	nop

08000a94 <__aeabi_dcmplt>:
 8000a94:	f84d ed08 	str.w	lr, [sp, #-8]!
 8000a98:	f7ff ffea 	bl	8000a70 <__aeabi_cdcmpeq>
 8000a9c:	bf34      	ite	cc
 8000a9e:	2001      	movcc	r0, #1
 8000aa0:	2000      	movcs	r0, #0
 8000aa2:	f85d fb08 	ldr.w	pc, [sp], #8
 8000aa6:	bf00      	nop

08000aa8 <__aeabi_dcmple>:
 8000aa8:	f84d ed08 	str.w	lr, [sp, #-8]!
 8000aac:	f7ff ffe0 	bl	8000a70 <__aeabi_cdcmpeq>
 8000ab0:	bf94      	ite	ls
 8000ab2:	2001      	movls	r0, #1
 8000ab4:	2000      	movhi	r0, #0
 8000ab6:	f85d fb08 	ldr.w	pc, [sp], #8
 8000aba:	bf00      	nop

08000abc <__aeabi_dcmpge>:
 8000abc:	f84d ed08 	str.w	lr, [sp, #-8]!
 8000ac0:	f7ff ffce 	bl	8000a60 <__aeabi_cdrcmple>
 8000ac4:	bf94      	ite	ls
 8000ac6:	2001      	movls	r0, #1
 8000ac8:	2000      	movhi	r0, #0
 8000aca:	f85d fb08 	ldr.w	pc, [sp], #8
 8000ace:	bf00      	nop

08000ad0 <__aeabi_dcmpgt>:
 8000ad0:	f84d ed08 	str.w	lr, [sp, #-8]!
 8000ad4:	f7ff ffc4 	bl	8000a60 <__aeabi_cdrcmple>
 8000ad8:	bf34      	ite	cc
 8000ada:	2001      	movcc	r0, #1
 8000adc:	2000      	movcs	r0, #0
 8000ade:	f85d fb08 	ldr.w	pc, [sp], #8
 8000ae2:	bf00      	nop

08000ae4 <__aeabi_d2uiz>:
 8000ae4:	004a      	lsls	r2, r1, #1
 8000ae6:	d211      	bcs.n	8000b0c <__aeabi_d2uiz+0x28>
 8000ae8:	f512 1200 	adds.w	r2, r2, #2097152	; 0x200000
 8000aec:	d211      	bcs.n	8000b12 <__aeabi_d2uiz+0x2e>
 8000aee:	d50d      	bpl.n	8000b0c <__aeabi_d2uiz+0x28>
 8000af0:	f46f 7378 	mvn.w	r3, #992	; 0x3e0
 8000af4:	ebb3 5262 	subs.w	r2, r3, r2, asr #21
 8000af8:	d40e      	bmi.n	8000b18 <__aeabi_d2uiz+0x34>
 8000afa:	ea4f 23c1 	mov.w	r3, r1, lsl #11
 8000afe:	f043 4300 	orr.w	r3, r3, #2147483648	; 0x80000000
 8000b02:	ea43 5350 	orr.w	r3, r3, r0, lsr #21
 8000b06:	fa23 f002 	lsr.w	r0, r3, r2
 8000b0a:	4770      	bx	lr
 8000b0c:	f04f 0000 	mov.w	r0, #0
 8000b10:	4770      	bx	lr
 8000b12:	ea50 3001 	orrs.w	r0, r0, r1, lsl #12
 8000b16:	d102      	bne.n	8000b1e <__aeabi_d2uiz+0x3a>
 8000b18:	f04f 30ff 	mov.w	r0, #4294967295
 8000b1c:	4770      	bx	lr
 8000b1e:	f04f 0000 	mov.w	r0, #0
 8000b22:	4770      	bx	lr

08000b24 <__aeabi_d2f>:
 8000b24:	ea4f 0241 	mov.w	r2, r1, lsl #1
 8000b28:	f1b2 43e0 	subs.w	r3, r2, #1879048192	; 0x70000000
 8000b2c:	bf24      	itt	cs
 8000b2e:	f5b3 1c00 	subscs.w	ip, r3, #2097152	; 0x200000
 8000b32:	f1dc 5cfe 	rsbscs	ip, ip, #532676608	; 0x1fc00000
 8000b36:	d90d      	bls.n	8000b54 <__aeabi_d2f+0x30>
 8000b38:	f001 4c00 	and.w	ip, r1, #2147483648	; 0x80000000
 8000b3c:	ea4f 02c0 	mov.w	r2, r0, lsl #3
 8000b40:	ea4c 7050 	orr.w	r0, ip, r0, lsr #29
 8000b44:	f1b2 4f00 	cmp.w	r2, #2147483648	; 0x80000000
 8000b48:	eb40 0083 	adc.w	r0, r0, r3, lsl #2
 8000b4c:	bf08      	it	eq
 8000b4e:	f020 0001 	biceq.w	r0, r0, #1
 8000b52:	4770      	bx	lr
 8000b54:	f011 4f80 	tst.w	r1, #1073741824	; 0x40000000
 8000b58:	d121      	bne.n	8000b9e <__aeabi_d2f+0x7a>
 8000b5a:	f113 7238 	adds.w	r2, r3, #48234496	; 0x2e00000
 8000b5e:	bfbc      	itt	lt
 8000b60:	f001 4000 	andlt.w	r0, r1, #2147483648	; 0x80000000
 8000b64:	4770      	bxlt	lr
 8000b66:	f441 1180 	orr.w	r1, r1, #1048576	; 0x100000
 8000b6a:	ea4f 5252 	mov.w	r2, r2, lsr #21
 8000b6e:	f1c2 0218 	rsb	r2, r2, #24
 8000b72:	f1c2 0c20 	rsb	ip, r2, #32
 8000b76:	fa10 f30c 	lsls.w	r3, r0, ip
 8000b7a:	fa20 f002 	lsr.w	r0, r0, r2
 8000b7e:	bf18      	it	ne
 8000b80:	f040 0001 	orrne.w	r0, r0, #1
 8000b84:	ea4f 23c1 	mov.w	r3, r1, lsl #11
 8000b88:	ea4f 23d3 	mov.w	r3, r3, lsr #11
 8000b8c:	fa03 fc0c 	lsl.w	ip, r3, ip
 8000b90:	ea40 000c 	orr.w	r0, r0, ip
 8000b94:	fa23 f302 	lsr.w	r3, r3, r2
 8000b98:	ea4f 0343 	mov.w	r3, r3, lsl #1
 8000b9c:	e7cc      	b.n	8000b38 <__aeabi_d2f+0x14>
 8000b9e:	ea7f 5362 	mvns.w	r3, r2, asr #21
 8000ba2:	d107      	bne.n	8000bb4 <__aeabi_d2f+0x90>
 8000ba4:	ea50 3301 	orrs.w	r3, r0, r1, lsl #12
 8000ba8:	bf1e      	ittt	ne
 8000baa:	f04f 40fe 	movne.w	r0, #2130706432	; 0x7f000000
 8000bae:	f440 0040 	orrne.w	r0, r0, #12582912	; 0xc00000
 8000bb2:	4770      	bxne	lr
 8000bb4:	f001 4000 	and.w	r0, r1, #2147483648	; 0x80000000
 8000bb8:	f040 40fe 	orr.w	r0, r0, #2130706432	; 0x7f000000
 8000bbc:	f440 0000 	orr.w	r0, r0, #8388608	; 0x800000
 8000bc0:	4770      	bx	lr
 8000bc2:	bf00      	nop

08000bc4 <__aeabi_frsub>:
 8000bc4:	f080 4000 	eor.w	r0, r0, #2147483648	; 0x80000000
 8000bc8:	e002      	b.n	8000bd0 <__addsf3>
 8000bca:	bf00      	nop

08000bcc <__aeabi_fsub>:
 8000bcc:	f081 4100 	eor.w	r1, r1, #2147483648	; 0x80000000

08000bd0 <__addsf3>:
 8000bd0:	0042      	lsls	r2, r0, #1
 8000bd2:	bf1f      	itttt	ne
 8000bd4:	ea5f 0341 	movsne.w	r3, r1, lsl #1
 8000bd8:	ea92 0f03 	teqne	r2, r3
 8000bdc:	ea7f 6c22 	mvnsne.w	ip, r2, asr #24
 8000be0:	ea7f 6c23 	mvnsne.w	ip, r3, asr #24
 8000be4:	d06a      	beq.n	8000cbc <__addsf3+0xec>
 8000be6:	ea4f 6212 	mov.w	r2, r2, lsr #24
 8000bea:	ebd2 6313 	rsbs	r3, r2, r3, lsr #24
 8000bee:	bfc1      	itttt	gt
 8000bf0:	18d2      	addgt	r2, r2, r3
 8000bf2:	4041      	eorgt	r1, r0
 8000bf4:	4048      	eorgt	r0, r1
 8000bf6:	4041      	eorgt	r1, r0
 8000bf8:	bfb8      	it	lt
 8000bfa:	425b      	neglt	r3, r3
 8000bfc:	2b19      	cmp	r3, #25
 8000bfe:	bf88      	it	hi
 8000c00:	4770      	bxhi	lr
 8000c02:	f010 4f00 	tst.w	r0, #2147483648	; 0x80000000
 8000c06:	f440 0000 	orr.w	r0, r0, #8388608	; 0x800000
 8000c0a:	f020 407f 	bic.w	r0, r0, #4278190080	; 0xff000000
 8000c0e:	bf18      	it	ne
 8000c10:	4240      	negne	r0, r0
 8000c12:	f011 4f00 	tst.w	r1, #2147483648	; 0x80000000
 8000c16:	f441 0100 	orr.w	r1, r1, #8388608	; 0x800000
 8000c1a:	f021 417f 	bic.w	r1, r1, #4278190080	; 0xff000000
 8000c1e:	bf18      	it	ne
 8000c20:	4249      	negne	r1, r1
 8000c22:	ea92 0f03 	teq	r2, r3
 8000c26:	d03f      	beq.n	8000ca8 <__addsf3+0xd8>
 8000c28:	f1a2 0201 	sub.w	r2, r2, #1
 8000c2c:	fa41 fc03 	asr.w	ip, r1, r3
 8000c30:	eb10 000c 	adds.w	r0, r0, ip
 8000c34:	f1c3 0320 	rsb	r3, r3, #32
 8000c38:	fa01 f103 	lsl.w	r1, r1, r3
 8000c3c:	f000 4300 	and.w	r3, r0, #2147483648	; 0x80000000
 8000c40:	d502      	bpl.n	8000c48 <__addsf3+0x78>
 8000c42:	4249      	negs	r1, r1
 8000c44:	eb60 0040 	sbc.w	r0, r0, r0, lsl #1
 8000c48:	f5b0 0f00 	cmp.w	r0, #8388608	; 0x800000
 8000c4c:	d313      	bcc.n	8000c76 <__addsf3+0xa6>
 8000c4e:	f1b0 7f80 	cmp.w	r0, #16777216	; 0x1000000
 8000c52:	d306      	bcc.n	8000c62 <__addsf3+0x92>
 8000c54:	0840      	lsrs	r0, r0, #1
 8000c56:	ea4f 0131 	mov.w	r1, r1, rrx
 8000c5a:	f102 0201 	add.w	r2, r2, #1
 8000c5e:	2afe      	cmp	r2, #254	; 0xfe
 8000c60:	d251      	bcs.n	8000d06 <__addsf3+0x136>
 8000c62:	f1b1 4f00 	cmp.w	r1, #2147483648	; 0x80000000
 8000c66:	eb40 50c2 	adc.w	r0, r0, r2, lsl #23
 8000c6a:	bf08      	it	eq
 8000c6c:	f020 0001 	biceq.w	r0, r0, #1
 8000c70:	ea40 0003 	orr.w	r0, r0, r3
 8000c74:	4770      	bx	lr
 8000c76:	0049      	lsls	r1, r1, #1
 8000c78:	eb40 0000 	adc.w	r0, r0, r0
 8000c7c:	3a01      	subs	r2, #1
 8000c7e:	bf28      	it	cs
 8000c80:	f5b0 0f00 	cmpcs.w	r0, #8388608	; 0x800000
 8000c84:	d2ed      	bcs.n	8000c62 <__addsf3+0x92>
 8000c86:	fab0 fc80 	clz	ip, r0
 8000c8a:	f1ac 0c08 	sub.w	ip, ip, #8
 8000c8e:	ebb2 020c 	subs.w	r2, r2, ip
 8000c92:	fa00 f00c 	lsl.w	r0, r0, ip
 8000c96:	bfaa      	itet	ge
 8000c98:	eb00 50c2 	addge.w	r0, r0, r2, lsl #23
 8000c9c:	4252      	neglt	r2, r2
 8000c9e:	4318      	orrge	r0, r3
 8000ca0:	bfbc      	itt	lt
 8000ca2:	40d0      	lsrlt	r0, r2
 8000ca4:	4318      	orrlt	r0, r3
 8000ca6:	4770      	bx	lr
 8000ca8:	f092 0f00 	teq	r2, #0
 8000cac:	f481 0100 	eor.w	r1, r1, #8388608	; 0x800000
 8000cb0:	bf06      	itte	eq
 8000cb2:	f480 0000 	eoreq.w	r0, r0, #8388608	; 0x800000
 8000cb6:	3201      	addeq	r2, #1
 8000cb8:	3b01      	subne	r3, #1
 8000cba:	e7b5      	b.n	8000c28 <__addsf3+0x58>
 8000cbc:	ea4f 0341 	mov.w	r3, r1, lsl #1
 8000cc0:	ea7f 6c22 	mvns.w	ip, r2, asr #24
 8000cc4:	bf18      	it	ne
 8000cc6:	ea7f 6c23 	mvnsne.w	ip, r3, asr #24
 8000cca:	d021      	beq.n	8000d10 <__addsf3+0x140>
 8000ccc:	ea92 0f03 	teq	r2, r3
 8000cd0:	d004      	beq.n	8000cdc <__addsf3+0x10c>
 8000cd2:	f092 0f00 	teq	r2, #0
 8000cd6:	bf08      	it	eq
 8000cd8:	4608      	moveq	r0, r1
 8000cda:	4770      	bx	lr
 8000cdc:	ea90 0f01 	teq	r0, r1
 8000ce0:	bf1c      	itt	ne
 8000ce2:	2000      	movne	r0, #0
 8000ce4:	4770      	bxne	lr
 8000ce6:	f012 4f7f 	tst.w	r2, #4278190080	; 0xff000000
 8000cea:	d104      	bne.n	8000cf6 <__addsf3+0x126>
 8000cec:	0040      	lsls	r0, r0, #1
 8000cee:	bf28      	it	cs
 8000cf0:	f040 4000 	orrcs.w	r0, r0, #2147483648	; 0x80000000
 8000cf4:	4770      	bx	lr
 8000cf6:	f112 7200 	adds.w	r2, r2, #33554432	; 0x2000000
 8000cfa:	bf3c      	itt	cc
 8000cfc:	f500 0000 	addcc.w	r0, r0, #8388608	; 0x800000
 8000d00:	4770      	bxcc	lr
 8000d02:	f000 4300 	and.w	r3, r0, #2147483648	; 0x80000000
 8000d06:	f043 40fe 	orr.w	r0, r3, #2130706432	; 0x7f000000
 8000d0a:	f440 0000 	orr.w	r0, r0, #8388608	; 0x800000
 8000d0e:	4770      	bx	lr
 8000d10:	ea7f 6222 	mvns.w	r2, r2, asr #24
 8000d14:	bf16      	itet	ne
 8000d16:	4608      	movne	r0, r1
 8000d18:	ea7f 6323 	mvnseq.w	r3, r3, asr #24
 8000d1c:	4601      	movne	r1, r0
 8000d1e:	0242      	lsls	r2, r0, #9
 8000d20:	bf06      	itte	eq
 8000d22:	ea5f 2341 	movseq.w	r3, r1, lsl #9
 8000d26:	ea90 0f01 	teqeq	r0, r1
 8000d2a:	f440 0080 	orrne.w	r0, r0, #4194304	; 0x400000
 8000d2e:	4770      	bx	lr

08000d30 <__aeabi_ui2f>:
 8000d30:	f04f 0300 	mov.w	r3, #0
 8000d34:	e004      	b.n	8000d40 <__aeabi_i2f+0x8>
 8000d36:	bf00      	nop

08000d38 <__aeabi_i2f>:
 8000d38:	f010 4300 	ands.w	r3, r0, #2147483648	; 0x80000000
 8000d3c:	bf48      	it	mi
 8000d3e:	4240      	negmi	r0, r0
 8000d40:	ea5f 0c00 	movs.w	ip, r0
 8000d44:	bf08      	it	eq
 8000d46:	4770      	bxeq	lr
 8000d48:	f043 4396 	orr.w	r3, r3, #1258291200	; 0x4b000000
 8000d4c:	4601      	mov	r1, r0
 8000d4e:	f04f 0000 	mov.w	r0, #0
 8000d52:	e01c      	b.n	8000d8e <__aeabi_l2f+0x2a>

08000d54 <__aeabi_ul2f>:
 8000d54:	ea50 0201 	orrs.w	r2, r0, r1
 8000d58:	bf08      	it	eq
 8000d5a:	4770      	bxeq	lr
 8000d5c:	f04f 0300 	mov.w	r3, #0
 8000d60:	e00a      	b.n	8000d78 <__aeabi_l2f+0x14>
 8000d62:	bf00      	nop

08000d64 <__aeabi_l2f>:
 8000d64:	ea50 0201 	orrs.w	r2, r0, r1
 8000d68:	bf08      	it	eq
 8000d6a:	4770      	bxeq	lr
 8000d6c:	f011 4300 	ands.w	r3, r1, #2147483648	; 0x80000000
 8000d70:	d502      	bpl.n	8000d78 <__aeabi_l2f+0x14>
 8000d72:	4240      	negs	r0, r0
 8000d74:	eb61 0141 	sbc.w	r1, r1, r1, lsl #1
 8000d78:	ea5f 0c01 	movs.w	ip, r1
 8000d7c:	bf02      	ittt	eq
 8000d7e:	4684      	moveq	ip, r0
 8000d80:	4601      	moveq	r1, r0
 8000d82:	2000      	moveq	r0, #0
 8000d84:	f043 43b6 	orr.w	r3, r3, #1526726656	; 0x5b000000
 8000d88:	bf08      	it	eq
 8000d8a:	f1a3 5380 	subeq.w	r3, r3, #268435456	; 0x10000000
 8000d8e:	f5a3 0300 	sub.w	r3, r3, #8388608	; 0x800000
 8000d92:	fabc f28c 	clz	r2, ip
 8000d96:	3a08      	subs	r2, #8
 8000d98:	eba3 53c2 	sub.w	r3, r3, r2, lsl #23
 8000d9c:	db10      	blt.n	8000dc0 <__aeabi_l2f+0x5c>
 8000d9e:	fa01 fc02 	lsl.w	ip, r1, r2
 8000da2:	4463      	add	r3, ip
 8000da4:	fa00 fc02 	lsl.w	ip, r0, r2
 8000da8:	f1c2 0220 	rsb	r2, r2, #32
 8000dac:	f1bc 4f00 	cmp.w	ip, #2147483648	; 0x80000000
 8000db0:	fa20 f202 	lsr.w	r2, r0, r2
 8000db4:	eb43 0002 	adc.w	r0, r3, r2
 8000db8:	bf08      	it	eq
 8000dba:	f020 0001 	biceq.w	r0, r0, #1
 8000dbe:	4770      	bx	lr
 8000dc0:	f102 0220 	add.w	r2, r2, #32
 8000dc4:	fa01 fc02 	lsl.w	ip, r1, r2
 8000dc8:	f1c2 0220 	rsb	r2, r2, #32
 8000dcc:	ea50 004c 	orrs.w	r0, r0, ip, lsl #1
 8000dd0:	fa21 f202 	lsr.w	r2, r1, r2
 8000dd4:	eb43 0002 	adc.w	r0, r3, r2
 8000dd8:	bf08      	it	eq
 8000dda:	ea20 70dc 	biceq.w	r0, r0, ip, lsr #31
 8000dde:	4770      	bx	lr

08000de0 <__aeabi_fmul>:
 8000de0:	f04f 0cff 	mov.w	ip, #255	; 0xff
 8000de4:	ea1c 52d0 	ands.w	r2, ip, r0, lsr #23
 8000de8:	bf1e      	ittt	ne
 8000dea:	ea1c 53d1 	andsne.w	r3, ip, r1, lsr #23
 8000dee:	ea92 0f0c 	teqne	r2, ip
 8000df2:	ea93 0f0c 	teqne	r3, ip
 8000df6:	d06f      	beq.n	8000ed8 <__aeabi_fmul+0xf8>
 8000df8:	441a      	add	r2, r3
 8000dfa:	ea80 0c01 	eor.w	ip, r0, r1
 8000dfe:	0240      	lsls	r0, r0, #9
 8000e00:	bf18      	it	ne
 8000e02:	ea5f 2141 	movsne.w	r1, r1, lsl #9
 8000e06:	d01e      	beq.n	8000e46 <__aeabi_fmul+0x66>
 8000e08:	f04f 6300 	mov.w	r3, #134217728	; 0x8000000
 8000e0c:	ea43 1050 	orr.w	r0, r3, r0, lsr #5
 8000e10:	ea43 1151 	orr.w	r1, r3, r1, lsr #5
 8000e14:	fba0 3101 	umull	r3, r1, r0, r1
 8000e18:	f00c 4000 	and.w	r0, ip, #2147483648	; 0x80000000
 8000e1c:	f5b1 0f00 	cmp.w	r1, #8388608	; 0x800000
 8000e20:	bf3e      	ittt	cc
 8000e22:	0049      	lslcc	r1, r1, #1
 8000e24:	ea41 71d3 	orrcc.w	r1, r1, r3, lsr #31
 8000e28:	005b      	lslcc	r3, r3, #1
 8000e2a:	ea40 0001 	orr.w	r0, r0, r1
 8000e2e:	f162 027f 	sbc.w	r2, r2, #127	; 0x7f
 8000e32:	2afd      	cmp	r2, #253	; 0xfd
 8000e34:	d81d      	bhi.n	8000e72 <__aeabi_fmul+0x92>
 8000e36:	f1b3 4f00 	cmp.w	r3, #2147483648	; 0x80000000
 8000e3a:	eb40 50c2 	adc.w	r0, r0, r2, lsl #23
 8000e3e:	bf08      	it	eq
 8000e40:	f020 0001 	biceq.w	r0, r0, #1
 8000e44:	4770      	bx	lr
 8000e46:	f090 0f00 	teq	r0, #0
 8000e4a:	f00c 4c00 	and.w	ip, ip, #2147483648	; 0x80000000
 8000e4e:	bf08      	it	eq
 8000e50:	0249      	lsleq	r1, r1, #9
 8000e52:	ea4c 2050 	orr.w	r0, ip, r0, lsr #9
 8000e56:	ea40 2051 	orr.w	r0, r0, r1, lsr #9
 8000e5a:	3a7f      	subs	r2, #127	; 0x7f
 8000e5c:	bfc2      	ittt	gt
 8000e5e:	f1d2 03ff 	rsbsgt	r3, r2, #255	; 0xff
 8000e62:	ea40 50c2 	orrgt.w	r0, r0, r2, lsl #23
 8000e66:	4770      	bxgt	lr
 8000e68:	f440 0000 	orr.w	r0, r0, #8388608	; 0x800000
 8000e6c:	f04f 0300 	mov.w	r3, #0
 8000e70:	3a01      	subs	r2, #1
 8000e72:	dc5d      	bgt.n	8000f30 <__aeabi_fmul+0x150>
 8000e74:	f112 0f19 	cmn.w	r2, #25
 8000e78:	bfdc      	itt	le
 8000e7a:	f000 4000 	andle.w	r0, r0, #2147483648	; 0x80000000
 8000e7e:	4770      	bxle	lr
 8000e80:	f1c2 0200 	rsb	r2, r2, #0
 8000e84:	0041      	lsls	r1, r0, #1
 8000e86:	fa21 f102 	lsr.w	r1, r1, r2
 8000e8a:	f1c2 0220 	rsb	r2, r2, #32
 8000e8e:	fa00 fc02 	lsl.w	ip, r0, r2
 8000e92:	ea5f 0031 	movs.w	r0, r1, rrx
 8000e96:	f140 0000 	adc.w	r0, r0, #0
 8000e9a:	ea53 034c 	orrs.w	r3, r3, ip, lsl #1
 8000e9e:	bf08      	it	eq
 8000ea0:	ea20 70dc 	biceq.w	r0, r0, ip, lsr #31
 8000ea4:	4770      	bx	lr
 8000ea6:	f092 0f00 	teq	r2, #0
 8000eaa:	f000 4c00 	and.w	ip, r0, #2147483648	; 0x80000000
 8000eae:	bf02      	ittt	eq
 8000eb0:	0040      	lsleq	r0, r0, #1
 8000eb2:	f410 0f00 	tsteq.w	r0, #8388608	; 0x800000
 8000eb6:	3a01      	subeq	r2, #1
 8000eb8:	d0f9      	beq.n	8000eae <__aeabi_fmul+0xce>
 8000eba:	ea40 000c 	orr.w	r0, r0, ip
 8000ebe:	f093 0f00 	teq	r3, #0
 8000ec2:	f001 4c00 	and.w	ip, r1, #2147483648	; 0x80000000
 8000ec6:	bf02      	ittt	eq
 8000ec8:	0049      	lsleq	r1, r1, #1
 8000eca:	f411 0f00 	tsteq.w	r1, #8388608	; 0x800000
 8000ece:	3b01      	subeq	r3, #1
 8000ed0:	d0f9      	beq.n	8000ec6 <__aeabi_fmul+0xe6>
 8000ed2:	ea41 010c 	orr.w	r1, r1, ip
 8000ed6:	e78f      	b.n	8000df8 <__aeabi_fmul+0x18>
 8000ed8:	ea0c 53d1 	and.w	r3, ip, r1, lsr #23
 8000edc:	ea92 0f0c 	teq	r2, ip
 8000ee0:	bf18      	it	ne
 8000ee2:	ea93 0f0c 	teqne	r3, ip
 8000ee6:	d00a      	beq.n	8000efe <__aeabi_fmul+0x11e>
 8000ee8:	f030 4c00 	bics.w	ip, r0, #2147483648	; 0x80000000
 8000eec:	bf18      	it	ne
 8000eee:	f031 4c00 	bicsne.w	ip, r1, #2147483648	; 0x80000000
 8000ef2:	d1d8      	bne.n	8000ea6 <__aeabi_fmul+0xc6>
 8000ef4:	ea80 0001 	eor.w	r0, r0, r1
 8000ef8:	f000 4000 	and.w	r0, r0, #2147483648	; 0x80000000
 8000efc:	4770      	bx	lr
 8000efe:	f090 0f00 	teq	r0, #0
 8000f02:	bf17      	itett	ne
 8000f04:	f090 4f00 	teqne	r0, #2147483648	; 0x80000000
 8000f08:	4608      	moveq	r0, r1
 8000f0a:	f091 0f00 	teqne	r1, #0
 8000f0e:	f091 4f00 	teqne	r1, #2147483648	; 0x80000000
 8000f12:	d014      	beq.n	8000f3e <__aeabi_fmul+0x15e>
 8000f14:	ea92 0f0c 	teq	r2, ip
 8000f18:	d101      	bne.n	8000f1e <__aeabi_fmul+0x13e>
 8000f1a:	0242      	lsls	r2, r0, #9
 8000f1c:	d10f      	bne.n	8000f3e <__aeabi_fmul+0x15e>
 8000f1e:	ea93 0f0c 	teq	r3, ip
 8000f22:	d103      	bne.n	8000f2c <__aeabi_fmul+0x14c>
 8000f24:	024b      	lsls	r3, r1, #9
 8000f26:	bf18      	it	ne
 8000f28:	4608      	movne	r0, r1
 8000f2a:	d108      	bne.n	8000f3e <__aeabi_fmul+0x15e>
 8000f2c:	ea80 0001 	eor.w	r0, r0, r1
 8000f30:	f000 4000 	and.w	r0, r0, #2147483648	; 0x80000000
 8000f34:	f040 40fe 	orr.w	r0, r0, #2130706432	; 0x7f000000
 8000f38:	f440 0000 	orr.w	r0, r0, #8388608	; 0x800000
 8000f3c:	4770      	bx	lr
 8000f3e:	f040 40fe 	orr.w	r0, r0, #2130706432	; 0x7f000000
 8000f42:	f440 0040 	orr.w	r0, r0, #12582912	; 0xc00000
 8000f46:	4770      	bx	lr

08000f48 <__aeabi_fdiv>:
 8000f48:	f04f 0cff 	mov.w	ip, #255	; 0xff
 8000f4c:	ea1c 52d0 	ands.w	r2, ip, r0, lsr #23
 8000f50:	bf1e      	ittt	ne
 8000f52:	ea1c 53d1 	andsne.w	r3, ip, r1, lsr #23
 8000f56:	ea92 0f0c 	teqne	r2, ip
 8000f5a:	ea93 0f0c 	teqne	r3, ip
 8000f5e:	d069      	beq.n	8001034 <__aeabi_fdiv+0xec>
 8000f60:	eba2 0203 	sub.w	r2, r2, r3
 8000f64:	ea80 0c01 	eor.w	ip, r0, r1
 8000f68:	0249      	lsls	r1, r1, #9
 8000f6a:	ea4f 2040 	mov.w	r0, r0, lsl #9
 8000f6e:	d037      	beq.n	8000fe0 <__aeabi_fdiv+0x98>
 8000f70:	f04f 5380 	mov.w	r3, #268435456	; 0x10000000
 8000f74:	ea43 1111 	orr.w	r1, r3, r1, lsr #4
 8000f78:	ea43 1310 	orr.w	r3, r3, r0, lsr #4
 8000f7c:	f00c 4000 	and.w	r0, ip, #2147483648	; 0x80000000
 8000f80:	428b      	cmp	r3, r1
 8000f82:	bf38      	it	cc
 8000f84:	005b      	lslcc	r3, r3, #1
 8000f86:	f142 027d 	adc.w	r2, r2, #125	; 0x7d
 8000f8a:	f44f 0c00 	mov.w	ip, #8388608	; 0x800000
 8000f8e:	428b      	cmp	r3, r1
 8000f90:	bf24      	itt	cs
 8000f92:	1a5b      	subcs	r3, r3, r1
 8000f94:	ea40 000c 	orrcs.w	r0, r0, ip
 8000f98:	ebb3 0f51 	cmp.w	r3, r1, lsr #1
 8000f9c:	bf24      	itt	cs
 8000f9e:	eba3 0351 	subcs.w	r3, r3, r1, lsr #1
 8000fa2:	ea40 005c 	orrcs.w	r0, r0, ip, lsr #1
 8000fa6:	ebb3 0f91 	cmp.w	r3, r1, lsr #2
 8000faa:	bf24      	itt	cs
 8000fac:	eba3 0391 	subcs.w	r3, r3, r1, lsr #2
 8000fb0:	ea40 009c 	orrcs.w	r0, r0, ip, lsr #2
 8000fb4:	ebb3 0fd1 	cmp.w	r3, r1, lsr #3
 8000fb8:	bf24      	itt	cs
 8000fba:	eba3 03d1 	subcs.w	r3, r3, r1, lsr #3
 8000fbe:	ea40 00dc 	orrcs.w	r0, r0, ip, lsr #3
 8000fc2:	011b      	lsls	r3, r3, #4
 8000fc4:	bf18      	it	ne
 8000fc6:	ea5f 1c1c 	movsne.w	ip, ip, lsr #4
 8000fca:	d1e0      	bne.n	8000f8e <__aeabi_fdiv+0x46>
 8000fcc:	2afd      	cmp	r2, #253	; 0xfd
 8000fce:	f63f af50 	bhi.w	8000e72 <__aeabi_fmul+0x92>
 8000fd2:	428b      	cmp	r3, r1
 8000fd4:	eb40 50c2 	adc.w	r0, r0, r2, lsl #23
 8000fd8:	bf08      	it	eq
 8000fda:	f020 0001 	biceq.w	r0, r0, #1
 8000fde:	4770      	bx	lr
 8000fe0:	f00c 4c00 	and.w	ip, ip, #2147483648	; 0x80000000
 8000fe4:	ea4c 2050 	orr.w	r0, ip, r0, lsr #9
 8000fe8:	327f      	adds	r2, #127	; 0x7f
 8000fea:	bfc2      	ittt	gt
 8000fec:	f1d2 03ff 	rsbsgt	r3, r2, #255	; 0xff
 8000ff0:	ea40 50c2 	orrgt.w	r0, r0, r2, lsl #23
 8000ff4:	4770      	bxgt	lr
 8000ff6:	f440 0000 	orr.w	r0, r0, #8388608	; 0x800000
 8000ffa:	f04f 0300 	mov.w	r3, #0
 8000ffe:	3a01      	subs	r2, #1
 8001000:	e737      	b.n	8000e72 <__aeabi_fmul+0x92>
 8001002:	f092 0f00 	teq	r2, #0
 8001006:	f000 4c00 	and.w	ip, r0, #2147483648	; 0x80000000
 800100a:	bf02      	ittt	eq
 800100c:	0040      	lsleq	r0, r0, #1
 800100e:	f410 0f00 	tsteq.w	r0, #8388608	; 0x800000
 8001012:	3a01      	subeq	r2, #1
 8001014:	d0f9      	beq.n	800100a <__aeabi_fdiv+0xc2>
 8001016:	ea40 000c 	orr.w	r0, r0, ip
 800101a:	f093 0f00 	teq	r3, #0
 800101e:	f001 4c00 	and.w	ip, r1, #2147483648	; 0x80000000
 8001022:	bf02      	ittt	eq
 8001024:	0049      	lsleq	r1, r1, #1
 8001026:	f411 0f00 	tsteq.w	r1, #8388608	; 0x800000
 800102a:	3b01      	subeq	r3, #1
 800102c:	d0f9      	beq.n	8001022 <__aeabi_fdiv+0xda>
 800102e:	ea41 010c 	orr.w	r1, r1, ip
 8001032:	e795      	b.n	8000f60 <__aeabi_fdiv+0x18>
 8001034:	ea0c 53d1 	and.w	r3, ip, r1, lsr #23
 8001038:	ea92 0f0c 	teq	r2, ip
 800103c:	d108      	bne.n	8001050 <__aeabi_fdiv+0x108>
 800103e:	0242      	lsls	r2, r0, #9
 8001040:	f47f af7d 	bne.w	8000f3e <__aeabi_fmul+0x15e>
 8001044:	ea93 0f0c 	teq	r3, ip
 8001048:	f47f af70 	bne.w	8000f2c <__aeabi_fmul+0x14c>
 800104c:	4608      	mov	r0, r1
 800104e:	e776      	b.n	8000f3e <__aeabi_fmul+0x15e>
 8001050:	ea93 0f0c 	teq	r3, ip
 8001054:	d104      	bne.n	8001060 <__aeabi_fdiv+0x118>
 8001056:	024b      	lsls	r3, r1, #9
 8001058:	f43f af4c 	beq.w	8000ef4 <__aeabi_fmul+0x114>
 800105c:	4608      	mov	r0, r1
 800105e:	e76e      	b.n	8000f3e <__aeabi_fmul+0x15e>
 8001060:	f030 4c00 	bics.w	ip, r0, #2147483648	; 0x80000000
 8001064:	bf18      	it	ne
 8001066:	f031 4c00 	bicsne.w	ip, r1, #2147483648	; 0x80000000
 800106a:	d1ca      	bne.n	8001002 <__aeabi_fdiv+0xba>
 800106c:	f030 4200 	bics.w	r2, r0, #2147483648	; 0x80000000
 8001070:	f47f af5c 	bne.w	8000f2c <__aeabi_fmul+0x14c>
 8001074:	f031 4300 	bics.w	r3, r1, #2147483648	; 0x80000000
 8001078:	f47f af3c 	bne.w	8000ef4 <__aeabi_fmul+0x114>
 800107c:	e75f      	b.n	8000f3e <__aeabi_fmul+0x15e>
 800107e:	bf00      	nop

08001080 <__aeabi_f2iz>:
 8001080:	ea4f 0240 	mov.w	r2, r0, lsl #1
 8001084:	f1b2 4ffe 	cmp.w	r2, #2130706432	; 0x7f000000
 8001088:	d30f      	bcc.n	80010aa <__aeabi_f2iz+0x2a>
 800108a:	f04f 039e 	mov.w	r3, #158	; 0x9e
 800108e:	ebb3 6212 	subs.w	r2, r3, r2, lsr #24
 8001092:	d90d      	bls.n	80010b0 <__aeabi_f2iz+0x30>
 8001094:	ea4f 2300 	mov.w	r3, r0, lsl #8
 8001098:	f043 4300 	orr.w	r3, r3, #2147483648	; 0x80000000
 800109c:	f010 4f00 	tst.w	r0, #2147483648	; 0x80000000
 80010a0:	fa23 f002 	lsr.w	r0, r3, r2
 80010a4:	bf18      	it	ne
 80010a6:	4240      	negne	r0, r0
 80010a8:	4770      	bx	lr
 80010aa:	f04f 0000 	mov.w	r0, #0
 80010ae:	4770      	bx	lr
 80010b0:	f112 0f61 	cmn.w	r2, #97	; 0x61
 80010b4:	d101      	bne.n	80010ba <__aeabi_f2iz+0x3a>
 80010b6:	0242      	lsls	r2, r0, #9
 80010b8:	d105      	bne.n	80010c6 <__aeabi_f2iz+0x46>
 80010ba:	f010 4000 	ands.w	r0, r0, #2147483648	; 0x80000000
 80010be:	bf08      	it	eq
 80010c0:	f06f 4000 	mvneq.w	r0, #2147483648	; 0x80000000
 80010c4:	4770      	bx	lr
 80010c6:	f04f 0000 	mov.w	r0, #0
 80010ca:	4770      	bx	lr

080010cc <__aeabi_f2uiz>:
 80010cc:	0042      	lsls	r2, r0, #1
 80010ce:	d20e      	bcs.n	80010ee <__aeabi_f2uiz+0x22>
 80010d0:	f1b2 4ffe 	cmp.w	r2, #2130706432	; 0x7f000000
 80010d4:	d30b      	bcc.n	80010ee <__aeabi_f2uiz+0x22>
 80010d6:	f04f 039e 	mov.w	r3, #158	; 0x9e
 80010da:	ebb3 6212 	subs.w	r2, r3, r2, lsr #24
 80010de:	d409      	bmi.n	80010f4 <__aeabi_f2uiz+0x28>
 80010e0:	ea4f 2300 	mov.w	r3, r0, lsl #8
 80010e4:	f043 4300 	orr.w	r3, r3, #2147483648	; 0x80000000
 80010e8:	fa23 f002 	lsr.w	r0, r3, r2
 80010ec:	4770      	bx	lr
 80010ee:	f04f 0000 	mov.w	r0, #0
 80010f2:	4770      	bx	lr
 80010f4:	f112 0f61 	cmn.w	r2, #97	; 0x61
 80010f8:	d101      	bne.n	80010fe <__aeabi_f2uiz+0x32>
 80010fa:	0242      	lsls	r2, r0, #9
 80010fc:	d102      	bne.n	8001104 <__aeabi_f2uiz+0x38>
 80010fe:	f04f 30ff 	mov.w	r0, #4294967295
 8001102:	4770      	bx	lr
 8001104:	f04f 0000 	mov.w	r0, #0
 8001108:	4770      	bx	lr
 800110a:	bf00      	nop

0800110c <__aeabi_d2lz>:
 800110c:	b538      	push	{r3, r4, r5, lr}
 800110e:	460c      	mov	r4, r1
 8001110:	4605      	mov	r5, r0
 8001112:	4621      	mov	r1, r4
 8001114:	4628      	mov	r0, r5
 8001116:	2200      	movs	r2, #0
 8001118:	2300      	movs	r3, #0
 800111a:	f7ff fcbb 	bl	8000a94 <__aeabi_dcmplt>
 800111e:	b928      	cbnz	r0, 800112c <__aeabi_d2lz+0x20>
 8001120:	4628      	mov	r0, r5
 8001122:	4621      	mov	r1, r4
 8001124:	e8bd 4038 	ldmia.w	sp!, {r3, r4, r5, lr}
 8001128:	f000 b80a 	b.w	8001140 <__aeabi_d2ulz>
 800112c:	4628      	mov	r0, r5
 800112e:	f104 4100 	add.w	r1, r4, #2147483648	; 0x80000000
 8001132:	f000 f805 	bl	8001140 <__aeabi_d2ulz>
 8001136:	4240      	negs	r0, r0
 8001138:	eb61 0141 	sbc.w	r1, r1, r1, lsl #1
 800113c:	bd38      	pop	{r3, r4, r5, pc}
 800113e:	bf00      	nop

08001140 <__aeabi_d2ulz>:
 8001140:	b5d0      	push	{r4, r6, r7, lr}
 8001142:	2200      	movs	r2, #0
 8001144:	4b0b      	ldr	r3, [pc, #44]	; (8001174 <__aeabi_d2ulz+0x34>)
 8001146:	4606      	mov	r6, r0
 8001148:	460f      	mov	r7, r1
 800114a:	f7ff fa31 	bl	80005b0 <__aeabi_dmul>
 800114e:	f7ff fcc9 	bl	8000ae4 <__aeabi_d2uiz>
 8001152:	4604      	mov	r4, r0
 8001154:	f7ff f9b2 	bl	80004bc <__aeabi_ui2d>
 8001158:	2200      	movs	r2, #0
 800115a:	4b07      	ldr	r3, [pc, #28]	; (8001178 <__aeabi_d2ulz+0x38>)
 800115c:	f7ff fa28 	bl	80005b0 <__aeabi_dmul>
 8001160:	4602      	mov	r2, r0
 8001162:	460b      	mov	r3, r1
 8001164:	4630      	mov	r0, r6
 8001166:	4639      	mov	r1, r7
 8001168:	f7ff f86a 	bl	8000240 <__aeabi_dsub>
 800116c:	f7ff fcba 	bl	8000ae4 <__aeabi_d2uiz>
 8001170:	4621      	mov	r1, r4
 8001172:	bdd0      	pop	{r4, r6, r7, pc}
 8001174:	3df00000 	.word	0x3df00000
 8001178:	41f00000 	.word	0x41f00000

0800117c <SystemClock_Config>:
 800117c:	b500      	push	{lr}
 800117e:	b097      	sub	sp, #92	; 0x5c
 8001180:	2224      	movs	r2, #36	; 0x24
 8001182:	2100      	movs	r1, #0
 8001184:	a80d      	add	r0, sp, #52	; 0x34
 8001186:	f005 fc39 	bl	80069fc <memset>
 800118a:	2214      	movs	r2, #20
 800118c:	2100      	movs	r1, #0
 800118e:	a801      	add	r0, sp, #4
 8001190:	f005 fc34 	bl	80069fc <memset>
 8001194:	2218      	movs	r2, #24
 8001196:	2100      	movs	r1, #0
 8001198:	eb0d 0002 	add.w	r0, sp, r2
 800119c:	f005 fc2e 	bl	80069fc <memset>
 80011a0:	230a      	movs	r3, #10
 80011a2:	2210      	movs	r2, #16
 80011a4:	930c      	str	r3, [sp, #48]	; 0x30
 80011a6:	2301      	movs	r3, #1
 80011a8:	a80c      	add	r0, sp, #48	; 0x30
 80011aa:	e9cd 3210 	strd	r3, r2, [sp, #64]	; 0x40
 80011ae:	9312      	str	r3, [sp, #72]	; 0x48
 80011b0:	f001 fc2e 	bl	8002a10 <HAL_RCC_OscConfig>
 80011b4:	4601      	mov	r1, r0
 80011b6:	b108      	cbz	r0, 80011bc <SystemClock_Config+0x40>
 80011b8:	b672      	cpsid	i
 80011ba:	e7fe      	b.n	80011ba <SystemClock_Config+0x3e>
 80011bc:	230f      	movs	r3, #15
 80011be:	e9cd 0003 	strd	r0, r0, [sp, #12]
 80011c2:	e9cd 3001 	strd	r3, r0, [sp, #4]
 80011c6:	9005      	str	r0, [sp, #20]
 80011c8:	a801      	add	r0, sp, #4
 80011ca:	f001 fe67 	bl	8002e9c <HAL_RCC_ClockConfig>
 80011ce:	b108      	cbz	r0, 80011d4 <SystemClock_Config+0x58>
 80011d0:	b672      	cpsid	i
 80011d2:	e7fe      	b.n	80011d2 <SystemClock_Config+0x56>
 80011d4:	2203      	movs	r2, #3
 80011d6:	f44f 7300 	mov.w	r3, #512	; 0x200
 80011da:	9008      	str	r0, [sp, #32]
 80011dc:	a806      	add	r0, sp, #24
 80011de:	e9cd 2306 	strd	r2, r3, [sp, #24]
 80011e2:	f001 ff6f 	bl	80030c4 <HAL_RCCEx_PeriphCLKConfig>
 80011e6:	b108      	cbz	r0, 80011ec <SystemClock_Config+0x70>
 80011e8:	b672      	cpsid	i
 80011ea:	e7fe      	b.n	80011ea <SystemClock_Config+0x6e>
 80011ec:	b017      	add	sp, #92	; 0x5c
 80011ee:	f85d fb04 	ldr.w	pc, [sp], #4
	...

080011f4 <main>:
 80011f4:	e92d 4ff0 	stmdb	sp!, {r4, r5, r6, r7, r8, r9, sl, fp, lr}
 80011f8:	2610      	movs	r6, #16
 80011fa:	b09f      	sub	sp, #124	; 0x7c
 80011fc:	f000 ff26 	bl	800204c <HAL_Init>
 8001200:	f7ff ffbc 	bl	800117c <SystemClock_Config>
 8001204:	4632      	mov	r2, r6
 8001206:	2100      	movs	r1, #0
 8001208:	a815      	add	r0, sp, #84	; 0x54
 800120a:	f005 fbf7 	bl	80069fc <memset>
 800120e:	4bb1      	ldr	r3, [pc, #708]	; (80014d4 <main+0x2e0>)
 8001210:	f243 013a 	movw	r1, #12346	; 0x303a
 8001214:	699a      	ldr	r2, [r3, #24]
 8001216:	48b0      	ldr	r0, [pc, #704]	; (80014d8 <main+0x2e4>)
 8001218:	4332      	orrs	r2, r6
 800121a:	619a      	str	r2, [r3, #24]
 800121c:	699a      	ldr	r2, [r3, #24]
 800121e:	2501      	movs	r5, #1
 8001220:	4032      	ands	r2, r6
 8001222:	9204      	str	r2, [sp, #16]
 8001224:	9a04      	ldr	r2, [sp, #16]
 8001226:	699a      	ldr	r2, [r3, #24]
 8001228:	2400      	movs	r4, #0
 800122a:	f042 0204 	orr.w	r2, r2, #4
 800122e:	619a      	str	r2, [r3, #24]
 8001230:	699a      	ldr	r2, [r3, #24]
 8001232:	2705      	movs	r7, #5
 8001234:	f002 0204 	and.w	r2, r2, #4
 8001238:	9205      	str	r2, [sp, #20]
 800123a:	9a05      	ldr	r2, [sp, #20]
 800123c:	699a      	ldr	r2, [r3, #24]
 800123e:	f04f 0803 	mov.w	r8, #3
 8001242:	f042 0208 	orr.w	r2, r2, #8
 8001246:	619a      	str	r2, [r3, #24]
 8001248:	699a      	ldr	r2, [r3, #24]
 800124a:	f002 0208 	and.w	r2, r2, #8
 800124e:	9206      	str	r2, [sp, #24]
 8001250:	9a06      	ldr	r2, [sp, #24]
 8001252:	699a      	ldr	r2, [r3, #24]
 8001254:	f042 0220 	orr.w	r2, r2, #32
 8001258:	619a      	str	r2, [r3, #24]
 800125a:	699b      	ldr	r3, [r3, #24]
 800125c:	2200      	movs	r2, #0
 800125e:	f003 0320 	and.w	r3, r3, #32
 8001262:	9307      	str	r3, [sp, #28]
 8001264:	9b07      	ldr	r3, [sp, #28]
 8001266:	f001 fb9f 	bl	80029a8 <HAL_GPIO_WritePin>
 800126a:	2200      	movs	r2, #0
 800126c:	4631      	mov	r1, r6
 800126e:	489b      	ldr	r0, [pc, #620]	; (80014dc <main+0x2e8>)
 8001270:	f001 fb9a 	bl	80029a8 <HAL_GPIO_WritePin>
 8001274:	2200      	movs	r2, #0
 8001276:	2133      	movs	r1, #51	; 0x33
 8001278:	4899      	ldr	r0, [pc, #612]	; (80014e0 <main+0x2ec>)
 800127a:	f001 fb95 	bl	80029a8 <HAL_GPIO_WritePin>
 800127e:	2200      	movs	r2, #0
 8001280:	2104      	movs	r1, #4
 8001282:	4898      	ldr	r0, [pc, #608]	; (80014e4 <main+0x2f0>)
 8001284:	f001 fb90 	bl	80029a8 <HAL_GPIO_WritePin>
 8001288:	f44f 5300 	mov.w	r3, #8192	; 0x2000
 800128c:	e9cd 3515 	strd	r3, r5, [sp, #84]	; 0x54
 8001290:	2302      	movs	r3, #2
 8001292:	4891      	ldr	r0, [pc, #580]	; (80014d8 <main+0x2e4>)
 8001294:	a915      	add	r1, sp, #84	; 0x54
 8001296:	e9cd 4317 	strd	r4, r3, [sp, #92]	; 0x5c
 800129a:	f001 fa07 	bl	80026ac <HAL_GPIO_Init>
 800129e:	488e      	ldr	r0, [pc, #568]	; (80014d8 <main+0x2e4>)
 80012a0:	a915      	add	r1, sp, #84	; 0x54
 80012a2:	e9cd 7415 	strd	r7, r4, [sp, #84]	; 0x54
 80012a6:	9417      	str	r4, [sp, #92]	; 0x5c
 80012a8:	f001 fa00 	bl	80026ac <HAL_GPIO_Init>
 80012ac:	f241 033a 	movw	r3, #4154	; 0x103a
 80012b0:	4889      	ldr	r0, [pc, #548]	; (80014d8 <main+0x2e4>)
 80012b2:	a915      	add	r1, sp, #84	; 0x54
 80012b4:	e9cd 3515 	strd	r3, r5, [sp, #84]	; 0x54
 80012b8:	f8cd 8060 	str.w	r8, [sp, #96]	; 0x60
 80012bc:	9417      	str	r4, [sp, #92]	; 0x5c
 80012be:	f001 f9f5 	bl	80026ac <HAL_GPIO_Init>
 80012c2:	4886      	ldr	r0, [pc, #536]	; (80014dc <main+0x2e8>)
 80012c4:	a915      	add	r1, sp, #84	; 0x54
 80012c6:	e9cd 4817 	strd	r4, r8, [sp, #92]	; 0x5c
 80012ca:	e9cd 6515 	strd	r6, r5, [sp, #84]	; 0x54
 80012ce:	f001 f9ed 	bl	80026ac <HAL_GPIO_Init>
 80012d2:	2333      	movs	r3, #51	; 0x33
 80012d4:	4882      	ldr	r0, [pc, #520]	; (80014e0 <main+0x2ec>)
 80012d6:	a915      	add	r1, sp, #84	; 0x54
 80012d8:	e9cd 3515 	strd	r3, r5, [sp, #84]	; 0x54
 80012dc:	e9cd 4817 	strd	r4, r8, [sp, #92]	; 0x5c
 80012e0:	f001 f9e4 	bl	80026ac <HAL_GPIO_Init>
 80012e4:	2304      	movs	r3, #4
 80012e6:	487f      	ldr	r0, [pc, #508]	; (80014e4 <main+0x2f0>)
 80012e8:	a915      	add	r1, sp, #84	; 0x54
 80012ea:	e9cd 3515 	strd	r3, r5, [sp, #84]	; 0x54
 80012ee:	e9cd 4817 	strd	r4, r8, [sp, #92]	; 0x5c
 80012f2:	f001 f9db 	bl	80026ac <HAL_GPIO_Init>
 80012f6:	f04f 080c 	mov.w	r8, #12
 80012fa:	f44f 33e1 	mov.w	r3, #115200	; 0x1c200
 80012fe:	487a      	ldr	r0, [pc, #488]	; (80014e8 <main+0x2f4>)
 8001300:	f8df e210 	ldr.w	lr, [pc, #528]	; 8001514 <main+0x320>
 8001304:	e9c0 4402 	strd	r4, r4, [r0, #8]
 8001308:	e9c0 e300 	strd	lr, r3, [r0]
 800130c:	e9c0 8405 	strd	r8, r4, [r0, #20]
 8001310:	6104      	str	r4, [r0, #16]
 8001312:	61c4      	str	r4, [r0, #28]
 8001314:	f004 f87a 	bl	800540c <HAL_UART_Init>
 8001318:	4603      	mov	r3, r0
 800131a:	b108      	cbz	r0, 8001320 <main+0x12c>
 800131c:	b672      	cpsid	i
 800131e:	e7fe      	b.n	800131e <main+0x12a>
 8001320:	f44f 5216 	mov.w	r2, #9600	; 0x2580
 8001324:	4871      	ldr	r0, [pc, #452]	; (80014ec <main+0x2f8>)
 8001326:	f8df c1f0 	ldr.w	ip, [pc, #496]	; 8001518 <main+0x324>
 800132a:	e9c0 3302 	strd	r3, r3, [r0, #8]
 800132e:	e9c0 c200 	strd	ip, r2, [r0]
 8001332:	e9c0 3804 	strd	r3, r8, [r0, #16]
 8001336:	e9c0 3306 	strd	r3, r3, [r0, #24]
 800133a:	f004 f867 	bl	800540c <HAL_UART_Init>
 800133e:	b108      	cbz	r0, 8001344 <main+0x150>
 8001340:	b672      	cpsid	i
 8001342:	e7fe      	b.n	8001342 <main+0x14e>
 8001344:	4c6a      	ldr	r4, [pc, #424]	; (80014f0 <main+0x2fc>)
 8001346:	4b6b      	ldr	r3, [pc, #428]	; (80014f4 <main+0x300>)
 8001348:	e9cd 0015 	strd	r0, r0, [sp, #84]	; 0x54
 800134c:	6023      	str	r3, [r4, #0]
 800134e:	f44f 2360 	mov.w	r3, #917504	; 0xe0000
 8001352:	9017      	str	r0, [sp, #92]	; 0x5c
 8001354:	60a0      	str	r0, [r4, #8]
 8001356:	7320      	strb	r0, [r4, #12]
 8001358:	7520      	strb	r0, [r4, #20]
 800135a:	6060      	str	r0, [r4, #4]
 800135c:	4620      	mov	r0, r4
 800135e:	61e3      	str	r3, [r4, #28]
 8001360:	6125      	str	r5, [r4, #16]
 8001362:	f000 ff79 	bl	8002258 <HAL_ADC_Init>
 8001366:	b108      	cbz	r0, 800136c <main+0x178>
 8001368:	b672      	cpsid	i
 800136a:	e7fe      	b.n	800136a <main+0x176>
 800136c:	9017      	str	r0, [sp, #92]	; 0x5c
 800136e:	a915      	add	r1, sp, #84	; 0x54
 8001370:	4620      	mov	r0, r4
 8001372:	e9cd 7515 	strd	r7, r5, [sp, #84]	; 0x54
 8001376:	f000 fe9f 	bl	80020b8 <HAL_ADC_ConfigChannel>
 800137a:	b108      	cbz	r0, 8001380 <main+0x18c>
 800137c:	b672      	cpsid	i
 800137e:	e7fe      	b.n	800137e <main+0x18a>
 8001380:	f04f 33ff 	mov.w	r3, #4294967295
 8001384:	4c5c      	ldr	r4, [pc, #368]	; (80014f8 <main+0x304>)
 8001386:	4f5d      	ldr	r7, [pc, #372]	; (80014fc <main+0x308>)
 8001388:	f8ad 0038 	strh.w	r0, [sp, #56]	; 0x38
 800138c:	f88d 003a 	strb.w	r0, [sp, #58]	; 0x3a
 8001390:	9015      	str	r0, [sp, #84]	; 0x54
 8001392:	60a0      	str	r0, [r4, #8]
 8001394:	4620      	mov	r0, r4
 8001396:	e9c4 7300 	strd	r7, r3, [r4]
 800139a:	f002 fabd 	bl	8003918 <HAL_RTC_Init>
 800139e:	b108      	cbz	r0, 80013a4 <main+0x1b0>
 80013a0:	b672      	cpsid	i
 80013a2:	e7fe      	b.n	80013a2 <main+0x1ae>
 80013a4:	f8ad 0038 	strh.w	r0, [sp, #56]	; 0x38
 80013a8:	f88d 003a 	strb.w	r0, [sp, #58]	; 0x3a
 80013ac:	462a      	mov	r2, r5
 80013ae:	4620      	mov	r0, r4
 80013b0:	a90e      	add	r1, sp, #56	; 0x38
 80013b2:	f002 f861 	bl	8003478 <HAL_RTC_SetTime>
 80013b6:	b108      	cbz	r0, 80013bc <main+0x1c8>
 80013b8:	b672      	cpsid	i
 80013ba:	e7fe      	b.n	80013ba <main+0x1c6>
 80013bc:	4b50      	ldr	r3, [pc, #320]	; (8001500 <main+0x30c>)
 80013be:	462a      	mov	r2, r5
 80013c0:	4620      	mov	r0, r4
 80013c2:	a915      	add	r1, sp, #84	; 0x54
 80013c4:	9315      	str	r3, [sp, #84]	; 0x54
 80013c6:	f002 f9af 	bl	8003728 <HAL_RTC_SetDate>
 80013ca:	4605      	mov	r5, r0
 80013cc:	b108      	cbz	r0, 80013d2 <main+0x1de>
 80013ce:	b672      	cpsid	i
 80013d0:	e7fe      	b.n	80013d0 <main+0x1dc>
 80013d2:	4601      	mov	r1, r0
 80013d4:	4632      	mov	r2, r6
 80013d6:	a815      	add	r0, sp, #84	; 0x54
 80013d8:	f005 fb10 	bl	80069fc <memset>
 80013dc:	f641 733f 	movw	r3, #7999	; 0x1f3f
 80013e0:	4c48      	ldr	r4, [pc, #288]	; (8001504 <main+0x310>)
 80013e2:	4949      	ldr	r1, [pc, #292]	; (8001508 <main+0x314>)
 80013e4:	4620      	mov	r0, r4
 80013e6:	e9c4 1300 	strd	r1, r3, [r4]
 80013ea:	23f9      	movs	r3, #249	; 0xf9
 80013ec:	e9c4 3503 	strd	r3, r5, [r4, #12]
 80013f0:	2380      	movs	r3, #128	; 0x80
 80013f2:	e9cd 550e 	strd	r5, r5, [sp, #56]	; 0x38
 80013f6:	60a5      	str	r5, [r4, #8]
 80013f8:	6165      	str	r5, [r4, #20]
 80013fa:	61a3      	str	r3, [r4, #24]
 80013fc:	f003 fa9e 	bl	800493c <HAL_TIM_Base_Init>
 8001400:	b108      	cbz	r0, 8001406 <main+0x212>
 8001402:	b672      	cpsid	i
 8001404:	e7fe      	b.n	8001404 <main+0x210>
 8001406:	f44f 5380 	mov.w	r3, #4096	; 0x1000
 800140a:	4620      	mov	r0, r4
 800140c:	a915      	add	r1, sp, #84	; 0x54
 800140e:	9315      	str	r3, [sp, #84]	; 0x54
 8001410:	f002 fef4 	bl	80041fc <HAL_TIM_ConfigClockSource>
 8001414:	b108      	cbz	r0, 800141a <main+0x226>
 8001416:	b672      	cpsid	i
 8001418:	e7fe      	b.n	8001418 <main+0x224>
 800141a:	e9cd 000e 	strd	r0, r0, [sp, #56]	; 0x38
 800141e:	a90e      	add	r1, sp, #56	; 0x38
 8001420:	4620      	mov	r0, r4
 8001422:	f003 fc87 	bl	8004d34 <HAL_TIMEx_MasterConfigSynchronization>
 8001426:	b108      	cbz	r0, 800142c <main+0x238>
 8001428:	b672      	cpsid	i
 800142a:	e7fe      	b.n	800142a <main+0x236>
 800142c:	2300      	movs	r3, #0
 800142e:	2501      	movs	r5, #1
 8001430:	f04f 4280 	mov.w	r2, #1073741824	; 0x40000000
 8001434:	f64f 76ff 	movw	r6, #65535	; 0xffff
 8001438:	2780      	movs	r7, #128	; 0x80
 800143a:	f04f 0903 	mov.w	r9, #3
 800143e:	f04f 080a 	mov.w	r8, #10
 8001442:	4c32      	ldr	r4, [pc, #200]	; (800150c <main+0x318>)
 8001444:	a915      	add	r1, sp, #84	; 0x54
 8001446:	4620      	mov	r0, r4
 8001448:	e9cd 330e 	strd	r3, r3, [sp, #56]	; 0x38
 800144c:	e9c4 2300 	strd	r2, r3, [r4]
 8001450:	e9c4 6303 	strd	r6, r3, [r4, #12]
 8001454:	e9cd 9315 	strd	r9, r3, [sp, #84]	; 0x54
 8001458:	e9cd 5317 	strd	r5, r3, [sp, #92]	; 0x5c
 800145c:	e9cd 8319 	strd	r8, r3, [sp, #100]	; 0x64
 8001460:	e9cd 531b 	strd	r5, r3, [sp, #108]	; 0x6c
 8001464:	60a3      	str	r3, [r4, #8]
 8001466:	61a7      	str	r7, [r4, #24]
 8001468:	931d      	str	r3, [sp, #116]	; 0x74
 800146a:	f003 fb6f 	bl	8004b4c <HAL_TIM_Encoder_Init>
 800146e:	b108      	cbz	r0, 8001474 <main+0x280>
 8001470:	b672      	cpsid	i
 8001472:	e7fe      	b.n	8001472 <main+0x27e>
 8001474:	e9cd 000e 	strd	r0, r0, [sp, #56]	; 0x38
 8001478:	a90e      	add	r1, sp, #56	; 0x38
 800147a:	4620      	mov	r0, r4
 800147c:	f003 fc5a 	bl	8004d34 <HAL_TIMEx_MasterConfigSynchronization>
 8001480:	b108      	cbz	r0, 8001486 <main+0x292>
 8001482:	b672      	cpsid	i
 8001484:	e7fe      	b.n	8001484 <main+0x290>
 8001486:	f8df a094 	ldr.w	sl, [pc, #148]	; 800151c <main+0x328>
 800148a:	4b21      	ldr	r3, [pc, #132]	; (8001510 <main+0x31c>)
 800148c:	e9cd 000e 	strd	r0, r0, [sp, #56]	; 0x38
 8001490:	e9ca 3000 	strd	r3, r0, [sl]
 8001494:	e9ca 0602 	strd	r0, r6, [sl, #8]
 8001498:	e9cd 9015 	strd	r9, r0, [sp, #84]	; 0x54
 800149c:	e9cd 5017 	strd	r5, r0, [sp, #92]	; 0x5c
 80014a0:	e9cd 8019 	strd	r8, r0, [sp, #100]	; 0x64
 80014a4:	e9cd 501b 	strd	r5, r0, [sp, #108]	; 0x6c
 80014a8:	f8ca 0010 	str.w	r0, [sl, #16]
 80014ac:	901d      	str	r0, [sp, #116]	; 0x74
 80014ae:	a915      	add	r1, sp, #84	; 0x54
 80014b0:	4650      	mov	r0, sl
 80014b2:	f8ca 7018 	str.w	r7, [sl, #24]
 80014b6:	f003 fb49 	bl	8004b4c <HAL_TIM_Encoder_Init>
 80014ba:	4654      	mov	r4, sl
 80014bc:	b108      	cbz	r0, 80014c2 <main+0x2ce>
 80014be:	b672      	cpsid	i
 80014c0:	e7fe      	b.n	80014c0 <main+0x2cc>
 80014c2:	e9cd 000e 	strd	r0, r0, [sp, #56]	; 0x38
 80014c6:	a90e      	add	r1, sp, #56	; 0x38
 80014c8:	4650      	mov	r0, sl
 80014ca:	f003 fc33 	bl	8004d34 <HAL_TIMEx_MasterConfigSynchronization>
 80014ce:	b338      	cbz	r0, 8001520 <main+0x32c>
 80014d0:	b672      	cpsid	i
 80014d2:	e7fe      	b.n	80014d2 <main+0x2de>
 80014d4:	40021000 	.word	0x40021000
 80014d8:	40011000 	.word	0x40011000
 80014dc:	40010800 	.word	0x40010800
 80014e0:	40010c00 	.word	0x40010c00
 80014e4:	40011400 	.word	0x40011400
 80014e8:	200007ec 	.word	0x200007ec
 80014ec:	200009e0 	.word	0x200009e0
 80014f0:	200007bc 	.word	0x200007bc
 80014f4:	40012400 	.word	0x40012400
 80014f8:	20000860 	.word	0x20000860
 80014fc:	40002800 	.word	0x40002800
 8001500:	00010101 	.word	0x00010101
 8001504:	20000928 	.word	0x20000928
 8001508:	40012c00 	.word	0x40012c00
 800150c:	20000a54 	.word	0x20000a54
 8001510:	40000400 	.word	0x40000400
 8001514:	40013800 	.word	0x40013800
 8001518:	40004c00 	.word	0x40004c00
 800151c:	20000708 	.word	0x20000708
 8001520:	f8df a214 	ldr.w	sl, [pc, #532]	; 8001738 <main+0x544>
 8001524:	4b7c      	ldr	r3, [pc, #496]	; (8001718 <main+0x524>)
 8001526:	e9cd 000e 	strd	r0, r0, [sp, #56]	; 0x38
 800152a:	e9ca 3000 	strd	r3, r0, [sl]
 800152e:	e9ca 0602 	strd	r0, r6, [sl, #8]
 8001532:	e9cd 9015 	strd	r9, r0, [sp, #84]	; 0x54
 8001536:	e9cd 5017 	strd	r5, r0, [sp, #92]	; 0x5c
 800153a:	e9cd 8019 	strd	r8, r0, [sp, #100]	; 0x64
 800153e:	e9cd 501b 	strd	r5, r0, [sp, #108]	; 0x6c
 8001542:	f8ca 0010 	str.w	r0, [sl, #16]
 8001546:	901d      	str	r0, [sp, #116]	; 0x74
 8001548:	a915      	add	r1, sp, #84	; 0x54
 800154a:	4650      	mov	r0, sl
 800154c:	f8ca 7018 	str.w	r7, [sl, #24]
 8001550:	f003 fafc 	bl	8004b4c <HAL_TIM_Encoder_Init>
 8001554:	b108      	cbz	r0, 800155a <main+0x366>
 8001556:	b672      	cpsid	i
 8001558:	e7fe      	b.n	8001558 <main+0x364>
 800155a:	e9cd 000e 	strd	r0, r0, [sp, #56]	; 0x38
 800155e:	a90e      	add	r1, sp, #56	; 0x38
 8001560:	4650      	mov	r0, sl
 8001562:	f003 fbe7 	bl	8004d34 <HAL_TIMEx_MasterConfigSynchronization>
 8001566:	b108      	cbz	r0, 800156c <main+0x378>
 8001568:	b672      	cpsid	i
 800156a:	e7fe      	b.n	800156a <main+0x376>
 800156c:	f8df a1cc 	ldr.w	sl, [pc, #460]	; 800173c <main+0x548>
 8001570:	4b6a      	ldr	r3, [pc, #424]	; (800171c <main+0x528>)
 8001572:	e9cd 000e 	strd	r0, r0, [sp, #56]	; 0x38
 8001576:	e9ca 3000 	strd	r3, r0, [sl]
 800157a:	e9ca 0602 	strd	r0, r6, [sl, #8]
 800157e:	e9cd 9015 	strd	r9, r0, [sp, #84]	; 0x54
 8001582:	e9cd 5017 	strd	r5, r0, [sp, #92]	; 0x5c
 8001586:	e9cd 8019 	strd	r8, r0, [sp, #100]	; 0x64
 800158a:	e9cd 501b 	strd	r5, r0, [sp, #108]	; 0x6c
 800158e:	f8ca 0010 	str.w	r0, [sl, #16]
 8001592:	901d      	str	r0, [sp, #116]	; 0x74
 8001594:	a915      	add	r1, sp, #84	; 0x54
 8001596:	4650      	mov	r0, sl
 8001598:	f8ca 7018 	str.w	r7, [sl, #24]
 800159c:	f003 fad6 	bl	8004b4c <HAL_TIM_Encoder_Init>
 80015a0:	b108      	cbz	r0, 80015a6 <main+0x3b2>
 80015a2:	b672      	cpsid	i
 80015a4:	e7fe      	b.n	80015a4 <main+0x3b0>
 80015a6:	e9cd 000e 	strd	r0, r0, [sp, #56]	; 0x38
 80015aa:	a90e      	add	r1, sp, #56	; 0x38
 80015ac:	4650      	mov	r0, sl
 80015ae:	f003 fbc1 	bl	8004d34 <HAL_TIMEx_MasterConfigSynchronization>
 80015b2:	b108      	cbz	r0, 80015b8 <main+0x3c4>
 80015b4:	b672      	cpsid	i
 80015b6:	e7fe      	b.n	80015b6 <main+0x3c2>
 80015b8:	2307      	movs	r3, #7
 80015ba:	4d59      	ldr	r5, [pc, #356]	; (8001720 <main+0x52c>)
 80015bc:	4a59      	ldr	r2, [pc, #356]	; (8001724 <main+0x530>)
 80015be:	e9c5 0602 	strd	r0, r6, [r5, #8]
 80015c2:	e9cd 0015 	strd	r0, r0, [sp, #84]	; 0x54
 80015c6:	4628      	mov	r0, r5
 80015c8:	e9c5 2300 	strd	r2, r3, [r5]
 80015cc:	61af      	str	r7, [r5, #24]
 80015ce:	f003 f9b5 	bl	800493c <HAL_TIM_Base_Init>
 80015d2:	462e      	mov	r6, r5
 80015d4:	b108      	cbz	r0, 80015da <main+0x3e6>
 80015d6:	b672      	cpsid	i
 80015d8:	e7fe      	b.n	80015d8 <main+0x3e4>
 80015da:	e9cd 0015 	strd	r0, r0, [sp, #84]	; 0x54
 80015de:	a915      	add	r1, sp, #84	; 0x54
 80015e0:	4628      	mov	r0, r5
 80015e2:	f003 fba7 	bl	8004d34 <HAL_TIMEx_MasterConfigSynchronization>
 80015e6:	b108      	cbz	r0, 80015ec <main+0x3f8>
 80015e8:	b672      	cpsid	i
 80015ea:	e7fe      	b.n	80015ea <main+0x3f6>
 80015ec:	2300      	movs	r3, #0
 80015ee:	4d4e      	ldr	r5, [pc, #312]	; (8001728 <main+0x534>)
 80015f0:	f04f 0907 	mov.w	r9, #7
 80015f4:	f04f 0880 	mov.w	r8, #128	; 0x80
 80015f8:	e9cd 3315 	strd	r3, r3, [sp, #84]	; 0x54
 80015fc:	60ab      	str	r3, [r5, #8]
 80015fe:	f64f 73ff 	movw	r3, #65535	; 0xffff
 8001602:	4a4a      	ldr	r2, [pc, #296]	; (800172c <main+0x538>)
 8001604:	4628      	mov	r0, r5
 8001606:	e9c5 2900 	strd	r2, r9, [r5]
 800160a:	60eb      	str	r3, [r5, #12]
 800160c:	f8c5 8018 	str.w	r8, [r5, #24]
 8001610:	f003 f994 	bl	800493c <HAL_TIM_Base_Init>
 8001614:	b108      	cbz	r0, 800161a <main+0x426>
 8001616:	b672      	cpsid	i
 8001618:	e7fe      	b.n	8001618 <main+0x424>
 800161a:	e9cd 0015 	strd	r0, r0, [sp, #84]	; 0x54
 800161e:	a915      	add	r1, sp, #84	; 0x54
 8001620:	4628      	mov	r0, r5
 8001622:	f003 fb87 	bl	8004d34 <HAL_TIMEx_MasterConfigSynchronization>
 8001626:	4607      	mov	r7, r0
 8001628:	b108      	cbz	r0, 800162e <main+0x43a>
 800162a:	b672      	cpsid	i
 800162c:	e7fe      	b.n	800162c <main+0x438>
 800162e:	4601      	mov	r1, r0
 8001630:	2210      	movs	r2, #16
 8001632:	a80a      	add	r0, sp, #40	; 0x28
 8001634:	f005 f9e2 	bl	80069fc <memset>
 8001638:	221c      	movs	r2, #28
 800163a:	4639      	mov	r1, r7
 800163c:	a80e      	add	r0, sp, #56	; 0x38
 800163e:	e9cd 7708 	strd	r7, r7, [sp, #32]
 8001642:	f005 f9db 	bl	80069fc <memset>
 8001646:	2220      	movs	r2, #32
 8001648:	4639      	mov	r1, r7
 800164a:	a815      	add	r0, sp, #84	; 0x54
 800164c:	f005 f9d6 	bl	80069fc <memset>
 8001650:	4d37      	ldr	r5, [pc, #220]	; (8001730 <main+0x53c>)
 8001652:	4b38      	ldr	r3, [pc, #224]	; (8001734 <main+0x540>)
 8001654:	4628      	mov	r0, r5
 8001656:	e9c5 3900 	strd	r3, r9, [r5]
 800165a:	2364      	movs	r3, #100	; 0x64
 800165c:	e9c5 7805 	strd	r7, r8, [r5, #20]
 8001660:	e9c5 3703 	strd	r3, r7, [r5, #12]
 8001664:	60af      	str	r7, [r5, #8]
 8001666:	f003 f969 	bl	800493c <HAL_TIM_Base_Init>
 800166a:	b108      	cbz	r0, 8001670 <main+0x47c>
 800166c:	b672      	cpsid	i
 800166e:	e7fe      	b.n	800166e <main+0x47a>
 8001670:	f44f 5380 	mov.w	r3, #4096	; 0x1000
 8001674:	4628      	mov	r0, r5
 8001676:	a90a      	add	r1, sp, #40	; 0x28
 8001678:	930a      	str	r3, [sp, #40]	; 0x28
 800167a:	f002 fdbf 	bl	80041fc <HAL_TIM_ConfigClockSource>
 800167e:	b108      	cbz	r0, 8001684 <main+0x490>
 8001680:	b672      	cpsid	i
 8001682:	e7fe      	b.n	8001682 <main+0x48e>
 8001684:	4628      	mov	r0, r5
 8001686:	f003 f9dd 	bl	8004a44 <HAL_TIM_PWM_Init>
 800168a:	b108      	cbz	r0, 8001690 <main+0x49c>
 800168c:	b672      	cpsid	i
 800168e:	e7fe      	b.n	800168e <main+0x49a>
 8001690:	e9cd 0008 	strd	r0, r0, [sp, #32]
 8001694:	a908      	add	r1, sp, #32
 8001696:	4628      	mov	r0, r5
 8001698:	f003 fb4c 	bl	8004d34 <HAL_TIMEx_MasterConfigSynchronization>
 800169c:	4602      	mov	r2, r0
 800169e:	b108      	cbz	r0, 80016a4 <main+0x4b0>
 80016a0:	b672      	cpsid	i
 80016a2:	e7fe      	b.n	80016a2 <main+0x4ae>
 80016a4:	2360      	movs	r3, #96	; 0x60
 80016a6:	e9cd 0010 	strd	r0, r0, [sp, #64]	; 0x40
 80016aa:	e9cd 300e 	strd	r3, r0, [sp, #56]	; 0x38
 80016ae:	e9cd 0012 	strd	r0, r0, [sp, #72]	; 0x48
 80016b2:	9014      	str	r0, [sp, #80]	; 0x50
 80016b4:	a90e      	add	r1, sp, #56	; 0x38
 80016b6:	4628      	mov	r0, r5
 80016b8:	f002 fc98 	bl	8003fec <HAL_TIM_PWM_ConfigChannel>
 80016bc:	b108      	cbz	r0, 80016c2 <main+0x4ce>
 80016be:	b672      	cpsid	i
 80016c0:	e7fe      	b.n	80016c0 <main+0x4cc>
 80016c2:	2204      	movs	r2, #4
 80016c4:	4628      	mov	r0, r5
 80016c6:	a90e      	add	r1, sp, #56	; 0x38
 80016c8:	f002 fc90 	bl	8003fec <HAL_TIM_PWM_ConfigChannel>
 80016cc:	b108      	cbz	r0, 80016d2 <main+0x4de>
 80016ce:	b672      	cpsid	i
 80016d0:	e7fe      	b.n	80016d0 <main+0x4dc>
 80016d2:	2208      	movs	r2, #8
 80016d4:	4628      	mov	r0, r5
 80016d6:	a90e      	add	r1, sp, #56	; 0x38
 80016d8:	f002 fc88 	bl	8003fec <HAL_TIM_PWM_ConfigChannel>
 80016dc:	b108      	cbz	r0, 80016e2 <main+0x4ee>
 80016de:	b672      	cpsid	i
 80016e0:	e7fe      	b.n	80016e0 <main+0x4ec>
 80016e2:	220c      	movs	r2, #12
 80016e4:	4628      	mov	r0, r5
 80016e6:	a90e      	add	r1, sp, #56	; 0x38
 80016e8:	f002 fc80 	bl	8003fec <HAL_TIM_PWM_ConfigChannel>
 80016ec:	b108      	cbz	r0, 80016f2 <main+0x4fe>
 80016ee:	b672      	cpsid	i
 80016f0:	e7fe      	b.n	80016f0 <main+0x4fc>
 80016f2:	2300      	movs	r3, #0
 80016f4:	f44f 5200 	mov.w	r2, #8192	; 0x2000
 80016f8:	480d      	ldr	r0, [pc, #52]	; (8001730 <main+0x53c>)
 80016fa:	a915      	add	r1, sp, #84	; 0x54
 80016fc:	e9cd 3315 	strd	r3, r3, [sp, #84]	; 0x54
 8001700:	e9cd 3317 	strd	r3, r3, [sp, #92]	; 0x5c
 8001704:	9319      	str	r3, [sp, #100]	; 0x64
 8001706:	921a      	str	r2, [sp, #104]	; 0x68
 8001708:	931c      	str	r3, [sp, #112]	; 0x70
 800170a:	f003 fb83 	bl	8004e14 <HAL_TIMEx_ConfigBreakDeadTime>
 800170e:	4605      	mov	r5, r0
 8001710:	b1b0      	cbz	r0, 8001740 <main+0x54c>
 8001712:	b672      	cpsid	i
 8001714:	e7fe      	b.n	8001714 <main+0x520>
 8001716:	bf00      	nop
 8001718:	40000800 	.word	0x40000800
 800171c:	40000c00 	.word	0x40000c00
 8001720:	20000874 	.word	0x20000874
 8001724:	40001000 	.word	0x40001000
 8001728:	20000b08 	.word	0x20000b08
 800172c:	40001400 	.word	0x40001400
 8001730:	200004ec 	.word	0x200004ec
 8001734:	40013400 	.word	0x40013400
 8001738:	200005a0 	.word	0x200005a0
 800173c:	20000654 	.word	0x20000654
 8001740:	488a      	ldr	r0, [pc, #552]	; (800196c <main+0x778>)
 8001742:	f000 faf9 	bl	8001d38 <HAL_TIM_MspPostInit>
 8001746:	a80e      	add	r0, sp, #56	; 0x38
 8001748:	f005 f863 	bl	8006812 <SFO_init>
 800174c:	a815      	add	r0, sp, #84	; 0x54
 800174e:	f003 ff49 	bl	80055e4 <BLU_initData>
 8001752:	a808      	add	r0, sp, #32
 8001754:	f005 f8ba 	bl	80068cc <UTI_resetRtcTime>
 8001758:	a80a      	add	r0, sp, #40	; 0x28
 800175a:	f005 f8b1 	bl	80068c0 <UTI_resetRtcDate>
 800175e:	4b84      	ldr	r3, [pc, #528]	; (8001970 <main+0x77c>)
 8001760:	f8df a244 	ldr.w	sl, [pc, #580]	; 80019a8 <main+0x7b4>
 8001764:	601d      	str	r5, [r3, #0]
 8001766:	4f83      	ldr	r7, [pc, #524]	; (8001974 <main+0x780>)
 8001768:	4b83      	ldr	r3, [pc, #524]	; (8001978 <main+0x784>)
 800176a:	f8df 8240 	ldr.w	r8, [pc, #576]	; 80019ac <main+0x7b8>
 800176e:	f8df b240 	ldr.w	fp, [pc, #576]	; 80019b0 <main+0x7bc>
 8001772:	f8df 9240 	ldr.w	r9, [pc, #576]	; 80019b4 <main+0x7c0>
 8001776:	701d      	strb	r5, [r3, #0]
 8001778:	603d      	str	r5, [r7, #0]
 800177a:	f8c8 5000 	str.w	r5, [r8]
 800177e:	f8cb 5000 	str.w	r5, [fp]
 8001782:	f8ca 5000 	str.w	r5, [sl]
 8001786:	f8c9 5000 	str.w	r5, [r9]
 800178a:	250a      	movs	r5, #10
 800178c:	487b      	ldr	r0, [pc, #492]	; (800197c <main+0x788>)
 800178e:	f004 f85d 	bl	800584c <CON_init>
 8001792:	487b      	ldr	r0, [pc, #492]	; (8001980 <main+0x78c>)
 8001794:	f004 feee 	bl	8006574 <MAS_init>
 8001798:	f8cd a008 	str.w	sl, [sp, #8]
 800179c:	f44f 707a 	mov.w	r0, #1000	; 0x3e8
 80017a0:	f000 fc78 	bl	8002094 <HAL_Delay>
 80017a4:	3d01      	subs	r5, #1
 80017a6:	d1f9      	bne.n	800179c <main+0x5a8>
 80017a8:	4629      	mov	r1, r5
 80017aa:	4876      	ldr	r0, [pc, #472]	; (8001984 <main+0x790>)
 80017ac:	f004 feb8 	bl	8006520 <LOG_init>
 80017b0:	2003      	movs	r0, #3
 80017b2:	f004 fec7 	bl	8006544 <LOG_setLevel>
 80017b6:	4874      	ldr	r0, [pc, #464]	; (8001988 <main+0x794>)
 80017b8:	f002 fa14 	bl	8003be4 <HAL_TIM_Base_Start>
 80017bc:	4873      	ldr	r0, [pc, #460]	; (800198c <main+0x798>)
 80017be:	f005 f86d 	bl	800689c <UTI_init>
 80017c2:	4872      	ldr	r0, [pc, #456]	; (800198c <main+0x798>)
 80017c4:	f002 fa64 	bl	8003c90 <HAL_TIM_Base_Start_IT>
 80017c8:	2004      	movs	r0, #4
 80017ca:	f004 fe73 	bl	80064b4 <LED_setMode>
 80017ce:	4870      	ldr	r0, [pc, #448]	; (8001990 <main+0x79c>)
 80017d0:	f002 fa5e 	bl	8003c90 <HAL_TIM_Base_Start_IT>
 80017d4:	213c      	movs	r1, #60	; 0x3c
 80017d6:	486f      	ldr	r0, [pc, #444]	; (8001994 <main+0x7a0>)
 80017d8:	f002 ffdc 	bl	8004794 <HAL_TIM_Encoder_Start_IT>
 80017dc:	213c      	movs	r1, #60	; 0x3c
 80017de:	486e      	ldr	r0, [pc, #440]	; (8001998 <main+0x7a4>)
 80017e0:	f002 ffd8 	bl	8004794 <HAL_TIM_Encoder_Start_IT>
 80017e4:	213c      	movs	r1, #60	; 0x3c
 80017e6:	486d      	ldr	r0, [pc, #436]	; (800199c <main+0x7a8>)
 80017e8:	f002 ffd4 	bl	8004794 <HAL_TIM_Encoder_Start_IT>
 80017ec:	213c      	movs	r1, #60	; 0x3c
 80017ee:	486c      	ldr	r0, [pc, #432]	; (80019a0 <main+0x7ac>)
 80017f0:	f002 ffd0 	bl	8004794 <HAL_TIM_Encoder_Start_IT>
 80017f4:	485d      	ldr	r0, [pc, #372]	; (800196c <main+0x778>)
 80017f6:	f002 f9f5 	bl	8003be4 <HAL_TIM_Base_Start>
 80017fa:	486a      	ldr	r0, [pc, #424]	; (80019a4 <main+0x7b0>)
 80017fc:	f003 feb2 	bl	8005564 <BAT_init>
 8001800:	4629      	mov	r1, r5
 8001802:	485a      	ldr	r0, [pc, #360]	; (800196c <main+0x778>)
 8001804:	f002 ff40 	bl	8004688 <HAL_TIM_PWM_Start>
 8001808:	2104      	movs	r1, #4
 800180a:	4858      	ldr	r0, [pc, #352]	; (800196c <main+0x778>)
 800180c:	f002 ff3c 	bl	8004688 <HAL_TIM_PWM_Start>
 8001810:	2108      	movs	r1, #8
 8001812:	4856      	ldr	r0, [pc, #344]	; (800196c <main+0x778>)
 8001814:	f002 ff38 	bl	8004688 <HAL_TIM_PWM_Start>
 8001818:	210c      	movs	r1, #12
 800181a:	4854      	ldr	r0, [pc, #336]	; (800196c <main+0x778>)
 800181c:	f002 ff34 	bl	8004688 <HAL_TIM_PWM_Start>
 8001820:	f003 fee8 	bl	80055f4 <BLU_init>
 8001824:	4b5b      	ldr	r3, [pc, #364]	; (8001994 <main+0x7a0>)
 8001826:	495d      	ldr	r1, [pc, #372]	; (800199c <main+0x7a8>)
 8001828:	4a5d      	ldr	r2, [pc, #372]	; (80019a0 <main+0x7ac>)
 800182a:	4850      	ldr	r0, [pc, #320]	; (800196c <main+0x778>)
 800182c:	9400      	str	r4, [sp, #0]
 800182e:	f004 fb23 	bl	8005e78 <DRV_init>
 8001832:	6833      	ldr	r3, [r6, #0]
 8001834:	6a59      	ldr	r1, [r3, #36]	; 0x24
 8001836:	b28b      	uxth	r3, r1
 8001838:	9303      	str	r3, [sp, #12]
 800183a:	f004 fadb 	bl	8005df4 <DRV_getMode>
 800183e:	2201      	movs	r2, #1
 8001840:	a908      	add	r1, sp, #32
 8001842:	4682      	mov	sl, r0
 8001844:	484f      	ldr	r0, [pc, #316]	; (8001984 <main+0x790>)
 8001846:	f001 fead 	bl	80035a4 <HAL_RTC_GetTime>
 800184a:	2201      	movs	r2, #1
 800184c:	a90a      	add	r1, sp, #40	; 0x28
 800184e:	484d      	ldr	r0, [pc, #308]	; (8001984 <main+0x790>)
 8001850:	f002 f80e 	bl	8003870 <HAL_RTC_GetDate>
 8001854:	a808      	add	r0, sp, #32
 8001856:	f005 f83e 	bl	80068d6 <UTI_turnRtcTimeToSeconds>
 800185a:	f8d9 3000 	ldr.w	r3, [r9]
 800185e:	4604      	mov	r4, r0
 8001860:	4283      	cmp	r3, r0
 8001862:	d00d      	beq.n	8001880 <main+0x68c>
 8001864:	f1ba 0f01 	cmp.w	sl, #1
 8001868:	d016      	beq.n	8001898 <main+0x6a4>
 800186a:	f1ba 0f02 	cmp.w	sl, #2
 800186e:	d015      	beq.n	800189c <main+0x6a8>
 8001870:	f1ba 0f00 	cmp.w	sl, #0
 8001874:	d102      	bne.n	800187c <main+0x688>
 8001876:	2002      	movs	r0, #2
 8001878:	f004 fe1c 	bl	80064b4 <LED_setMode>
 800187c:	f8c9 4000 	str.w	r4, [r9]
 8001880:	a815      	add	r0, sp, #84	; 0x54
 8001882:	f003 febd 	bl	8005600 <BLU_receiveData>
 8001886:	f89d 3064 	ldrb.w	r3, [sp, #100]	; 0x64
 800188a:	3b05      	subs	r3, #5
 800188c:	2b03      	cmp	r3, #3
 800188e:	d80c      	bhi.n	80018aa <main+0x6b6>
 8001890:	e8df f003 	tbb	[pc, r3]
 8001894:	4b3d5906 	.word	0x4b3d5906
 8001898:	2003      	movs	r0, #3
 800189a:	e7ed      	b.n	8001878 <main+0x684>
 800189c:	2004      	movs	r0, #4
 800189e:	e7eb      	b.n	8001878 <main+0x684>
 80018a0:	683b      	ldr	r3, [r7, #0]
 80018a2:	bb7b      	cbnz	r3, 8001904 <main+0x710>
 80018a4:	603c      	str	r4, [r7, #0]
 80018a6:	f004 fe53 	bl	8006550 <LOG_increaseLevel>
 80018aa:	f89d 3064 	ldrb.w	r3, [sp, #100]	; 0x64
 80018ae:	a815      	add	r0, sp, #84	; 0x54
 80018b0:	f003 03fd 	and.w	r3, r3, #253	; 0xfd
 80018b4:	2b05      	cmp	r3, #5
 80018b6:	bf1c      	itt	ne
 80018b8:	603d      	strne	r5, [r7, #0]
 80018ba:	f8c8 5000 	strne.w	r5, [r8]
 80018be:	f004 f973 	bl	8005ba8 <DRV_updateFromBluetooth>
 80018c2:	a80e      	add	r0, sp, #56	; 0x38
 80018c4:	f003 fffe 	bl	80058c4 <CON_updateFifo>
 80018c8:	a80e      	add	r0, sp, #56	; 0x38
 80018ca:	f004 fe8f 	bl	80065ec <MAS_updateFifo>
 80018ce:	6833      	ldr	r3, [r6, #0]
 80018d0:	2200      	movs	r2, #0
 80018d2:	6a5b      	ldr	r3, [r3, #36]	; 0x24
 80018d4:	a80e      	add	r0, sp, #56	; 0x38
 80018d6:	fa1f fa83 	uxth.w	sl, r3
 80018da:	9b03      	ldr	r3, [sp, #12]
 80018dc:	eba3 010a 	sub.w	r1, r3, sl
 80018e0:	b289      	uxth	r1, r1
 80018e2:	f004 fbbf 	bl	8006064 <DRV_updateFromCommands>
 80018e6:	4b22      	ldr	r3, [pc, #136]	; (8001970 <main+0x77c>)
 80018e8:	681a      	ldr	r2, [r3, #0]
 80018ea:	42a2      	cmp	r2, r4
 80018ec:	d003      	beq.n	80018f6 <main+0x702>
 80018ee:	f004 fa55 	bl	8005d9c <DRV_reportVelocity>
 80018f2:	4b1f      	ldr	r3, [pc, #124]	; (8001970 <main+0x77c>)
 80018f4:	601c      	str	r4, [r3, #0]
 80018f6:	f242 7010 	movw	r0, #10000	; 0x2710
 80018fa:	f004 ffd5 	bl	80068a8 <UTI_delayUs>
 80018fe:	f8cd a00c 	str.w	sl, [sp, #12]
 8001902:	e79a      	b.n	800183a <main+0x646>
 8001904:	1ae3      	subs	r3, r4, r3
 8001906:	2b01      	cmp	r3, #1
 8001908:	d9cf      	bls.n	80018aa <main+0x6b6>
 800190a:	603d      	str	r5, [r7, #0]
 800190c:	e7cd      	b.n	80018aa <main+0x6b6>
 800190e:	f8d8 3000 	ldr.w	r3, [r8]
 8001912:	b923      	cbnz	r3, 800191e <main+0x72a>
 8001914:	f8c8 4000 	str.w	r4, [r8]
 8001918:	f004 fe22 	bl	8006560 <LOG_decreaseLevel>
 800191c:	e7c5      	b.n	80018aa <main+0x6b6>
 800191e:	1ae3      	subs	r3, r4, r3
 8001920:	2b01      	cmp	r3, #1
 8001922:	d9c2      	bls.n	80018aa <main+0x6b6>
 8001924:	f8c8 5000 	str.w	r5, [r8]
 8001928:	e7bf      	b.n	80018aa <main+0x6b6>
 800192a:	f8db 3000 	ldr.w	r3, [fp]
 800192e:	b923      	cbnz	r3, 800193a <main+0x746>
 8001930:	f8cb 4000 	str.w	r4, [fp]
 8001934:	f004 fdfe 	bl	8006534 <LOG_toggleOnOff>
 8001938:	e7b7      	b.n	80018aa <main+0x6b6>
 800193a:	1ae3      	subs	r3, r4, r3
 800193c:	2b01      	cmp	r3, #1
 800193e:	d9b4      	bls.n	80018aa <main+0x6b6>
 8001940:	f8cb 5000 	str.w	r5, [fp]
 8001944:	e7b1      	b.n	80018aa <main+0x6b6>
 8001946:	9b02      	ldr	r3, [sp, #8]
 8001948:	681b      	ldr	r3, [r3, #0]
 800194a:	b943      	cbnz	r3, 800195e <main+0x76a>
 800194c:	9a02      	ldr	r2, [sp, #8]
 800194e:	6014      	str	r4, [r2, #0]
 8001950:	4a09      	ldr	r2, [pc, #36]	; (8001978 <main+0x784>)
 8001952:	7811      	ldrb	r1, [r2, #0]
 8001954:	2900      	cmp	r1, #0
 8001956:	bf08      	it	eq
 8001958:	2301      	moveq	r3, #1
 800195a:	7013      	strb	r3, [r2, #0]
 800195c:	e7a5      	b.n	80018aa <main+0x6b6>
 800195e:	1ae3      	subs	r3, r4, r3
 8001960:	2b01      	cmp	r3, #1
 8001962:	bf84      	itt	hi
 8001964:	9b02      	ldrhi	r3, [sp, #8]
 8001966:	601d      	strhi	r5, [r3, #0]
 8001968:	e79f      	b.n	80018aa <main+0x6b6>
 800196a:	bf00      	nop
 800196c:	200004ec 	.word	0x200004ec
 8001970:	20000214 	.word	0x20000214
 8001974:	20000210 	.word	0x20000210
 8001978:	200009dc 	.word	0x200009dc
 800197c:	200007ec 	.word	0x200007ec
 8001980:	200009e0 	.word	0x200009e0
 8001984:	20000860 	.word	0x20000860
 8001988:	20000874 	.word	0x20000874
 800198c:	20000b08 	.word	0x20000b08
 8001990:	20000928 	.word	0x20000928
 8001994:	20000a54 	.word	0x20000a54
 8001998:	20000708 	.word	0x20000708
 800199c:	200005a0 	.word	0x200005a0
 80019a0:	20000654 	.word	0x20000654
 80019a4:	200007bc 	.word	0x200007bc
 80019a8:	2000020c 	.word	0x2000020c
 80019ac:	20000204 	.word	0x20000204
 80019b0:	20000208 	.word	0x20000208
 80019b4:	20000200 	.word	0x20000200

080019b8 <HAL_TIM_IC_CaptureCallback>:
 80019b8:	4b07      	ldr	r3, [pc, #28]	; (80019d8 <HAL_TIM_IC_CaptureCallback+0x20>)
 80019ba:	4298      	cmp	r0, r3
 80019bc:	d008      	beq.n	80019d0 <HAL_TIM_IC_CaptureCallback+0x18>
 80019be:	4b07      	ldr	r3, [pc, #28]	; (80019dc <HAL_TIM_IC_CaptureCallback+0x24>)
 80019c0:	4298      	cmp	r0, r3
 80019c2:	d005      	beq.n	80019d0 <HAL_TIM_IC_CaptureCallback+0x18>
 80019c4:	4b06      	ldr	r3, [pc, #24]	; (80019e0 <HAL_TIM_IC_CaptureCallback+0x28>)
 80019c6:	4298      	cmp	r0, r3
 80019c8:	d002      	beq.n	80019d0 <HAL_TIM_IC_CaptureCallback+0x18>
 80019ca:	4b06      	ldr	r3, [pc, #24]	; (80019e4 <HAL_TIM_IC_CaptureCallback+0x2c>)
 80019cc:	4298      	cmp	r0, r3
 80019ce:	d101      	bne.n	80019d4 <HAL_TIM_IC_CaptureCallback+0x1c>
 80019d0:	f004 b8ca 	b.w	8005b68 <DRV_updateEncoder>
 80019d4:	4770      	bx	lr
 80019d6:	bf00      	nop
 80019d8:	20000a54 	.word	0x20000a54
 80019dc:	20000708 	.word	0x20000708
 80019e0:	200005a0 	.word	0x200005a0
 80019e4:	20000654 	.word	0x20000654

080019e8 <HAL_TIM_PeriodElapsedCallback>:
 80019e8:	4b02      	ldr	r3, [pc, #8]	; (80019f4 <HAL_TIM_PeriodElapsedCallback+0xc>)
 80019ea:	4283      	cmp	r3, r0
 80019ec:	d101      	bne.n	80019f2 <HAL_TIM_PeriodElapsedCallback+0xa>
 80019ee:	f004 bd69 	b.w	80064c4 <LED_update>
 80019f2:	4770      	bx	lr
 80019f4:	20000928 	.word	0x20000928

080019f8 <HAL_UART_TxCpltCallback>:
 80019f8:	4770      	bx	lr
	...

080019fc <HAL_UART_RxCpltCallback>:
 80019fc:	4b05      	ldr	r3, [pc, #20]	; (8001a14 <HAL_UART_RxCpltCallback+0x18>)
 80019fe:	4298      	cmp	r0, r3
 8001a00:	d101      	bne.n	8001a06 <HAL_UART_RxCpltCallback+0xa>
 8001a02:	f003 bf3f 	b.w	8005884 <CON_receiveData>
 8001a06:	4b04      	ldr	r3, [pc, #16]	; (8001a18 <HAL_UART_RxCpltCallback+0x1c>)
 8001a08:	4298      	cmp	r0, r3
 8001a0a:	d101      	bne.n	8001a10 <HAL_UART_RxCpltCallback+0x14>
 8001a0c:	f004 bdce 	b.w	80065ac <MAS_receiveData>
 8001a10:	4770      	bx	lr
 8001a12:	bf00      	nop
 8001a14:	200007ec 	.word	0x200007ec
 8001a18:	200009e0 	.word	0x200009e0

08001a1c <assert_failed>:
 8001a1c:	4770      	bx	lr
	...

08001a20 <HAL_MspInit>:
 8001a20:	4b0e      	ldr	r3, [pc, #56]	; (8001a5c <HAL_MspInit+0x3c>)
 8001a22:	b082      	sub	sp, #8
 8001a24:	699a      	ldr	r2, [r3, #24]
 8001a26:	f042 0201 	orr.w	r2, r2, #1
 8001a2a:	619a      	str	r2, [r3, #24]
 8001a2c:	699a      	ldr	r2, [r3, #24]
 8001a2e:	f002 0201 	and.w	r2, r2, #1
 8001a32:	9200      	str	r2, [sp, #0]
 8001a34:	9a00      	ldr	r2, [sp, #0]
 8001a36:	69da      	ldr	r2, [r3, #28]
 8001a38:	f042 5280 	orr.w	r2, r2, #268435456	; 0x10000000
 8001a3c:	61da      	str	r2, [r3, #28]
 8001a3e:	69db      	ldr	r3, [r3, #28]
 8001a40:	4a07      	ldr	r2, [pc, #28]	; (8001a60 <HAL_MspInit+0x40>)
 8001a42:	f003 5380 	and.w	r3, r3, #268435456	; 0x10000000
 8001a46:	9301      	str	r3, [sp, #4]
 8001a48:	9b01      	ldr	r3, [sp, #4]
 8001a4a:	6853      	ldr	r3, [r2, #4]
 8001a4c:	f023 63e0 	bic.w	r3, r3, #117440512	; 0x7000000
 8001a50:	f043 7300 	orr.w	r3, r3, #33554432	; 0x2000000
 8001a54:	6053      	str	r3, [r2, #4]
 8001a56:	b002      	add	sp, #8
 8001a58:	4770      	bx	lr
 8001a5a:	bf00      	nop
 8001a5c:	40021000 	.word	0x40021000
 8001a60:	40010000 	.word	0x40010000

08001a64 <HAL_ADC_MspInit>:
 8001a64:	b510      	push	{r4, lr}
 8001a66:	4604      	mov	r4, r0
 8001a68:	b086      	sub	sp, #24
 8001a6a:	2210      	movs	r2, #16
 8001a6c:	2100      	movs	r1, #0
 8001a6e:	a802      	add	r0, sp, #8
 8001a70:	f004 ffc4 	bl	80069fc <memset>
 8001a74:	6822      	ldr	r2, [r4, #0]
 8001a76:	4b10      	ldr	r3, [pc, #64]	; (8001ab8 <HAL_ADC_MspInit+0x54>)
 8001a78:	429a      	cmp	r2, r3
 8001a7a:	d11b      	bne.n	8001ab4 <HAL_ADC_MspInit+0x50>
 8001a7c:	f503 436c 	add.w	r3, r3, #60416	; 0xec00
 8001a80:	699a      	ldr	r2, [r3, #24]
 8001a82:	480e      	ldr	r0, [pc, #56]	; (8001abc <HAL_ADC_MspInit+0x58>)
 8001a84:	f442 7200 	orr.w	r2, r2, #512	; 0x200
 8001a88:	619a      	str	r2, [r3, #24]
 8001a8a:	699a      	ldr	r2, [r3, #24]
 8001a8c:	a902      	add	r1, sp, #8
 8001a8e:	f402 7200 	and.w	r2, r2, #512	; 0x200
 8001a92:	9200      	str	r2, [sp, #0]
 8001a94:	9a00      	ldr	r2, [sp, #0]
 8001a96:	699a      	ldr	r2, [r3, #24]
 8001a98:	f042 0204 	orr.w	r2, r2, #4
 8001a9c:	619a      	str	r2, [r3, #24]
 8001a9e:	699b      	ldr	r3, [r3, #24]
 8001aa0:	2220      	movs	r2, #32
 8001aa2:	f003 0304 	and.w	r3, r3, #4
 8001aa6:	9301      	str	r3, [sp, #4]
 8001aa8:	9b01      	ldr	r3, [sp, #4]
 8001aaa:	2303      	movs	r3, #3
 8001aac:	e9cd 2302 	strd	r2, r3, [sp, #8]
 8001ab0:	f000 fdfc 	bl	80026ac <HAL_GPIO_Init>
 8001ab4:	b006      	add	sp, #24
 8001ab6:	bd10      	pop	{r4, pc}
 8001ab8:	40012400 	.word	0x40012400
 8001abc:	40010800 	.word	0x40010800

08001ac0 <HAL_RTC_MspInit>:
 8001ac0:	b507      	push	{r0, r1, r2, lr}
 8001ac2:	4b0b      	ldr	r3, [pc, #44]	; (8001af0 <HAL_RTC_MspInit+0x30>)
 8001ac4:	6802      	ldr	r2, [r0, #0]
 8001ac6:	429a      	cmp	r2, r3
 8001ac8:	d10e      	bne.n	8001ae8 <HAL_RTC_MspInit+0x28>
 8001aca:	f000 ff9b 	bl	8002a04 <HAL_PWR_EnableBkUpAccess>
 8001ace:	4b09      	ldr	r3, [pc, #36]	; (8001af4 <HAL_RTC_MspInit+0x34>)
 8001ad0:	69da      	ldr	r2, [r3, #28]
 8001ad2:	f042 6200 	orr.w	r2, r2, #134217728	; 0x8000000
 8001ad6:	61da      	str	r2, [r3, #28]
 8001ad8:	2201      	movs	r2, #1
 8001ada:	69db      	ldr	r3, [r3, #28]
 8001adc:	f003 6300 	and.w	r3, r3, #134217728	; 0x8000000
 8001ae0:	9301      	str	r3, [sp, #4]
 8001ae2:	9b01      	ldr	r3, [sp, #4]
 8001ae4:	4b04      	ldr	r3, [pc, #16]	; (8001af8 <HAL_RTC_MspInit+0x38>)
 8001ae6:	601a      	str	r2, [r3, #0]
 8001ae8:	b003      	add	sp, #12
 8001aea:	f85d fb04 	ldr.w	pc, [sp], #4
 8001aee:	bf00      	nop
 8001af0:	40002800 	.word	0x40002800
 8001af4:	40021000 	.word	0x40021000
 8001af8:	4242043c 	.word	0x4242043c

08001afc <HAL_TIM_Base_MspInit>:
 8001afc:	b51f      	push	{r0, r1, r2, r3, r4, lr}
 8001afe:	6803      	ldr	r3, [r0, #0]
 8001b00:	4a21      	ldr	r2, [pc, #132]	; (8001b88 <HAL_TIM_Base_MspInit+0x8c>)
 8001b02:	4293      	cmp	r3, r2
 8001b04:	d114      	bne.n	8001b30 <HAL_TIM_Base_MspInit+0x34>
 8001b06:	4b21      	ldr	r3, [pc, #132]	; (8001b8c <HAL_TIM_Base_MspInit+0x90>)
 8001b08:	2106      	movs	r1, #6
 8001b0a:	699a      	ldr	r2, [r3, #24]
 8001b0c:	2019      	movs	r0, #25
 8001b0e:	f442 6200 	orr.w	r2, r2, #2048	; 0x800
 8001b12:	619a      	str	r2, [r3, #24]
 8001b14:	699b      	ldr	r3, [r3, #24]
 8001b16:	2200      	movs	r2, #0
 8001b18:	f403 6300 	and.w	r3, r3, #2048	; 0x800
 8001b1c:	9300      	str	r3, [sp, #0]
 8001b1e:	9b00      	ldr	r3, [sp, #0]
 8001b20:	f000 fc9a 	bl	8002458 <HAL_NVIC_SetPriority>
 8001b24:	2019      	movs	r0, #25
 8001b26:	b005      	add	sp, #20
 8001b28:	f85d eb04 	ldr.w	lr, [sp], #4
 8001b2c:	f000 bcd8 	b.w	80024e0 <HAL_NVIC_EnableIRQ>
 8001b30:	4a17      	ldr	r2, [pc, #92]	; (8001b90 <HAL_TIM_Base_MspInit+0x94>)
 8001b32:	4293      	cmp	r3, r2
 8001b34:	d10c      	bne.n	8001b50 <HAL_TIM_Base_MspInit+0x54>
 8001b36:	4b15      	ldr	r3, [pc, #84]	; (8001b8c <HAL_TIM_Base_MspInit+0x90>)
 8001b38:	69da      	ldr	r2, [r3, #28]
 8001b3a:	f042 0210 	orr.w	r2, r2, #16
 8001b3e:	61da      	str	r2, [r3, #28]
 8001b40:	69db      	ldr	r3, [r3, #28]
 8001b42:	f003 0310 	and.w	r3, r3, #16
 8001b46:	9301      	str	r3, [sp, #4]
 8001b48:	9b01      	ldr	r3, [sp, #4]
 8001b4a:	b005      	add	sp, #20
 8001b4c:	f85d fb04 	ldr.w	pc, [sp], #4
 8001b50:	4a10      	ldr	r2, [pc, #64]	; (8001b94 <HAL_TIM_Base_MspInit+0x98>)
 8001b52:	4293      	cmp	r3, r2
 8001b54:	d10a      	bne.n	8001b6c <HAL_TIM_Base_MspInit+0x70>
 8001b56:	4b0d      	ldr	r3, [pc, #52]	; (8001b8c <HAL_TIM_Base_MspInit+0x90>)
 8001b58:	69da      	ldr	r2, [r3, #28]
 8001b5a:	f042 0220 	orr.w	r2, r2, #32
 8001b5e:	61da      	str	r2, [r3, #28]
 8001b60:	69db      	ldr	r3, [r3, #28]
 8001b62:	f003 0320 	and.w	r3, r3, #32
 8001b66:	9302      	str	r3, [sp, #8]
 8001b68:	9b02      	ldr	r3, [sp, #8]
 8001b6a:	e7ee      	b.n	8001b4a <HAL_TIM_Base_MspInit+0x4e>
 8001b6c:	4a0a      	ldr	r2, [pc, #40]	; (8001b98 <HAL_TIM_Base_MspInit+0x9c>)
 8001b6e:	4293      	cmp	r3, r2
 8001b70:	d1eb      	bne.n	8001b4a <HAL_TIM_Base_MspInit+0x4e>
 8001b72:	4b06      	ldr	r3, [pc, #24]	; (8001b8c <HAL_TIM_Base_MspInit+0x90>)
 8001b74:	699a      	ldr	r2, [r3, #24]
 8001b76:	f442 5200 	orr.w	r2, r2, #8192	; 0x2000
 8001b7a:	619a      	str	r2, [r3, #24]
 8001b7c:	699b      	ldr	r3, [r3, #24]
 8001b7e:	f403 5300 	and.w	r3, r3, #8192	; 0x2000
 8001b82:	9303      	str	r3, [sp, #12]
 8001b84:	9b03      	ldr	r3, [sp, #12]
 8001b86:	e7e0      	b.n	8001b4a <HAL_TIM_Base_MspInit+0x4e>
 8001b88:	40012c00 	.word	0x40012c00
 8001b8c:	40021000 	.word	0x40021000
 8001b90:	40001000 	.word	0x40001000
 8001b94:	40001400 	.word	0x40001400
 8001b98:	40013400 	.word	0x40013400

08001b9c <HAL_TIM_Encoder_MspInit>:
 8001b9c:	b510      	push	{r4, lr}
 8001b9e:	4604      	mov	r4, r0
 8001ba0:	b08e      	sub	sp, #56	; 0x38
 8001ba2:	2210      	movs	r2, #16
 8001ba4:	2100      	movs	r1, #0
 8001ba6:	a80a      	add	r0, sp, #40	; 0x28
 8001ba8:	f004 ff28 	bl	80069fc <memset>
 8001bac:	6823      	ldr	r3, [r4, #0]
 8001bae:	f1b3 4f80 	cmp.w	r3, #1073741824	; 0x40000000
 8001bb2:	d141      	bne.n	8001c38 <HAL_TIM_Encoder_MspInit+0x9c>
 8001bb4:	f503 3304 	add.w	r3, r3, #135168	; 0x21000
 8001bb8:	69da      	ldr	r2, [r3, #28]
 8001bba:	2400      	movs	r4, #0
 8001bbc:	f042 0201 	orr.w	r2, r2, #1
 8001bc0:	61da      	str	r2, [r3, #28]
 8001bc2:	69da      	ldr	r2, [r3, #28]
 8001bc4:	4855      	ldr	r0, [pc, #340]	; (8001d1c <HAL_TIM_Encoder_MspInit+0x180>)
 8001bc6:	f002 0201 	and.w	r2, r2, #1
 8001bca:	9201      	str	r2, [sp, #4]
 8001bcc:	9a01      	ldr	r2, [sp, #4]
 8001bce:	699a      	ldr	r2, [r3, #24]
 8001bd0:	a90a      	add	r1, sp, #40	; 0x28
 8001bd2:	f042 0204 	orr.w	r2, r2, #4
 8001bd6:	619a      	str	r2, [r3, #24]
 8001bd8:	699a      	ldr	r2, [r3, #24]
 8001bda:	f002 0204 	and.w	r2, r2, #4
 8001bde:	9202      	str	r2, [sp, #8]
 8001be0:	9a02      	ldr	r2, [sp, #8]
 8001be2:	699a      	ldr	r2, [r3, #24]
 8001be4:	f042 0208 	orr.w	r2, r2, #8
 8001be8:	619a      	str	r2, [r3, #24]
 8001bea:	699b      	ldr	r3, [r3, #24]
 8001bec:	940c      	str	r4, [sp, #48]	; 0x30
 8001bee:	f003 0308 	and.w	r3, r3, #8
 8001bf2:	9303      	str	r3, [sp, #12]
 8001bf4:	9b03      	ldr	r3, [sp, #12]
 8001bf6:	f44f 4300 	mov.w	r3, #32768	; 0x8000
 8001bfa:	e9cd 340a 	strd	r3, r4, [sp, #40]	; 0x28
 8001bfe:	f000 fd55 	bl	80026ac <HAL_GPIO_Init>
 8001c02:	2308      	movs	r3, #8
 8001c04:	4846      	ldr	r0, [pc, #280]	; (8001d20 <HAL_TIM_Encoder_MspInit+0x184>)
 8001c06:	a90a      	add	r1, sp, #40	; 0x28
 8001c08:	e9cd 340a 	strd	r3, r4, [sp, #40]	; 0x28
 8001c0c:	940c      	str	r4, [sp, #48]	; 0x30
 8001c0e:	f000 fd4d 	bl	80026ac <HAL_GPIO_Init>
 8001c12:	4a44      	ldr	r2, [pc, #272]	; (8001d24 <HAL_TIM_Encoder_MspInit+0x188>)
 8001c14:	201c      	movs	r0, #28
 8001c16:	6853      	ldr	r3, [r2, #4]
 8001c18:	2104      	movs	r1, #4
 8001c1a:	f423 7340 	bic.w	r3, r3, #768	; 0x300
 8001c1e:	f043 63e0 	orr.w	r3, r3, #117440512	; 0x7000000
 8001c22:	f443 7380 	orr.w	r3, r3, #256	; 0x100
 8001c26:	6053      	str	r3, [r2, #4]
 8001c28:	4622      	mov	r2, r4
 8001c2a:	f000 fc15 	bl	8002458 <HAL_NVIC_SetPriority>
 8001c2e:	201c      	movs	r0, #28
 8001c30:	f000 fc56 	bl	80024e0 <HAL_NVIC_EnableIRQ>
 8001c34:	b00e      	add	sp, #56	; 0x38
 8001c36:	bd10      	pop	{r4, pc}
 8001c38:	4a3b      	ldr	r2, [pc, #236]	; (8001d28 <HAL_TIM_Encoder_MspInit+0x18c>)
 8001c3a:	4293      	cmp	r3, r2
 8001c3c:	d122      	bne.n	8001c84 <HAL_TIM_Encoder_MspInit+0xe8>
 8001c3e:	4b3b      	ldr	r3, [pc, #236]	; (8001d2c <HAL_TIM_Encoder_MspInit+0x190>)
 8001c40:	2400      	movs	r4, #0
 8001c42:	69da      	ldr	r2, [r3, #28]
 8001c44:	4835      	ldr	r0, [pc, #212]	; (8001d1c <HAL_TIM_Encoder_MspInit+0x180>)
 8001c46:	f042 0202 	orr.w	r2, r2, #2
 8001c4a:	61da      	str	r2, [r3, #28]
 8001c4c:	69da      	ldr	r2, [r3, #28]
 8001c4e:	a90a      	add	r1, sp, #40	; 0x28
 8001c50:	f002 0202 	and.w	r2, r2, #2
 8001c54:	9204      	str	r2, [sp, #16]
 8001c56:	9a04      	ldr	r2, [sp, #16]
 8001c58:	699a      	ldr	r2, [r3, #24]
 8001c5a:	f042 0204 	orr.w	r2, r2, #4
 8001c5e:	619a      	str	r2, [r3, #24]
 8001c60:	699b      	ldr	r3, [r3, #24]
 8001c62:	940c      	str	r4, [sp, #48]	; 0x30
 8001c64:	f003 0304 	and.w	r3, r3, #4
 8001c68:	9305      	str	r3, [sp, #20]
 8001c6a:	9b05      	ldr	r3, [sp, #20]
 8001c6c:	23c0      	movs	r3, #192	; 0xc0
 8001c6e:	e9cd 340a 	strd	r3, r4, [sp, #40]	; 0x28
 8001c72:	f000 fd1b 	bl	80026ac <HAL_GPIO_Init>
 8001c76:	201d      	movs	r0, #29
 8001c78:	4622      	mov	r2, r4
 8001c7a:	2104      	movs	r1, #4
 8001c7c:	f000 fbec 	bl	8002458 <HAL_NVIC_SetPriority>
 8001c80:	201d      	movs	r0, #29
 8001c82:	e7d5      	b.n	8001c30 <HAL_TIM_Encoder_MspInit+0x94>
 8001c84:	4a2a      	ldr	r2, [pc, #168]	; (8001d30 <HAL_TIM_Encoder_MspInit+0x194>)
 8001c86:	4293      	cmp	r3, r2
 8001c88:	d122      	bne.n	8001cd0 <HAL_TIM_Encoder_MspInit+0x134>
 8001c8a:	4b28      	ldr	r3, [pc, #160]	; (8001d2c <HAL_TIM_Encoder_MspInit+0x190>)
 8001c8c:	2400      	movs	r4, #0
 8001c8e:	69da      	ldr	r2, [r3, #28]
 8001c90:	4823      	ldr	r0, [pc, #140]	; (8001d20 <HAL_TIM_Encoder_MspInit+0x184>)
 8001c92:	f042 0204 	orr.w	r2, r2, #4
 8001c96:	61da      	str	r2, [r3, #28]
 8001c98:	69da      	ldr	r2, [r3, #28]
 8001c9a:	a90a      	add	r1, sp, #40	; 0x28
 8001c9c:	f002 0204 	and.w	r2, r2, #4
 8001ca0:	9206      	str	r2, [sp, #24]
 8001ca2:	9a06      	ldr	r2, [sp, #24]
 8001ca4:	699a      	ldr	r2, [r3, #24]
 8001ca6:	f042 0208 	orr.w	r2, r2, #8
 8001caa:	619a      	str	r2, [r3, #24]
 8001cac:	699b      	ldr	r3, [r3, #24]
 8001cae:	940c      	str	r4, [sp, #48]	; 0x30
 8001cb0:	f003 0308 	and.w	r3, r3, #8
 8001cb4:	9307      	str	r3, [sp, #28]
 8001cb6:	9b07      	ldr	r3, [sp, #28]
 8001cb8:	23c0      	movs	r3, #192	; 0xc0
 8001cba:	e9cd 340a 	strd	r3, r4, [sp, #40]	; 0x28
 8001cbe:	f000 fcf5 	bl	80026ac <HAL_GPIO_Init>
 8001cc2:	201e      	movs	r0, #30
 8001cc4:	4622      	mov	r2, r4
 8001cc6:	2104      	movs	r1, #4
 8001cc8:	f000 fbc6 	bl	8002458 <HAL_NVIC_SetPriority>
 8001ccc:	201e      	movs	r0, #30
 8001cce:	e7af      	b.n	8001c30 <HAL_TIM_Encoder_MspInit+0x94>
 8001cd0:	4a18      	ldr	r2, [pc, #96]	; (8001d34 <HAL_TIM_Encoder_MspInit+0x198>)
 8001cd2:	4293      	cmp	r3, r2
 8001cd4:	d1ae      	bne.n	8001c34 <HAL_TIM_Encoder_MspInit+0x98>
 8001cd6:	4b15      	ldr	r3, [pc, #84]	; (8001d2c <HAL_TIM_Encoder_MspInit+0x190>)
 8001cd8:	2400      	movs	r4, #0
 8001cda:	69da      	ldr	r2, [r3, #28]
 8001cdc:	480f      	ldr	r0, [pc, #60]	; (8001d1c <HAL_TIM_Encoder_MspInit+0x180>)
 8001cde:	f042 0208 	orr.w	r2, r2, #8
 8001ce2:	61da      	str	r2, [r3, #28]
 8001ce4:	69da      	ldr	r2, [r3, #28]
 8001ce6:	a90a      	add	r1, sp, #40	; 0x28
 8001ce8:	f002 0208 	and.w	r2, r2, #8
 8001cec:	9208      	str	r2, [sp, #32]
 8001cee:	9a08      	ldr	r2, [sp, #32]
 8001cf0:	699a      	ldr	r2, [r3, #24]
 8001cf2:	f042 0204 	orr.w	r2, r2, #4
 8001cf6:	619a      	str	r2, [r3, #24]
 8001cf8:	699b      	ldr	r3, [r3, #24]
 8001cfa:	940c      	str	r4, [sp, #48]	; 0x30
 8001cfc:	f003 0304 	and.w	r3, r3, #4
 8001d00:	9309      	str	r3, [sp, #36]	; 0x24
 8001d02:	9b09      	ldr	r3, [sp, #36]	; 0x24
 8001d04:	2303      	movs	r3, #3
 8001d06:	e9cd 340a 	strd	r3, r4, [sp, #40]	; 0x28
 8001d0a:	f000 fccf 	bl	80026ac <HAL_GPIO_Init>
 8001d0e:	2032      	movs	r0, #50	; 0x32
 8001d10:	4622      	mov	r2, r4
 8001d12:	2104      	movs	r1, #4
 8001d14:	f000 fba0 	bl	8002458 <HAL_NVIC_SetPriority>
 8001d18:	2032      	movs	r0, #50	; 0x32
 8001d1a:	e789      	b.n	8001c30 <HAL_TIM_Encoder_MspInit+0x94>
 8001d1c:	40010800 	.word	0x40010800
 8001d20:	40010c00 	.word	0x40010c00
 8001d24:	40010000 	.word	0x40010000
 8001d28:	40000400 	.word	0x40000400
 8001d2c:	40021000 	.word	0x40021000
 8001d30:	40000800 	.word	0x40000800
 8001d34:	40000c00 	.word	0x40000c00

08001d38 <HAL_TIM_MspPostInit>:
 8001d38:	b510      	push	{r4, lr}
 8001d3a:	4604      	mov	r4, r0
 8001d3c:	b086      	sub	sp, #24
 8001d3e:	2210      	movs	r2, #16
 8001d40:	2100      	movs	r1, #0
 8001d42:	a802      	add	r0, sp, #8
 8001d44:	f004 fe5a 	bl	80069fc <memset>
 8001d48:	6822      	ldr	r2, [r4, #0]
 8001d4a:	4b0d      	ldr	r3, [pc, #52]	; (8001d80 <HAL_TIM_MspPostInit+0x48>)
 8001d4c:	429a      	cmp	r2, r3
 8001d4e:	d115      	bne.n	8001d7c <HAL_TIM_MspPostInit+0x44>
 8001d50:	f503 435c 	add.w	r3, r3, #56320	; 0xdc00
 8001d54:	699a      	ldr	r2, [r3, #24]
 8001d56:	480b      	ldr	r0, [pc, #44]	; (8001d84 <HAL_TIM_MspPostInit+0x4c>)
 8001d58:	f042 0210 	orr.w	r2, r2, #16
 8001d5c:	619a      	str	r2, [r3, #24]
 8001d5e:	699b      	ldr	r3, [r3, #24]
 8001d60:	f44f 7270 	mov.w	r2, #960	; 0x3c0
 8001d64:	f003 0310 	and.w	r3, r3, #16
 8001d68:	9301      	str	r3, [sp, #4]
 8001d6a:	9b01      	ldr	r3, [sp, #4]
 8001d6c:	2302      	movs	r3, #2
 8001d6e:	e9cd 2302 	strd	r2, r3, [sp, #8]
 8001d72:	2303      	movs	r3, #3
 8001d74:	a902      	add	r1, sp, #8
 8001d76:	9305      	str	r3, [sp, #20]
 8001d78:	f000 fc98 	bl	80026ac <HAL_GPIO_Init>
 8001d7c:	b006      	add	sp, #24
 8001d7e:	bd10      	pop	{r4, pc}
 8001d80:	40013400 	.word	0x40013400
 8001d84:	40011000 	.word	0x40011000

08001d88 <HAL_UART_MspInit>:
 8001d88:	2210      	movs	r2, #16
 8001d8a:	b510      	push	{r4, lr}
 8001d8c:	4604      	mov	r4, r0
 8001d8e:	b088      	sub	sp, #32
 8001d90:	eb0d 0002 	add.w	r0, sp, r2
 8001d94:	2100      	movs	r1, #0
 8001d96:	f004 fe31 	bl	80069fc <memset>
 8001d9a:	6823      	ldr	r3, [r4, #0]
 8001d9c:	4a33      	ldr	r2, [pc, #204]	; (8001e6c <HAL_UART_MspInit+0xe4>)
 8001d9e:	4293      	cmp	r3, r2
 8001da0:	d131      	bne.n	8001e06 <HAL_UART_MspInit+0x7e>
 8001da2:	4b33      	ldr	r3, [pc, #204]	; (8001e70 <HAL_UART_MspInit+0xe8>)
 8001da4:	f44f 6180 	mov.w	r1, #1024	; 0x400
 8001da8:	69da      	ldr	r2, [r3, #28]
 8001daa:	4832      	ldr	r0, [pc, #200]	; (8001e74 <HAL_UART_MspInit+0xec>)
 8001dac:	f442 2200 	orr.w	r2, r2, #524288	; 0x80000
 8001db0:	61da      	str	r2, [r3, #28]
 8001db2:	69da      	ldr	r2, [r3, #28]
 8001db4:	2400      	movs	r4, #0
 8001db6:	f402 2200 	and.w	r2, r2, #524288	; 0x80000
 8001dba:	9200      	str	r2, [sp, #0]
 8001dbc:	9a00      	ldr	r2, [sp, #0]
 8001dbe:	699a      	ldr	r2, [r3, #24]
 8001dc0:	f042 0210 	orr.w	r2, r2, #16
 8001dc4:	619a      	str	r2, [r3, #24]
 8001dc6:	699b      	ldr	r3, [r3, #24]
 8001dc8:	f003 0310 	and.w	r3, r3, #16
 8001dcc:	9301      	str	r3, [sp, #4]
 8001dce:	9b01      	ldr	r3, [sp, #4]
 8001dd0:	2302      	movs	r3, #2
 8001dd2:	e9cd 1304 	strd	r1, r3, [sp, #16]
 8001dd6:	2303      	movs	r3, #3
 8001dd8:	a904      	add	r1, sp, #16
 8001dda:	9307      	str	r3, [sp, #28]
 8001ddc:	f000 fc66 	bl	80026ac <HAL_GPIO_Init>
 8001de0:	f44f 6300 	mov.w	r3, #2048	; 0x800
 8001de4:	4823      	ldr	r0, [pc, #140]	; (8001e74 <HAL_UART_MspInit+0xec>)
 8001de6:	a904      	add	r1, sp, #16
 8001de8:	e9cd 3404 	strd	r3, r4, [sp, #16]
 8001dec:	9406      	str	r4, [sp, #24]
 8001dee:	f000 fc5d 	bl	80026ac <HAL_GPIO_Init>
 8001df2:	2034      	movs	r0, #52	; 0x34
 8001df4:	4622      	mov	r2, r4
 8001df6:	2105      	movs	r1, #5
 8001df8:	f000 fb2e 	bl	8002458 <HAL_NVIC_SetPriority>
 8001dfc:	2034      	movs	r0, #52	; 0x34
 8001dfe:	f000 fb6f 	bl	80024e0 <HAL_NVIC_EnableIRQ>
 8001e02:	b008      	add	sp, #32
 8001e04:	bd10      	pop	{r4, pc}
 8001e06:	4a1c      	ldr	r2, [pc, #112]	; (8001e78 <HAL_UART_MspInit+0xf0>)
 8001e08:	4293      	cmp	r3, r2
 8001e0a:	d1fa      	bne.n	8001e02 <HAL_UART_MspInit+0x7a>
 8001e0c:	4b18      	ldr	r3, [pc, #96]	; (8001e70 <HAL_UART_MspInit+0xe8>)
 8001e0e:	481b      	ldr	r0, [pc, #108]	; (8001e7c <HAL_UART_MspInit+0xf4>)
 8001e10:	699a      	ldr	r2, [r3, #24]
 8001e12:	a904      	add	r1, sp, #16
 8001e14:	f442 4280 	orr.w	r2, r2, #16384	; 0x4000
 8001e18:	619a      	str	r2, [r3, #24]
 8001e1a:	699a      	ldr	r2, [r3, #24]
 8001e1c:	2400      	movs	r4, #0
 8001e1e:	f402 4280 	and.w	r2, r2, #16384	; 0x4000
 8001e22:	9202      	str	r2, [sp, #8]
 8001e24:	9a02      	ldr	r2, [sp, #8]
 8001e26:	699a      	ldr	r2, [r3, #24]
 8001e28:	f042 0204 	orr.w	r2, r2, #4
 8001e2c:	619a      	str	r2, [r3, #24]
 8001e2e:	699b      	ldr	r3, [r3, #24]
 8001e30:	f44f 7200 	mov.w	r2, #512	; 0x200
 8001e34:	f003 0304 	and.w	r3, r3, #4
 8001e38:	9303      	str	r3, [sp, #12]
 8001e3a:	9b03      	ldr	r3, [sp, #12]
 8001e3c:	2302      	movs	r3, #2
 8001e3e:	e9cd 2304 	strd	r2, r3, [sp, #16]
 8001e42:	2303      	movs	r3, #3
 8001e44:	9307      	str	r3, [sp, #28]
 8001e46:	f000 fc31 	bl	80026ac <HAL_GPIO_Init>
 8001e4a:	f44f 6380 	mov.w	r3, #1024	; 0x400
 8001e4e:	480b      	ldr	r0, [pc, #44]	; (8001e7c <HAL_UART_MspInit+0xf4>)
 8001e50:	a904      	add	r1, sp, #16
 8001e52:	e9cd 3404 	strd	r3, r4, [sp, #16]
 8001e56:	9406      	str	r4, [sp, #24]
 8001e58:	f000 fc28 	bl	80026ac <HAL_GPIO_Init>
 8001e5c:	2025      	movs	r0, #37	; 0x25
 8001e5e:	4622      	mov	r2, r4
 8001e60:	2105      	movs	r1, #5
 8001e62:	f000 faf9 	bl	8002458 <HAL_NVIC_SetPriority>
 8001e66:	2025      	movs	r0, #37	; 0x25
 8001e68:	e7c9      	b.n	8001dfe <HAL_UART_MspInit+0x76>
 8001e6a:	bf00      	nop
 8001e6c:	40004c00 	.word	0x40004c00
 8001e70:	40021000 	.word	0x40021000
 8001e74:	40011000 	.word	0x40011000
 8001e78:	40013800 	.word	0x40013800
 8001e7c:	40010800 	.word	0x40010800

08001e80 <NMI_Handler>:
 8001e80:	e7fe      	b.n	8001e80 <NMI_Handler>

08001e82 <HardFault_Handler>:
 8001e82:	e7fe      	b.n	8001e82 <HardFault_Handler>

08001e84 <MemManage_Handler>:
 8001e84:	e7fe      	b.n	8001e84 <MemManage_Handler>

08001e86 <BusFault_Handler>:
 8001e86:	e7fe      	b.n	8001e86 <BusFault_Handler>

08001e88 <UsageFault_Handler>:
 8001e88:	e7fe      	b.n	8001e88 <UsageFault_Handler>

08001e8a <SVC_Handler>:
 8001e8a:	4770      	bx	lr

08001e8c <DebugMon_Handler>:
 8001e8c:	4770      	bx	lr

08001e8e <PendSV_Handler>:
 8001e8e:	4770      	bx	lr

08001e90 <SysTick_Handler>:
 8001e90:	f000 b8ee 	b.w	8002070 <HAL_IncTick>

08001e94 <TIM1_UP_IRQHandler>:
 8001e94:	4801      	ldr	r0, [pc, #4]	; (8001e9c <TIM1_UP_IRQHandler+0x8>)
 8001e96:	f001 bf55 	b.w	8003d44 <HAL_TIM_IRQHandler>
 8001e9a:	bf00      	nop
 8001e9c:	20000928 	.word	0x20000928

08001ea0 <TIM2_IRQHandler>:
 8001ea0:	4801      	ldr	r0, [pc, #4]	; (8001ea8 <TIM2_IRQHandler+0x8>)
 8001ea2:	f001 bf4f 	b.w	8003d44 <HAL_TIM_IRQHandler>
 8001ea6:	bf00      	nop
 8001ea8:	20000a54 	.word	0x20000a54

08001eac <TIM3_IRQHandler>:
 8001eac:	4801      	ldr	r0, [pc, #4]	; (8001eb4 <TIM3_IRQHandler+0x8>)
 8001eae:	f001 bf49 	b.w	8003d44 <HAL_TIM_IRQHandler>
 8001eb2:	bf00      	nop
 8001eb4:	20000708 	.word	0x20000708

08001eb8 <TIM4_IRQHandler>:
 8001eb8:	4801      	ldr	r0, [pc, #4]	; (8001ec0 <TIM4_IRQHandler+0x8>)
 8001eba:	f001 bf43 	b.w	8003d44 <HAL_TIM_IRQHandler>
 8001ebe:	bf00      	nop
 8001ec0:	200005a0 	.word	0x200005a0

08001ec4 <USART1_IRQHandler>:
 8001ec4:	4801      	ldr	r0, [pc, #4]	; (8001ecc <USART1_IRQHandler+0x8>)
 8001ec6:	f003 b979 	b.w	80051bc <HAL_UART_IRQHandler>
 8001eca:	bf00      	nop
 8001ecc:	200007ec 	.word	0x200007ec

08001ed0 <TIM5_IRQHandler>:
 8001ed0:	4801      	ldr	r0, [pc, #4]	; (8001ed8 <TIM5_IRQHandler+0x8>)
 8001ed2:	f001 bf37 	b.w	8003d44 <HAL_TIM_IRQHandler>
 8001ed6:	bf00      	nop
 8001ed8:	20000654 	.word	0x20000654

08001edc <UART4_IRQHandler>:
 8001edc:	4801      	ldr	r0, [pc, #4]	; (8001ee4 <UART4_IRQHandler+0x8>)
 8001ede:	f003 b96d 	b.w	80051bc <HAL_UART_IRQHandler>
 8001ee2:	bf00      	nop
 8001ee4:	200009e0 	.word	0x200009e0

08001ee8 <_getpid>:
 8001ee8:	2001      	movs	r0, #1
 8001eea:	4770      	bx	lr

08001eec <_kill>:
 8001eec:	b508      	push	{r3, lr}
 8001eee:	f004 fd4b 	bl	8006988 <__errno>
 8001ef2:	2316      	movs	r3, #22
 8001ef4:	6003      	str	r3, [r0, #0]
 8001ef6:	f04f 30ff 	mov.w	r0, #4294967295
 8001efa:	bd08      	pop	{r3, pc}

08001efc <_exit>:
 8001efc:	b508      	push	{r3, lr}
 8001efe:	f004 fd43 	bl	8006988 <__errno>
 8001f02:	2316      	movs	r3, #22
 8001f04:	6003      	str	r3, [r0, #0]
 8001f06:	e7fe      	b.n	8001f06 <_exit+0xa>

08001f08 <_read>:
 8001f08:	b570      	push	{r4, r5, r6, lr}
 8001f0a:	460e      	mov	r6, r1
 8001f0c:	4614      	mov	r4, r2
 8001f0e:	2500      	movs	r5, #0
 8001f10:	42a5      	cmp	r5, r4
 8001f12:	db01      	blt.n	8001f18 <_read+0x10>
 8001f14:	4620      	mov	r0, r4
 8001f16:	bd70      	pop	{r4, r5, r6, pc}
 8001f18:	f3af 8000 	nop.w
 8001f1c:	5570      	strb	r0, [r6, r5]
 8001f1e:	3501      	adds	r5, #1
 8001f20:	e7f6      	b.n	8001f10 <_read+0x8>
	...

08001f24 <_write>:
 8001f24:	4603      	mov	r3, r0
 8001f26:	3b01      	subs	r3, #1
 8001f28:	2b01      	cmp	r3, #1
 8001f2a:	b510      	push	{r4, lr}
 8001f2c:	4608      	mov	r0, r1
 8001f2e:	4614      	mov	r4, r2
 8001f30:	d907      	bls.n	8001f42 <_write+0x1e>
 8001f32:	f004 fd29 	bl	8006988 <__errno>
 8001f36:	2309      	movs	r3, #9
 8001f38:	f04f 34ff 	mov.w	r4, #4294967295
 8001f3c:	6003      	str	r3, [r0, #0]
 8001f3e:	4620      	mov	r0, r4
 8001f40:	bd10      	pop	{r4, pc}
 8001f42:	4b05      	ldr	r3, [pc, #20]	; (8001f58 <_write+0x34>)
 8001f44:	4611      	mov	r1, r2
 8001f46:	781b      	ldrb	r3, [r3, #0]
 8001f48:	b913      	cbnz	r3, 8001f50 <_write+0x2c>
 8001f4a:	f003 fcd1 	bl	80058f0 <CON_sendString>
 8001f4e:	e7f6      	b.n	8001f3e <_write+0x1a>
 8001f50:	f004 fb62 	bl	8006618 <MAS_sendString>
 8001f54:	e7f3      	b.n	8001f3e <_write+0x1a>
 8001f56:	bf00      	nop
 8001f58:	200009dc 	.word	0x200009dc

08001f5c <_close>:
 8001f5c:	f04f 30ff 	mov.w	r0, #4294967295
 8001f60:	4770      	bx	lr

08001f62 <_fstat>:
 8001f62:	f44f 5300 	mov.w	r3, #8192	; 0x2000
 8001f66:	2000      	movs	r0, #0
 8001f68:	604b      	str	r3, [r1, #4]
 8001f6a:	4770      	bx	lr

08001f6c <_isatty>:
 8001f6c:	2001      	movs	r0, #1
 8001f6e:	4770      	bx	lr

08001f70 <_lseek>:
 8001f70:	2000      	movs	r0, #0
 8001f72:	4770      	bx	lr

08001f74 <_sbrk>:
 8001f74:	4b0b      	ldr	r3, [pc, #44]	; (8001fa4 <_sbrk+0x30>)
 8001f76:	4602      	mov	r2, r0
 8001f78:	6819      	ldr	r1, [r3, #0]
 8001f7a:	b510      	push	{r4, lr}
 8001f7c:	b909      	cbnz	r1, 8001f82 <_sbrk+0xe>
 8001f7e:	490a      	ldr	r1, [pc, #40]	; (8001fa8 <_sbrk+0x34>)
 8001f80:	6019      	str	r1, [r3, #0]
 8001f82:	6818      	ldr	r0, [r3, #0]
 8001f84:	4909      	ldr	r1, [pc, #36]	; (8001fac <_sbrk+0x38>)
 8001f86:	4c0a      	ldr	r4, [pc, #40]	; (8001fb0 <_sbrk+0x3c>)
 8001f88:	4402      	add	r2, r0
 8001f8a:	1b09      	subs	r1, r1, r4
 8001f8c:	428a      	cmp	r2, r1
 8001f8e:	d906      	bls.n	8001f9e <_sbrk+0x2a>
 8001f90:	f004 fcfa 	bl	8006988 <__errno>
 8001f94:	230c      	movs	r3, #12
 8001f96:	6003      	str	r3, [r0, #0]
 8001f98:	f04f 30ff 	mov.w	r0, #4294967295
 8001f9c:	bd10      	pop	{r4, pc}
 8001f9e:	601a      	str	r2, [r3, #0]
 8001fa0:	e7fc      	b.n	8001f9c <_sbrk+0x28>
 8001fa2:	bf00      	nop
 8001fa4:	20000218 	.word	0x20000218
 8001fa8:	20000bd0 	.word	0x20000bd0
 8001fac:	2000c000 	.word	0x2000c000
 8001fb0:	00000400 	.word	0x00000400

08001fb4 <SystemInit>:
 8001fb4:	4770      	bx	lr
	...

08001fb8 <Reset_Handler>:
 8001fb8:	480c      	ldr	r0, [pc, #48]	; (8001fec <LoopFillZerobss+0x12>)
 8001fba:	490d      	ldr	r1, [pc, #52]	; (8001ff0 <LoopFillZerobss+0x16>)
 8001fbc:	4a0d      	ldr	r2, [pc, #52]	; (8001ff4 <LoopFillZerobss+0x1a>)
 8001fbe:	2300      	movs	r3, #0
 8001fc0:	e002      	b.n	8001fc8 <LoopCopyDataInit>

08001fc2 <CopyDataInit>:
 8001fc2:	58d4      	ldr	r4, [r2, r3]
 8001fc4:	50c4      	str	r4, [r0, r3]
 8001fc6:	3304      	adds	r3, #4

08001fc8 <LoopCopyDataInit>:
 8001fc8:	18c4      	adds	r4, r0, r3
 8001fca:	428c      	cmp	r4, r1
 8001fcc:	d3f9      	bcc.n	8001fc2 <CopyDataInit>
 8001fce:	4a0a      	ldr	r2, [pc, #40]	; (8001ff8 <LoopFillZerobss+0x1e>)
 8001fd0:	4c0a      	ldr	r4, [pc, #40]	; (8001ffc <LoopFillZerobss+0x22>)
 8001fd2:	2300      	movs	r3, #0
 8001fd4:	e001      	b.n	8001fda <LoopFillZerobss>

08001fd6 <FillZerobss>:
 8001fd6:	6013      	str	r3, [r2, #0]
 8001fd8:	3204      	adds	r2, #4

08001fda <LoopFillZerobss>:
 8001fda:	42a2      	cmp	r2, r4
 8001fdc:	d3fb      	bcc.n	8001fd6 <FillZerobss>
 8001fde:	f7ff ffe9 	bl	8001fb4 <SystemInit>
 8001fe2:	f004 fcd7 	bl	8006994 <__libc_init_array>
 8001fe6:	f7ff f905 	bl	80011f4 <main>
 8001fea:	4770      	bx	lr
 8001fec:	20000000 	.word	0x20000000
 8001ff0:	200001e4 	.word	0x200001e4
 8001ff4:	0800a28c 	.word	0x0800a28c
 8001ff8:	200001e4 	.word	0x200001e4
 8001ffc:	20000bd0 	.word	0x20000bd0

08002000 <ADC1_2_IRQHandler>:
 8002000:	e7fe      	b.n	8002000 <ADC1_2_IRQHandler>
	...

08002004 <HAL_InitTick>:
 8002004:	b538      	push	{r3, r4, r5, lr}
 8002006:	4b0e      	ldr	r3, [pc, #56]	; (8002040 <HAL_InitTick+0x3c>)
 8002008:	4605      	mov	r5, r0
 800200a:	7818      	ldrb	r0, [r3, #0]
 800200c:	f44f 737a 	mov.w	r3, #1000	; 0x3e8
 8002010:	fbb3 f3f0 	udiv	r3, r3, r0
 8002014:	4a0b      	ldr	r2, [pc, #44]	; (8002044 <HAL_InitTick+0x40>)
 8002016:	6810      	ldr	r0, [r2, #0]
 8002018:	fbb0 f0f3 	udiv	r0, r0, r3
 800201c:	f000 fa74 	bl	8002508 <HAL_SYSTICK_Config>
 8002020:	4604      	mov	r4, r0
 8002022:	b958      	cbnz	r0, 800203c <HAL_InitTick+0x38>
 8002024:	2d0f      	cmp	r5, #15
 8002026:	d809      	bhi.n	800203c <HAL_InitTick+0x38>
 8002028:	4602      	mov	r2, r0
 800202a:	4629      	mov	r1, r5
 800202c:	f04f 30ff 	mov.w	r0, #4294967295
 8002030:	f000 fa12 	bl	8002458 <HAL_NVIC_SetPriority>
 8002034:	4620      	mov	r0, r4
 8002036:	4b04      	ldr	r3, [pc, #16]	; (8002048 <HAL_InitTick+0x44>)
 8002038:	601d      	str	r5, [r3, #0]
 800203a:	bd38      	pop	{r3, r4, r5, pc}
 800203c:	2001      	movs	r0, #1
 800203e:	e7fc      	b.n	800203a <HAL_InitTick+0x36>
 8002040:	20000004 	.word	0x20000004
 8002044:	20000000 	.word	0x20000000
 8002048:	20000008 	.word	0x20000008

0800204c <HAL_Init>:
 800204c:	4a07      	ldr	r2, [pc, #28]	; (800206c <HAL_Init+0x20>)
 800204e:	b508      	push	{r3, lr}
 8002050:	6813      	ldr	r3, [r2, #0]
 8002052:	2003      	movs	r0, #3
 8002054:	f043 0310 	orr.w	r3, r3, #16
 8002058:	6013      	str	r3, [r2, #0]
 800205a:	f000 f9e1 	bl	8002420 <HAL_NVIC_SetPriorityGrouping>
 800205e:	2000      	movs	r0, #0
 8002060:	f7ff ffd0 	bl	8002004 <HAL_InitTick>
 8002064:	f7ff fcdc 	bl	8001a20 <HAL_MspInit>
 8002068:	2000      	movs	r0, #0
 800206a:	bd08      	pop	{r3, pc}
 800206c:	40022000 	.word	0x40022000

08002070 <HAL_IncTick>:
 8002070:	4a03      	ldr	r2, [pc, #12]	; (8002080 <HAL_IncTick+0x10>)
 8002072:	4b04      	ldr	r3, [pc, #16]	; (8002084 <HAL_IncTick+0x14>)
 8002074:	6811      	ldr	r1, [r2, #0]
 8002076:	781b      	ldrb	r3, [r3, #0]
 8002078:	440b      	add	r3, r1
 800207a:	6013      	str	r3, [r2, #0]
 800207c:	4770      	bx	lr
 800207e:	bf00      	nop
 8002080:	20000bbc 	.word	0x20000bbc
 8002084:	20000004 	.word	0x20000004

08002088 <HAL_GetTick>:
 8002088:	4b01      	ldr	r3, [pc, #4]	; (8002090 <HAL_GetTick+0x8>)
 800208a:	6818      	ldr	r0, [r3, #0]
 800208c:	4770      	bx	lr
 800208e:	bf00      	nop
 8002090:	20000bbc 	.word	0x20000bbc

08002094 <HAL_Delay>:
 8002094:	b538      	push	{r3, r4, r5, lr}
 8002096:	4604      	mov	r4, r0
 8002098:	f7ff fff6 	bl	8002088 <HAL_GetTick>
 800209c:	4605      	mov	r5, r0
 800209e:	1c63      	adds	r3, r4, #1
 80020a0:	bf1e      	ittt	ne
 80020a2:	4b04      	ldrne	r3, [pc, #16]	; (80020b4 <HAL_Delay+0x20>)
 80020a4:	781b      	ldrbne	r3, [r3, #0]
 80020a6:	18e4      	addne	r4, r4, r3
 80020a8:	f7ff ffee 	bl	8002088 <HAL_GetTick>
 80020ac:	1b43      	subs	r3, r0, r5
 80020ae:	42a3      	cmp	r3, r4
 80020b0:	d3fa      	bcc.n	80020a8 <HAL_Delay+0x14>
 80020b2:	bd38      	pop	{r3, r4, r5, pc}
 80020b4:	20000004 	.word	0x20000004

080020b8 <HAL_ADC_ConfigChannel>:
 80020b8:	2300      	movs	r3, #0
 80020ba:	b573      	push	{r0, r1, r4, r5, r6, lr}
 80020bc:	4a4f      	ldr	r2, [pc, #316]	; (80021fc <HAL_ADC_ConfigChannel+0x144>)
 80020be:	9301      	str	r3, [sp, #4]
 80020c0:	6803      	ldr	r3, [r0, #0]
 80020c2:	4604      	mov	r4, r0
 80020c4:	4293      	cmp	r3, r2
 80020c6:	460d      	mov	r5, r1
 80020c8:	d00c      	beq.n	80020e4 <HAL_ADC_ConfigChannel+0x2c>
 80020ca:	f502 6280 	add.w	r2, r2, #1024	; 0x400
 80020ce:	4293      	cmp	r3, r2
 80020d0:	d008      	beq.n	80020e4 <HAL_ADC_ConfigChannel+0x2c>
 80020d2:	f502 52a0 	add.w	r2, r2, #5120	; 0x1400
 80020d6:	4293      	cmp	r3, r2
 80020d8:	d004      	beq.n	80020e4 <HAL_ADC_ConfigChannel+0x2c>
 80020da:	f240 71dd 	movw	r1, #2013	; 0x7dd
 80020de:	4848      	ldr	r0, [pc, #288]	; (8002200 <HAL_ADC_ConfigChannel+0x148>)
 80020e0:	f7ff fc9c 	bl	8001a1c <assert_failed>
 80020e4:	682b      	ldr	r3, [r5, #0]
 80020e6:	2b11      	cmp	r3, #17
 80020e8:	d904      	bls.n	80020f4 <HAL_ADC_ConfigChannel+0x3c>
 80020ea:	f240 71de 	movw	r1, #2014	; 0x7de
 80020ee:	4844      	ldr	r0, [pc, #272]	; (8002200 <HAL_ADC_ConfigChannel+0x148>)
 80020f0:	f7ff fc94 	bl	8001a1c <assert_failed>
 80020f4:	686b      	ldr	r3, [r5, #4]
 80020f6:	3b01      	subs	r3, #1
 80020f8:	2b0f      	cmp	r3, #15
 80020fa:	d904      	bls.n	8002106 <HAL_ADC_ConfigChannel+0x4e>
 80020fc:	f240 71df 	movw	r1, #2015	; 0x7df
 8002100:	483f      	ldr	r0, [pc, #252]	; (8002200 <HAL_ADC_ConfigChannel+0x148>)
 8002102:	f7ff fc8b 	bl	8001a1c <assert_failed>
 8002106:	68ab      	ldr	r3, [r5, #8]
 8002108:	2b07      	cmp	r3, #7
 800210a:	d904      	bls.n	8002116 <HAL_ADC_ConfigChannel+0x5e>
 800210c:	f44f 61fc 	mov.w	r1, #2016	; 0x7e0
 8002110:	483b      	ldr	r0, [pc, #236]	; (8002200 <HAL_ADC_ConfigChannel+0x148>)
 8002112:	f7ff fc83 	bl	8001a1c <assert_failed>
 8002116:	f894 3024 	ldrb.w	r3, [r4, #36]	; 0x24
 800211a:	2b01      	cmp	r3, #1
 800211c:	d06c      	beq.n	80021f8 <HAL_ADC_ConfigChannel+0x140>
 800211e:	2301      	movs	r3, #1
 8002120:	f884 3024 	strb.w	r3, [r4, #36]	; 0x24
 8002124:	6868      	ldr	r0, [r5, #4]
 8002126:	6822      	ldr	r2, [r4, #0]
 8002128:	2806      	cmp	r0, #6
 800212a:	6829      	ldr	r1, [r5, #0]
 800212c:	eb00 0380 	add.w	r3, r0, r0, lsl #2
 8002130:	d822      	bhi.n	8002178 <HAL_ADC_ConfigChannel+0xc0>
 8002132:	261f      	movs	r6, #31
 8002134:	6b50      	ldr	r0, [r2, #52]	; 0x34
 8002136:	3b05      	subs	r3, #5
 8002138:	409e      	lsls	r6, r3
 800213a:	ea20 0006 	bic.w	r0, r0, r6
 800213e:	fa01 f303 	lsl.w	r3, r1, r3
 8002142:	4303      	orrs	r3, r0
 8002144:	6353      	str	r3, [r2, #52]	; 0x34
 8002146:	2909      	cmp	r1, #9
 8002148:	68ab      	ldr	r3, [r5, #8]
 800214a:	eb01 0041 	add.w	r0, r1, r1, lsl #1
 800214e:	f04f 0507 	mov.w	r5, #7
 8002152:	d929      	bls.n	80021a8 <HAL_ADC_ConfigChannel+0xf0>
 8002154:	68d6      	ldr	r6, [r2, #12]
 8002156:	381e      	subs	r0, #30
 8002158:	4085      	lsls	r5, r0
 800215a:	ea26 0505 	bic.w	r5, r6, r5
 800215e:	4083      	lsls	r3, r0
 8002160:	432b      	orrs	r3, r5
 8002162:	60d3      	str	r3, [r2, #12]
 8002164:	f1a1 0310 	sub.w	r3, r1, #16
 8002168:	2b01      	cmp	r3, #1
 800216a:	d925      	bls.n	80021b8 <HAL_ADC_ConfigChannel+0x100>
 800216c:	2000      	movs	r0, #0
 800216e:	2300      	movs	r3, #0
 8002170:	f884 3024 	strb.w	r3, [r4, #36]	; 0x24
 8002174:	b002      	add	sp, #8
 8002176:	bd70      	pop	{r4, r5, r6, pc}
 8002178:	280c      	cmp	r0, #12
 800217a:	f04f 001f 	mov.w	r0, #31
 800217e:	d809      	bhi.n	8002194 <HAL_ADC_ConfigChannel+0xdc>
 8002180:	6b16      	ldr	r6, [r2, #48]	; 0x30
 8002182:	3b23      	subs	r3, #35	; 0x23
 8002184:	4098      	lsls	r0, r3
 8002186:	ea26 0000 	bic.w	r0, r6, r0
 800218a:	fa01 f303 	lsl.w	r3, r1, r3
 800218e:	4303      	orrs	r3, r0
 8002190:	6313      	str	r3, [r2, #48]	; 0x30
 8002192:	e7d8      	b.n	8002146 <HAL_ADC_ConfigChannel+0x8e>
 8002194:	6ad6      	ldr	r6, [r2, #44]	; 0x2c
 8002196:	3b41      	subs	r3, #65	; 0x41
 8002198:	4098      	lsls	r0, r3
 800219a:	ea26 0000 	bic.w	r0, r6, r0
 800219e:	fa01 f303 	lsl.w	r3, r1, r3
 80021a2:	4303      	orrs	r3, r0
 80021a4:	62d3      	str	r3, [r2, #44]	; 0x2c
 80021a6:	e7ce      	b.n	8002146 <HAL_ADC_ConfigChannel+0x8e>
 80021a8:	6911      	ldr	r1, [r2, #16]
 80021aa:	4085      	lsls	r5, r0
 80021ac:	ea21 0505 	bic.w	r5, r1, r5
 80021b0:	4083      	lsls	r3, r0
 80021b2:	432b      	orrs	r3, r5
 80021b4:	6113      	str	r3, [r2, #16]
 80021b6:	e7d9      	b.n	800216c <HAL_ADC_ConfigChannel+0xb4>
 80021b8:	4b10      	ldr	r3, [pc, #64]	; (80021fc <HAL_ADC_ConfigChannel+0x144>)
 80021ba:	429a      	cmp	r2, r3
 80021bc:	d116      	bne.n	80021ec <HAL_ADC_ConfigChannel+0x134>
 80021be:	6893      	ldr	r3, [r2, #8]
 80021c0:	021b      	lsls	r3, r3, #8
 80021c2:	d4d3      	bmi.n	800216c <HAL_ADC_ConfigChannel+0xb4>
 80021c4:	6893      	ldr	r3, [r2, #8]
 80021c6:	2910      	cmp	r1, #16
 80021c8:	f443 0300 	orr.w	r3, r3, #8388608	; 0x800000
 80021cc:	6093      	str	r3, [r2, #8]
 80021ce:	d1cd      	bne.n	800216c <HAL_ADC_ConfigChannel+0xb4>
 80021d0:	4b0c      	ldr	r3, [pc, #48]	; (8002204 <HAL_ADC_ConfigChannel+0x14c>)
 80021d2:	4a0d      	ldr	r2, [pc, #52]	; (8002208 <HAL_ADC_ConfigChannel+0x150>)
 80021d4:	681b      	ldr	r3, [r3, #0]
 80021d6:	fbb3 f2f2 	udiv	r2, r3, r2
 80021da:	230a      	movs	r3, #10
 80021dc:	4353      	muls	r3, r2
 80021de:	9301      	str	r3, [sp, #4]
 80021e0:	9b01      	ldr	r3, [sp, #4]
 80021e2:	2b00      	cmp	r3, #0
 80021e4:	d0c2      	beq.n	800216c <HAL_ADC_ConfigChannel+0xb4>
 80021e6:	9b01      	ldr	r3, [sp, #4]
 80021e8:	3b01      	subs	r3, #1
 80021ea:	e7f8      	b.n	80021de <HAL_ADC_ConfigChannel+0x126>
 80021ec:	6aa3      	ldr	r3, [r4, #40]	; 0x28
 80021ee:	2001      	movs	r0, #1
 80021f0:	f043 0320 	orr.w	r3, r3, #32
 80021f4:	62a3      	str	r3, [r4, #40]	; 0x28
 80021f6:	e7ba      	b.n	800216e <HAL_ADC_ConfigChannel+0xb6>
 80021f8:	2002      	movs	r0, #2
 80021fa:	e7bb      	b.n	8002174 <HAL_ADC_ConfigChannel+0xbc>
 80021fc:	40012400 	.word	0x40012400
 8002200:	08009be8 	.word	0x08009be8
 8002204:	20000000 	.word	0x20000000
 8002208:	000f4240 	.word	0x000f4240

0800220c <ADC_ConversionStop_Disable>:
 800220c:	b538      	push	{r3, r4, r5, lr}
 800220e:	6803      	ldr	r3, [r0, #0]
 8002210:	4604      	mov	r4, r0
 8002212:	689a      	ldr	r2, [r3, #8]
 8002214:	07d1      	lsls	r1, r2, #31
 8002216:	d401      	bmi.n	800221c <ADC_ConversionStop_Disable+0x10>
 8002218:	2000      	movs	r0, #0
 800221a:	bd38      	pop	{r3, r4, r5, pc}
 800221c:	689a      	ldr	r2, [r3, #8]
 800221e:	f022 0201 	bic.w	r2, r2, #1
 8002222:	609a      	str	r2, [r3, #8]
 8002224:	f7ff ff30 	bl	8002088 <HAL_GetTick>
 8002228:	4605      	mov	r5, r0
 800222a:	6823      	ldr	r3, [r4, #0]
 800222c:	689b      	ldr	r3, [r3, #8]
 800222e:	07db      	lsls	r3, r3, #31
 8002230:	d5f2      	bpl.n	8002218 <ADC_ConversionStop_Disable+0xc>
 8002232:	f7ff ff29 	bl	8002088 <HAL_GetTick>
 8002236:	1b40      	subs	r0, r0, r5
 8002238:	2802      	cmp	r0, #2
 800223a:	d9f6      	bls.n	800222a <ADC_ConversionStop_Disable+0x1e>
 800223c:	6823      	ldr	r3, [r4, #0]
 800223e:	689b      	ldr	r3, [r3, #8]
 8002240:	07da      	lsls	r2, r3, #31
 8002242:	d5f2      	bpl.n	800222a <ADC_ConversionStop_Disable+0x1e>
 8002244:	6aa3      	ldr	r3, [r4, #40]	; 0x28
 8002246:	2001      	movs	r0, #1
 8002248:	f043 0310 	orr.w	r3, r3, #16
 800224c:	62a3      	str	r3, [r4, #40]	; 0x28
 800224e:	6ae3      	ldr	r3, [r4, #44]	; 0x2c
 8002250:	f043 0301 	orr.w	r3, r3, #1
 8002254:	62e3      	str	r3, [r4, #44]	; 0x2c
 8002256:	e7e0      	b.n	800221a <ADC_ConversionStop_Disable+0xe>

08002258 <HAL_ADC_Init>:
 8002258:	b5f8      	push	{r3, r4, r5, r6, r7, lr}
 800225a:	4604      	mov	r4, r0
 800225c:	2800      	cmp	r0, #0
 800225e:	f000 80ce 	beq.w	80023fe <HAL_ADC_Init+0x1a6>
 8002262:	6803      	ldr	r3, [r0, #0]
 8002264:	4a69      	ldr	r2, [pc, #420]	; (800240c <HAL_ADC_Init+0x1b4>)
 8002266:	4293      	cmp	r3, r2
 8002268:	d00c      	beq.n	8002284 <HAL_ADC_Init+0x2c>
 800226a:	f502 6280 	add.w	r2, r2, #1024	; 0x400
 800226e:	4293      	cmp	r3, r2
 8002270:	d008      	beq.n	8002284 <HAL_ADC_Init+0x2c>
 8002272:	f502 52a0 	add.w	r2, r2, #5120	; 0x1400
 8002276:	4293      	cmp	r3, r2
 8002278:	d004      	beq.n	8002284 <HAL_ADC_Init+0x2c>
 800227a:	f240 11b3 	movw	r1, #435	; 0x1b3
 800227e:	4864      	ldr	r0, [pc, #400]	; (8002410 <HAL_ADC_Init+0x1b8>)
 8002280:	f7ff fbcc 	bl	8001a1c <assert_failed>
 8002284:	6863      	ldr	r3, [r4, #4]
 8002286:	f433 6300 	bics.w	r3, r3, #2048	; 0x800
 800228a:	d004      	beq.n	8002296 <HAL_ADC_Init+0x3e>
 800228c:	f44f 71da 	mov.w	r1, #436	; 0x1b4
 8002290:	485f      	ldr	r0, [pc, #380]	; (8002410 <HAL_ADC_Init+0x1b8>)
 8002292:	f7ff fbc3 	bl	8001a1c <assert_failed>
 8002296:	68a3      	ldr	r3, [r4, #8]
 8002298:	f433 7380 	bics.w	r3, r3, #256	; 0x100
 800229c:	d004      	beq.n	80022a8 <HAL_ADC_Init+0x50>
 800229e:	f240 11b5 	movw	r1, #437	; 0x1b5
 80022a2:	485b      	ldr	r0, [pc, #364]	; (8002410 <HAL_ADC_Init+0x1b8>)
 80022a4:	f7ff fbba 	bl	8001a1c <assert_failed>
 80022a8:	7b23      	ldrb	r3, [r4, #12]
 80022aa:	2b01      	cmp	r3, #1
 80022ac:	d904      	bls.n	80022b8 <HAL_ADC_Init+0x60>
 80022ae:	f44f 71db 	mov.w	r1, #438	; 0x1b6
 80022b2:	4857      	ldr	r0, [pc, #348]	; (8002410 <HAL_ADC_Init+0x1b8>)
 80022b4:	f7ff fbb2 	bl	8001a1c <assert_failed>
 80022b8:	69e3      	ldr	r3, [r4, #28]
 80022ba:	f433 23c0 	bics.w	r3, r3, #393216	; 0x60000
 80022be:	d007      	beq.n	80022d0 <HAL_ADC_Init+0x78>
 80022c0:	f5b3 2f00 	cmp.w	r3, #524288	; 0x80000
 80022c4:	d004      	beq.n	80022d0 <HAL_ADC_Init+0x78>
 80022c6:	f240 11b7 	movw	r1, #439	; 0x1b7
 80022ca:	4851      	ldr	r0, [pc, #324]	; (8002410 <HAL_ADC_Init+0x1b8>)
 80022cc:	f7ff fba6 	bl	8001a1c <assert_failed>
 80022d0:	68a3      	ldr	r3, [r4, #8]
 80022d2:	b1db      	cbz	r3, 800230c <HAL_ADC_Init+0xb4>
 80022d4:	6923      	ldr	r3, [r4, #16]
 80022d6:	3b01      	subs	r3, #1
 80022d8:	2b0f      	cmp	r3, #15
 80022da:	d904      	bls.n	80022e6 <HAL_ADC_Init+0x8e>
 80022dc:	f240 11bb 	movw	r1, #443	; 0x1bb
 80022e0:	484b      	ldr	r0, [pc, #300]	; (8002410 <HAL_ADC_Init+0x1b8>)
 80022e2:	f7ff fb9b 	bl	8001a1c <assert_failed>
 80022e6:	7d23      	ldrb	r3, [r4, #20]
 80022e8:	2b01      	cmp	r3, #1
 80022ea:	d904      	bls.n	80022f6 <HAL_ADC_Init+0x9e>
 80022ec:	f44f 71de 	mov.w	r1, #444	; 0x1bc
 80022f0:	4847      	ldr	r0, [pc, #284]	; (8002410 <HAL_ADC_Init+0x1b8>)
 80022f2:	f7ff fb93 	bl	8001a1c <assert_failed>
 80022f6:	7d23      	ldrb	r3, [r4, #20]
 80022f8:	b143      	cbz	r3, 800230c <HAL_ADC_Init+0xb4>
 80022fa:	69a3      	ldr	r3, [r4, #24]
 80022fc:	3b01      	subs	r3, #1
 80022fe:	2b07      	cmp	r3, #7
 8002300:	d904      	bls.n	800230c <HAL_ADC_Init+0xb4>
 8002302:	f240 11bf 	movw	r1, #447	; 0x1bf
 8002306:	4842      	ldr	r0, [pc, #264]	; (8002410 <HAL_ADC_Init+0x1b8>)
 8002308:	f7ff fb88 	bl	8001a1c <assert_failed>
 800230c:	6aa3      	ldr	r3, [r4, #40]	; 0x28
 800230e:	b92b      	cbnz	r3, 800231c <HAL_ADC_Init+0xc4>
 8002310:	4620      	mov	r0, r4
 8002312:	62e3      	str	r3, [r4, #44]	; 0x2c
 8002314:	f884 3024 	strb.w	r3, [r4, #36]	; 0x24
 8002318:	f7ff fba4 	bl	8001a64 <HAL_ADC_MspInit>
 800231c:	4620      	mov	r0, r4
 800231e:	f7ff ff75 	bl	800220c <ADC_ConversionStop_Disable>
 8002322:	6aa3      	ldr	r3, [r4, #40]	; 0x28
 8002324:	f013 0310 	ands.w	r3, r3, #16
 8002328:	d16b      	bne.n	8002402 <HAL_ADC_Init+0x1aa>
 800232a:	2800      	cmp	r0, #0
 800232c:	d169      	bne.n	8002402 <HAL_ADC_Init+0x1aa>
 800232e:	6aa2      	ldr	r2, [r4, #40]	; 0x28
 8002330:	4e38      	ldr	r6, [pc, #224]	; (8002414 <HAL_ADC_Init+0x1bc>)
 8002332:	f422 5288 	bic.w	r2, r2, #4352	; 0x1100
 8002336:	f022 0202 	bic.w	r2, r2, #2
 800233a:	f042 0202 	orr.w	r2, r2, #2
 800233e:	62a2      	str	r2, [r4, #40]	; 0x28
 8002340:	e9d4 2100 	ldrd	r2, r1, [r4]
 8002344:	42b2      	cmp	r2, r6
 8002346:	69e5      	ldr	r5, [r4, #28]
 8002348:	d104      	bne.n	8002354 <HAL_ADC_Init+0xfc>
 800234a:	f5b5 2f40 	cmp.w	r5, #786432	; 0xc0000
 800234e:	bf08      	it	eq
 8002350:	f44f 2500 	moveq.w	r5, #524288	; 0x80000
 8002354:	7b26      	ldrb	r6, [r4, #12]
 8002356:	ea41 0146 	orr.w	r1, r1, r6, lsl #1
 800235a:	4329      	orrs	r1, r5
 800235c:	68a5      	ldr	r5, [r4, #8]
 800235e:	f5b5 7f80 	cmp.w	r5, #256	; 0x100
 8002362:	d037      	beq.n	80023d4 <HAL_ADC_Init+0x17c>
 8002364:	2d01      	cmp	r5, #1
 8002366:	bf0c      	ite	eq
 8002368:	f44f 7c80 	moveq.w	ip, #256	; 0x100
 800236c:	f04f 0c00 	movne.w	ip, #0
 8002370:	7d27      	ldrb	r7, [r4, #20]
 8002372:	2f01      	cmp	r7, #1
 8002374:	d106      	bne.n	8002384 <HAL_ADC_Init+0x12c>
 8002376:	bb7e      	cbnz	r6, 80023d8 <HAL_ADC_Init+0x180>
 8002378:	69a7      	ldr	r7, [r4, #24]
 800237a:	3f01      	subs	r7, #1
 800237c:	ea4c 3647 	orr.w	r6, ip, r7, lsl #13
 8002380:	f446 6c00 	orr.w	ip, r6, #2048	; 0x800
 8002384:	6856      	ldr	r6, [r2, #4]
 8002386:	f5b5 7f80 	cmp.w	r5, #256	; 0x100
 800238a:	f426 4669 	bic.w	r6, r6, #59648	; 0xe900
 800238e:	ea46 060c 	orr.w	r6, r6, ip
 8002392:	6056      	str	r6, [r2, #4]
 8002394:	6897      	ldr	r7, [r2, #8]
 8002396:	4e20      	ldr	r6, [pc, #128]	; (8002418 <HAL_ADC_Init+0x1c0>)
 8002398:	ea06 0607 	and.w	r6, r6, r7
 800239c:	ea46 0601 	orr.w	r6, r6, r1
 80023a0:	6096      	str	r6, [r2, #8]
 80023a2:	d001      	beq.n	80023a8 <HAL_ADC_Init+0x150>
 80023a4:	2d01      	cmp	r5, #1
 80023a6:	d102      	bne.n	80023ae <HAL_ADC_Init+0x156>
 80023a8:	6923      	ldr	r3, [r4, #16]
 80023aa:	3b01      	subs	r3, #1
 80023ac:	051b      	lsls	r3, r3, #20
 80023ae:	6ad5      	ldr	r5, [r2, #44]	; 0x2c
 80023b0:	f425 0570 	bic.w	r5, r5, #15728640	; 0xf00000
 80023b4:	432b      	orrs	r3, r5
 80023b6:	62d3      	str	r3, [r2, #44]	; 0x2c
 80023b8:	6892      	ldr	r2, [r2, #8]
 80023ba:	4b18      	ldr	r3, [pc, #96]	; (800241c <HAL_ADC_Init+0x1c4>)
 80023bc:	4013      	ands	r3, r2
 80023be:	4299      	cmp	r1, r3
 80023c0:	d113      	bne.n	80023ea <HAL_ADC_Init+0x192>
 80023c2:	2300      	movs	r3, #0
 80023c4:	62e3      	str	r3, [r4, #44]	; 0x2c
 80023c6:	6aa3      	ldr	r3, [r4, #40]	; 0x28
 80023c8:	f023 0303 	bic.w	r3, r3, #3
 80023cc:	f043 0301 	orr.w	r3, r3, #1
 80023d0:	62a3      	str	r3, [r4, #40]	; 0x28
 80023d2:	bdf8      	pop	{r3, r4, r5, r6, r7, pc}
 80023d4:	46ac      	mov	ip, r5
 80023d6:	e7cb      	b.n	8002370 <HAL_ADC_Init+0x118>
 80023d8:	6aa6      	ldr	r6, [r4, #40]	; 0x28
 80023da:	f046 0620 	orr.w	r6, r6, #32
 80023de:	62a6      	str	r6, [r4, #40]	; 0x28
 80023e0:	6ae6      	ldr	r6, [r4, #44]	; 0x2c
 80023e2:	f046 0601 	orr.w	r6, r6, #1
 80023e6:	62e6      	str	r6, [r4, #44]	; 0x2c
 80023e8:	e7cc      	b.n	8002384 <HAL_ADC_Init+0x12c>
 80023ea:	6aa3      	ldr	r3, [r4, #40]	; 0x28
 80023ec:	f023 0312 	bic.w	r3, r3, #18
 80023f0:	f043 0310 	orr.w	r3, r3, #16
 80023f4:	62a3      	str	r3, [r4, #40]	; 0x28
 80023f6:	6ae3      	ldr	r3, [r4, #44]	; 0x2c
 80023f8:	f043 0301 	orr.w	r3, r3, #1
 80023fc:	62e3      	str	r3, [r4, #44]	; 0x2c
 80023fe:	2001      	movs	r0, #1
 8002400:	e7e7      	b.n	80023d2 <HAL_ADC_Init+0x17a>
 8002402:	6aa3      	ldr	r3, [r4, #40]	; 0x28
 8002404:	f043 0310 	orr.w	r3, r3, #16
 8002408:	62a3      	str	r3, [r4, #40]	; 0x28
 800240a:	e7f8      	b.n	80023fe <HAL_ADC_Init+0x1a6>
 800240c:	40012400 	.word	0x40012400
 8002410:	08009be8 	.word	0x08009be8
 8002414:	40013c00 	.word	0x40013c00
 8002418:	ffe1f7fd 	.word	0xffe1f7fd
 800241c:	ff1f0efe 	.word	0xff1f0efe

08002420 <HAL_NVIC_SetPriorityGrouping>:
 8002420:	1ec3      	subs	r3, r0, #3
 8002422:	2b04      	cmp	r3, #4
 8002424:	b510      	push	{r4, lr}
 8002426:	4604      	mov	r4, r0
 8002428:	d903      	bls.n	8002432 <HAL_NVIC_SetPriorityGrouping+0x12>
 800242a:	2192      	movs	r1, #146	; 0x92
 800242c:	4808      	ldr	r0, [pc, #32]	; (8002450 <HAL_NVIC_SetPriorityGrouping+0x30>)
 800242e:	f7ff faf5 	bl	8001a1c <assert_failed>
 8002432:	0223      	lsls	r3, r4, #8
 8002434:	f64f 04ff 	movw	r4, #63743	; 0xf8ff
 8002438:	4906      	ldr	r1, [pc, #24]	; (8002454 <HAL_NVIC_SetPriorityGrouping+0x34>)
 800243a:	f403 63e0 	and.w	r3, r3, #1792	; 0x700
 800243e:	68ca      	ldr	r2, [r1, #12]
 8002440:	4014      	ands	r4, r2
 8002442:	4323      	orrs	r3, r4
 8002444:	f043 63bf 	orr.w	r3, r3, #100139008	; 0x5f80000
 8002448:	f443 3300 	orr.w	r3, r3, #131072	; 0x20000
 800244c:	60cb      	str	r3, [r1, #12]
 800244e:	bd10      	pop	{r4, pc}
 8002450:	08009c20 	.word	0x08009c20
 8002454:	e000ed00 	.word	0xe000ed00

08002458 <HAL_NVIC_SetPriority>:
 8002458:	2a0f      	cmp	r2, #15
 800245a:	b570      	push	{r4, r5, r6, lr}
 800245c:	4605      	mov	r5, r0
 800245e:	460c      	mov	r4, r1
 8002460:	4616      	mov	r6, r2
 8002462:	d903      	bls.n	800246c <HAL_NVIC_SetPriority+0x14>
 8002464:	21aa      	movs	r1, #170	; 0xaa
 8002466:	481b      	ldr	r0, [pc, #108]	; (80024d4 <HAL_NVIC_SetPriority+0x7c>)
 8002468:	f7ff fad8 	bl	8001a1c <assert_failed>
 800246c:	2c0f      	cmp	r4, #15
 800246e:	d903      	bls.n	8002478 <HAL_NVIC_SetPriority+0x20>
 8002470:	21ab      	movs	r1, #171	; 0xab
 8002472:	4818      	ldr	r0, [pc, #96]	; (80024d4 <HAL_NVIC_SetPriority+0x7c>)
 8002474:	f7ff fad2 	bl	8001a1c <assert_failed>
 8002478:	4b17      	ldr	r3, [pc, #92]	; (80024d8 <HAL_NVIC_SetPriority+0x80>)
 800247a:	68d8      	ldr	r0, [r3, #12]
 800247c:	f3c0 2002 	ubfx	r0, r0, #8, #3
 8002480:	f1c0 0307 	rsb	r3, r0, #7
 8002484:	1d02      	adds	r2, r0, #4
 8002486:	2b04      	cmp	r3, #4
 8002488:	bf28      	it	cs
 800248a:	2304      	movcs	r3, #4
 800248c:	2a06      	cmp	r2, #6
 800248e:	f04f 32ff 	mov.w	r2, #4294967295
 8002492:	bf98      	it	ls
 8002494:	2000      	movls	r0, #0
 8002496:	fa02 f303 	lsl.w	r3, r2, r3
 800249a:	bf88      	it	hi
 800249c:	3803      	subhi	r0, #3
 800249e:	ea24 0303 	bic.w	r3, r4, r3
 80024a2:	4083      	lsls	r3, r0
 80024a4:	fa02 f000 	lsl.w	r0, r2, r0
 80024a8:	ea26 0600 	bic.w	r6, r6, r0
 80024ac:	2d00      	cmp	r5, #0
 80024ae:	ea43 0306 	orr.w	r3, r3, r6
 80024b2:	bfac      	ite	ge
 80024b4:	f105 4560 	addge.w	r5, r5, #3758096384	; 0xe0000000
 80024b8:	4a08      	ldrlt	r2, [pc, #32]	; (80024dc <HAL_NVIC_SetPriority+0x84>)
 80024ba:	ea4f 1303 	mov.w	r3, r3, lsl #4
 80024be:	b2db      	uxtb	r3, r3
 80024c0:	bfab      	itete	ge
 80024c2:	f505 4561 	addge.w	r5, r5, #57600	; 0xe100
 80024c6:	f005 050f 	andlt.w	r5, r5, #15
 80024ca:	f885 3300 	strbge.w	r3, [r5, #768]	; 0x300
 80024ce:	5553      	strblt	r3, [r2, r5]
 80024d0:	bd70      	pop	{r4, r5, r6, pc}
 80024d2:	bf00      	nop
 80024d4:	08009c20 	.word	0x08009c20
 80024d8:	e000ed00 	.word	0xe000ed00
 80024dc:	e000ed14 	.word	0xe000ed14

080024e0 <HAL_NVIC_EnableIRQ>:
 80024e0:	2800      	cmp	r0, #0
 80024e2:	da03      	bge.n	80024ec <HAL_NVIC_EnableIRQ+0xc>
 80024e4:	21be      	movs	r1, #190	; 0xbe
 80024e6:	4806      	ldr	r0, [pc, #24]	; (8002500 <HAL_NVIC_EnableIRQ+0x20>)
 80024e8:	f7ff ba98 	b.w	8001a1c <assert_failed>
 80024ec:	2301      	movs	r3, #1
 80024ee:	0942      	lsrs	r2, r0, #5
 80024f0:	f000 001f 	and.w	r0, r0, #31
 80024f4:	fa03 f000 	lsl.w	r0, r3, r0
 80024f8:	4b02      	ldr	r3, [pc, #8]	; (8002504 <HAL_NVIC_EnableIRQ+0x24>)
 80024fa:	f843 0022 	str.w	r0, [r3, r2, lsl #2]
 80024fe:	4770      	bx	lr
 8002500:	08009c20 	.word	0x08009c20
 8002504:	e000e100 	.word	0xe000e100

08002508 <HAL_SYSTICK_Config>:
 8002508:	3801      	subs	r0, #1
 800250a:	f1b0 7f80 	cmp.w	r0, #16777216	; 0x1000000
 800250e:	d20a      	bcs.n	8002526 <HAL_SYSTICK_Config+0x1e>
 8002510:	21f0      	movs	r1, #240	; 0xf0
 8002512:	4b06      	ldr	r3, [pc, #24]	; (800252c <HAL_SYSTICK_Config+0x24>)
 8002514:	4a06      	ldr	r2, [pc, #24]	; (8002530 <HAL_SYSTICK_Config+0x28>)
 8002516:	6058      	str	r0, [r3, #4]
 8002518:	f882 1023 	strb.w	r1, [r2, #35]	; 0x23
 800251c:	2000      	movs	r0, #0
 800251e:	2207      	movs	r2, #7
 8002520:	6098      	str	r0, [r3, #8]
 8002522:	601a      	str	r2, [r3, #0]
 8002524:	4770      	bx	lr
 8002526:	2001      	movs	r0, #1
 8002528:	4770      	bx	lr
 800252a:	bf00      	nop
 800252c:	e000e010 	.word	0xe000e010
 8002530:	e000ed00 	.word	0xe000ed00

08002534 <HAL_DMA_Abort>:
 8002534:	f890 3021 	ldrb.w	r3, [r0, #33]	; 0x21
 8002538:	2b02      	cmp	r3, #2
 800253a:	d006      	beq.n	800254a <HAL_DMA_Abort+0x16>
 800253c:	2304      	movs	r3, #4
 800253e:	6383      	str	r3, [r0, #56]	; 0x38
 8002540:	2300      	movs	r3, #0
 8002542:	f880 3020 	strb.w	r3, [r0, #32]
 8002546:	2001      	movs	r0, #1
 8002548:	4770      	bx	lr
 800254a:	6803      	ldr	r3, [r0, #0]
 800254c:	681a      	ldr	r2, [r3, #0]
 800254e:	f022 020e 	bic.w	r2, r2, #14
 8002552:	601a      	str	r2, [r3, #0]
 8002554:	681a      	ldr	r2, [r3, #0]
 8002556:	f022 0201 	bic.w	r2, r2, #1
 800255a:	601a      	str	r2, [r3, #0]
 800255c:	2301      	movs	r3, #1
 800255e:	e9d0 210f 	ldrd	r2, r1, [r0, #60]	; 0x3c
 8002562:	408b      	lsls	r3, r1
 8002564:	6053      	str	r3, [r2, #4]
 8002566:	f44f 7380 	mov.w	r3, #256	; 0x100
 800256a:	8403      	strh	r3, [r0, #32]
 800256c:	2000      	movs	r0, #0
 800256e:	4770      	bx	lr

08002570 <HAL_DMA_Abort_IT>:
 8002570:	b508      	push	{r3, lr}
 8002572:	f890 3021 	ldrb.w	r3, [r0, #33]	; 0x21
 8002576:	2b02      	cmp	r3, #2
 8002578:	d003      	beq.n	8002582 <HAL_DMA_Abort_IT+0x12>
 800257a:	2304      	movs	r3, #4
 800257c:	6383      	str	r3, [r0, #56]	; 0x38
 800257e:	2001      	movs	r0, #1
 8002580:	bd08      	pop	{r3, pc}
 8002582:	6803      	ldr	r3, [r0, #0]
 8002584:	4943      	ldr	r1, [pc, #268]	; (8002694 <HAL_DMA_Abort_IT+0x124>)
 8002586:	681a      	ldr	r2, [r3, #0]
 8002588:	f022 020e 	bic.w	r2, r2, #14
 800258c:	601a      	str	r2, [r3, #0]
 800258e:	681a      	ldr	r2, [r3, #0]
 8002590:	f022 0201 	bic.w	r2, r2, #1
 8002594:	601a      	str	r2, [r3, #0]
 8002596:	4a40      	ldr	r2, [pc, #256]	; (8002698 <HAL_DMA_Abort_IT+0x128>)
 8002598:	4293      	cmp	r3, r2
 800259a:	d941      	bls.n	8002620 <HAL_DMA_Abort_IT+0xb0>
 800259c:	428b      	cmp	r3, r1
 800259e:	d038      	beq.n	8002612 <HAL_DMA_Abort_IT+0xa2>
 80025a0:	3114      	adds	r1, #20
 80025a2:	428b      	cmp	r3, r1
 80025a4:	d037      	beq.n	8002616 <HAL_DMA_Abort_IT+0xa6>
 80025a6:	3114      	adds	r1, #20
 80025a8:	428b      	cmp	r3, r1
 80025aa:	d036      	beq.n	800261a <HAL_DMA_Abort_IT+0xaa>
 80025ac:	3114      	adds	r1, #20
 80025ae:	428b      	cmp	r3, r1
 80025b0:	d023      	beq.n	80025fa <HAL_DMA_Abort_IT+0x8a>
 80025b2:	3114      	adds	r1, #20
 80025b4:	428b      	cmp	r3, r1
 80025b6:	d023      	beq.n	8002600 <HAL_DMA_Abort_IT+0x90>
 80025b8:	3114      	adds	r1, #20
 80025ba:	428b      	cmp	r3, r1
 80025bc:	d023      	beq.n	8002606 <HAL_DMA_Abort_IT+0x96>
 80025be:	4293      	cmp	r3, r2
 80025c0:	d024      	beq.n	800260c <HAL_DMA_Abort_IT+0x9c>
 80025c2:	f502 7262 	add.w	r2, r2, #904	; 0x388
 80025c6:	4293      	cmp	r3, r2
 80025c8:	d023      	beq.n	8002612 <HAL_DMA_Abort_IT+0xa2>
 80025ca:	3214      	adds	r2, #20
 80025cc:	4293      	cmp	r3, r2
 80025ce:	d022      	beq.n	8002616 <HAL_DMA_Abort_IT+0xa6>
 80025d0:	3214      	adds	r2, #20
 80025d2:	4293      	cmp	r3, r2
 80025d4:	d021      	beq.n	800261a <HAL_DMA_Abort_IT+0xaa>
 80025d6:	3214      	adds	r2, #20
 80025d8:	4293      	cmp	r3, r2
 80025da:	bf14      	ite	ne
 80025dc:	f44f 3380 	movne.w	r3, #65536	; 0x10000
 80025e0:	f44f 5380 	moveq.w	r3, #4096	; 0x1000
 80025e4:	4a2d      	ldr	r2, [pc, #180]	; (800269c <HAL_DMA_Abort_IT+0x12c>)
 80025e6:	6053      	str	r3, [r2, #4]
 80025e8:	f44f 7380 	mov.w	r3, #256	; 0x100
 80025ec:	8403      	strh	r3, [r0, #32]
 80025ee:	6b43      	ldr	r3, [r0, #52]	; 0x34
 80025f0:	2b00      	cmp	r3, #0
 80025f2:	d04d      	beq.n	8002690 <HAL_DMA_Abort_IT+0x120>
 80025f4:	4798      	blx	r3
 80025f6:	2000      	movs	r0, #0
 80025f8:	e7c2      	b.n	8002580 <HAL_DMA_Abort_IT+0x10>
 80025fa:	f44f 5380 	mov.w	r3, #4096	; 0x1000
 80025fe:	e7f1      	b.n	80025e4 <HAL_DMA_Abort_IT+0x74>
 8002600:	f44f 3380 	mov.w	r3, #65536	; 0x10000
 8002604:	e7ee      	b.n	80025e4 <HAL_DMA_Abort_IT+0x74>
 8002606:	f44f 1380 	mov.w	r3, #1048576	; 0x100000
 800260a:	e7eb      	b.n	80025e4 <HAL_DMA_Abort_IT+0x74>
 800260c:	f04f 7380 	mov.w	r3, #16777216	; 0x1000000
 8002610:	e7e8      	b.n	80025e4 <HAL_DMA_Abort_IT+0x74>
 8002612:	2301      	movs	r3, #1
 8002614:	e7e6      	b.n	80025e4 <HAL_DMA_Abort_IT+0x74>
 8002616:	2310      	movs	r3, #16
 8002618:	e7e4      	b.n	80025e4 <HAL_DMA_Abort_IT+0x74>
 800261a:	f44f 7380 	mov.w	r3, #256	; 0x100
 800261e:	e7e1      	b.n	80025e4 <HAL_DMA_Abort_IT+0x74>
 8002620:	428b      	cmp	r3, r1
 8002622:	d02e      	beq.n	8002682 <HAL_DMA_Abort_IT+0x112>
 8002624:	491e      	ldr	r1, [pc, #120]	; (80026a0 <HAL_DMA_Abort_IT+0x130>)
 8002626:	428b      	cmp	r3, r1
 8002628:	d02d      	beq.n	8002686 <HAL_DMA_Abort_IT+0x116>
 800262a:	3114      	adds	r1, #20
 800262c:	428b      	cmp	r3, r1
 800262e:	d02c      	beq.n	800268a <HAL_DMA_Abort_IT+0x11a>
 8002630:	3114      	adds	r1, #20
 8002632:	428b      	cmp	r3, r1
 8002634:	d019      	beq.n	800266a <HAL_DMA_Abort_IT+0xfa>
 8002636:	3114      	adds	r1, #20
 8002638:	428b      	cmp	r3, r1
 800263a:	d019      	beq.n	8002670 <HAL_DMA_Abort_IT+0x100>
 800263c:	3114      	adds	r1, #20
 800263e:	428b      	cmp	r3, r1
 8002640:	d019      	beq.n	8002676 <HAL_DMA_Abort_IT+0x106>
 8002642:	4293      	cmp	r3, r2
 8002644:	d01a      	beq.n	800267c <HAL_DMA_Abort_IT+0x10c>
 8002646:	4a17      	ldr	r2, [pc, #92]	; (80026a4 <HAL_DMA_Abort_IT+0x134>)
 8002648:	4293      	cmp	r3, r2
 800264a:	d01a      	beq.n	8002682 <HAL_DMA_Abort_IT+0x112>
 800264c:	3214      	adds	r2, #20
 800264e:	4293      	cmp	r3, r2
 8002650:	d019      	beq.n	8002686 <HAL_DMA_Abort_IT+0x116>
 8002652:	3214      	adds	r2, #20
 8002654:	4293      	cmp	r3, r2
 8002656:	d018      	beq.n	800268a <HAL_DMA_Abort_IT+0x11a>
 8002658:	3214      	adds	r2, #20
 800265a:	4293      	cmp	r3, r2
 800265c:	bf14      	ite	ne
 800265e:	f44f 3380 	movne.w	r3, #65536	; 0x10000
 8002662:	f44f 5380 	moveq.w	r3, #4096	; 0x1000
 8002666:	4a10      	ldr	r2, [pc, #64]	; (80026a8 <HAL_DMA_Abort_IT+0x138>)
 8002668:	e7bd      	b.n	80025e6 <HAL_DMA_Abort_IT+0x76>
 800266a:	f44f 5380 	mov.w	r3, #4096	; 0x1000
 800266e:	e7fa      	b.n	8002666 <HAL_DMA_Abort_IT+0xf6>
 8002670:	f44f 3380 	mov.w	r3, #65536	; 0x10000
 8002674:	e7f7      	b.n	8002666 <HAL_DMA_Abort_IT+0xf6>
 8002676:	f44f 1380 	mov.w	r3, #1048576	; 0x100000
 800267a:	e7f4      	b.n	8002666 <HAL_DMA_Abort_IT+0xf6>
 800267c:	f04f 7380 	mov.w	r3, #16777216	; 0x1000000
 8002680:	e7f1      	b.n	8002666 <HAL_DMA_Abort_IT+0xf6>
 8002682:	2301      	movs	r3, #1
 8002684:	e7ef      	b.n	8002666 <HAL_DMA_Abort_IT+0xf6>
 8002686:	2310      	movs	r3, #16
 8002688:	e7ed      	b.n	8002666 <HAL_DMA_Abort_IT+0xf6>
 800268a:	f44f 7380 	mov.w	r3, #256	; 0x100
 800268e:	e7ea      	b.n	8002666 <HAL_DMA_Abort_IT+0xf6>
 8002690:	4618      	mov	r0, r3
 8002692:	e775      	b.n	8002580 <HAL_DMA_Abort_IT+0x10>
 8002694:	40020008 	.word	0x40020008
 8002698:	40020080 	.word	0x40020080
 800269c:	40020400 	.word	0x40020400
 80026a0:	4002001c 	.word	0x4002001c
 80026a4:	40020408 	.word	0x40020408
 80026a8:	40020000 	.word	0x40020000

080026ac <HAL_GPIO_Init>:
 80026ac:	e92d 4ff0 	stmdb	sp!, {r4, r5, r6, r7, r8, r9, sl, fp, lr}
 80026b0:	4bb4      	ldr	r3, [pc, #720]	; (8002984 <HAL_GPIO_Init+0x2d8>)
 80026b2:	b085      	sub	sp, #20
 80026b4:	4298      	cmp	r0, r3
 80026b6:	4604      	mov	r4, r0
 80026b8:	460d      	mov	r5, r1
 80026ba:	9301      	str	r3, [sp, #4]
 80026bc:	d01b      	beq.n	80026f6 <HAL_GPIO_Init+0x4a>
 80026be:	f503 6380 	add.w	r3, r3, #1024	; 0x400
 80026c2:	4298      	cmp	r0, r3
 80026c4:	d017      	beq.n	80026f6 <HAL_GPIO_Init+0x4a>
 80026c6:	f503 6380 	add.w	r3, r3, #1024	; 0x400
 80026ca:	4298      	cmp	r0, r3
 80026cc:	d013      	beq.n	80026f6 <HAL_GPIO_Init+0x4a>
 80026ce:	f503 6380 	add.w	r3, r3, #1024	; 0x400
 80026d2:	4298      	cmp	r0, r3
 80026d4:	d00f      	beq.n	80026f6 <HAL_GPIO_Init+0x4a>
 80026d6:	f503 6380 	add.w	r3, r3, #1024	; 0x400
 80026da:	4298      	cmp	r0, r3
 80026dc:	d00b      	beq.n	80026f6 <HAL_GPIO_Init+0x4a>
 80026de:	f503 6380 	add.w	r3, r3, #1024	; 0x400
 80026e2:	4298      	cmp	r0, r3
 80026e4:	d007      	beq.n	80026f6 <HAL_GPIO_Init+0x4a>
 80026e6:	f503 6380 	add.w	r3, r3, #1024	; 0x400
 80026ea:	4298      	cmp	r0, r3
 80026ec:	d003      	beq.n	80026f6 <HAL_GPIO_Init+0x4a>
 80026ee:	21bd      	movs	r1, #189	; 0xbd
 80026f0:	48a5      	ldr	r0, [pc, #660]	; (8002988 <HAL_GPIO_Init+0x2dc>)
 80026f2:	f7ff f993 	bl	8001a1c <assert_failed>
 80026f6:	682b      	ldr	r3, [r5, #0]
 80026f8:	b29a      	uxth	r2, r3
 80026fa:	b112      	cbz	r2, 8002702 <HAL_GPIO_Init+0x56>
 80026fc:	0c1b      	lsrs	r3, r3, #16
 80026fe:	041b      	lsls	r3, r3, #16
 8002700:	b11b      	cbz	r3, 800270a <HAL_GPIO_Init+0x5e>
 8002702:	21be      	movs	r1, #190	; 0xbe
 8002704:	48a0      	ldr	r0, [pc, #640]	; (8002988 <HAL_GPIO_Init+0x2dc>)
 8002706:	f7ff f989 	bl	8001a1c <assert_failed>
 800270a:	686b      	ldr	r3, [r5, #4]
 800270c:	2b03      	cmp	r3, #3
 800270e:	d917      	bls.n	8002740 <HAL_GPIO_Init+0x94>
 8002710:	f1a3 0211 	sub.w	r2, r3, #17
 8002714:	2a01      	cmp	r2, #1
 8002716:	d913      	bls.n	8002740 <HAL_GPIO_Init+0x94>
 8002718:	499c      	ldr	r1, [pc, #624]	; (800298c <HAL_GPIO_Init+0x2e0>)
 800271a:	f423 1200 	bic.w	r2, r3, #2097152	; 0x200000
 800271e:	428a      	cmp	r2, r1
 8002720:	d00e      	beq.n	8002740 <HAL_GPIO_Init+0x94>
 8002722:	f501 1180 	add.w	r1, r1, #1048576	; 0x100000
 8002726:	428b      	cmp	r3, r1
 8002728:	d00a      	beq.n	8002740 <HAL_GPIO_Init+0x94>
 800272a:	f5a1 2170 	sub.w	r1, r1, #983040	; 0xf0000
 800272e:	428a      	cmp	r2, r1
 8002730:	d006      	beq.n	8002740 <HAL_GPIO_Init+0x94>
 8002732:	4a97      	ldr	r2, [pc, #604]	; (8002990 <HAL_GPIO_Init+0x2e4>)
 8002734:	4293      	cmp	r3, r2
 8002736:	d003      	beq.n	8002740 <HAL_GPIO_Init+0x94>
 8002738:	21bf      	movs	r1, #191	; 0xbf
 800273a:	4893      	ldr	r0, [pc, #588]	; (8002988 <HAL_GPIO_Init+0x2dc>)
 800273c:	f7ff f96e 	bl	8001a1c <assert_failed>
 8002740:	2600      	movs	r6, #0
 8002742:	46b0      	mov	r8, r6
 8002744:	f8df a258 	ldr.w	sl, [pc, #600]	; 80029a0 <HAL_GPIO_Init+0x2f4>
 8002748:	f8df b258 	ldr.w	fp, [pc, #600]	; 80029a4 <HAL_GPIO_Init+0x2f8>
 800274c:	6829      	ldr	r1, [r5, #0]
 800274e:	fa31 f308 	lsrs.w	r3, r1, r8
 8002752:	d102      	bne.n	800275a <HAL_GPIO_Init+0xae>
 8002754:	b005      	add	sp, #20
 8002756:	e8bd 8ff0 	ldmia.w	sp!, {r4, r5, r6, r7, r8, r9, sl, fp, pc}
 800275a:	2201      	movs	r2, #1
 800275c:	fa02 f908 	lsl.w	r9, r2, r8
 8002760:	ea39 0301 	bics.w	r3, r9, r1
 8002764:	ea01 0709 	and.w	r7, r1, r9
 8002768:	f040 80a6 	bne.w	80028b8 <HAL_GPIO_Init+0x20c>
 800276c:	9b01      	ldr	r3, [sp, #4]
 800276e:	429c      	cmp	r4, r3
 8002770:	d019      	beq.n	80027a6 <HAL_GPIO_Init+0xfa>
 8002772:	4988      	ldr	r1, [pc, #544]	; (8002994 <HAL_GPIO_Init+0x2e8>)
 8002774:	428c      	cmp	r4, r1
 8002776:	d016      	beq.n	80027a6 <HAL_GPIO_Init+0xfa>
 8002778:	4b87      	ldr	r3, [pc, #540]	; (8002998 <HAL_GPIO_Init+0x2ec>)
 800277a:	429c      	cmp	r4, r3
 800277c:	d013      	beq.n	80027a6 <HAL_GPIO_Init+0xfa>
 800277e:	f501 6100 	add.w	r1, r1, #2048	; 0x800
 8002782:	428c      	cmp	r4, r1
 8002784:	d00f      	beq.n	80027a6 <HAL_GPIO_Init+0xfa>
 8002786:	f501 6180 	add.w	r1, r1, #1024	; 0x400
 800278a:	428c      	cmp	r4, r1
 800278c:	d00b      	beq.n	80027a6 <HAL_GPIO_Init+0xfa>
 800278e:	f501 6180 	add.w	r1, r1, #1024	; 0x400
 8002792:	428c      	cmp	r4, r1
 8002794:	d007      	beq.n	80027a6 <HAL_GPIO_Init+0xfa>
 8002796:	f501 6180 	add.w	r1, r1, #1024	; 0x400
 800279a:	428c      	cmp	r4, r1
 800279c:	d003      	beq.n	80027a6 <HAL_GPIO_Init+0xfa>
 800279e:	21cd      	movs	r1, #205	; 0xcd
 80027a0:	4879      	ldr	r0, [pc, #484]	; (8002988 <HAL_GPIO_Init+0x2dc>)
 80027a2:	f7ff f93b 	bl	8001a1c <assert_failed>
 80027a6:	6869      	ldr	r1, [r5, #4]
 80027a8:	2903      	cmp	r1, #3
 80027aa:	d808      	bhi.n	80027be <HAL_GPIO_Init+0x112>
 80027ac:	3901      	subs	r1, #1
 80027ae:	2902      	cmp	r1, #2
 80027b0:	f200 8096 	bhi.w	80028e0 <HAL_GPIO_Init+0x234>
 80027b4:	e8df f011 	tbh	[pc, r1, lsl #1]
 80027b8:	00c200ad 	.word	0x00c200ad
 80027bc:	00d8      	.short	0x00d8
 80027be:	2912      	cmp	r1, #18
 80027c0:	f000 80c7 	beq.w	8002952 <HAL_GPIO_Init+0x2a6>
 80027c4:	d87b      	bhi.n	80028be <HAL_GPIO_Init+0x212>
 80027c6:	2911      	cmp	r1, #17
 80027c8:	f000 80ad 	beq.w	8002926 <HAL_GPIO_Init+0x27a>
 80027cc:	2fff      	cmp	r7, #255	; 0xff
 80027ce:	bf98      	it	ls
 80027d0:	4622      	movls	r2, r4
 80027d2:	ea4f 0188 	mov.w	r1, r8, lsl #2
 80027d6:	bf98      	it	ls
 80027d8:	4608      	movls	r0, r1
 80027da:	f04f 0c0f 	mov.w	ip, #15
 80027de:	bf84      	itt	hi
 80027e0:	1d22      	addhi	r2, r4, #4
 80027e2:	f1a1 0020 	subhi.w	r0, r1, #32
 80027e6:	6811      	ldr	r1, [r2, #0]
 80027e8:	fa0c fe00 	lsl.w	lr, ip, r0
 80027ec:	ea21 010e 	bic.w	r1, r1, lr
 80027f0:	fa06 f000 	lsl.w	r0, r6, r0
 80027f4:	4301      	orrs	r1, r0
 80027f6:	6011      	str	r1, [r2, #0]
 80027f8:	6868      	ldr	r0, [r5, #4]
 80027fa:	00c3      	lsls	r3, r0, #3
 80027fc:	d55c      	bpl.n	80028b8 <HAL_GPIO_Init+0x20c>
 80027fe:	f8da 2018 	ldr.w	r2, [sl, #24]
 8002802:	f028 0103 	bic.w	r1, r8, #3
 8002806:	f042 0201 	orr.w	r2, r2, #1
 800280a:	f8ca 2018 	str.w	r2, [sl, #24]
 800280e:	f8da 2018 	ldr.w	r2, [sl, #24]
 8002812:	f101 4180 	add.w	r1, r1, #1073741824	; 0x40000000
 8002816:	f002 0201 	and.w	r2, r2, #1
 800281a:	9203      	str	r2, [sp, #12]
 800281c:	9b01      	ldr	r3, [sp, #4]
 800281e:	f501 3180 	add.w	r1, r1, #65536	; 0x10000
 8002822:	f008 0e03 	and.w	lr, r8, #3
 8002826:	9a03      	ldr	r2, [sp, #12]
 8002828:	ea4f 0e8e 	mov.w	lr, lr, lsl #2
 800282c:	688a      	ldr	r2, [r1, #8]
 800282e:	fa0c fc0e 	lsl.w	ip, ip, lr
 8002832:	429c      	cmp	r4, r3
 8002834:	ea22 0c0c 	bic.w	ip, r2, ip
 8002838:	f000 809a 	beq.w	8002970 <HAL_GPIO_Init+0x2c4>
 800283c:	4a55      	ldr	r2, [pc, #340]	; (8002994 <HAL_GPIO_Init+0x2e8>)
 800283e:	4294      	cmp	r4, r2
 8002840:	f000 8098 	beq.w	8002974 <HAL_GPIO_Init+0x2c8>
 8002844:	4b54      	ldr	r3, [pc, #336]	; (8002998 <HAL_GPIO_Init+0x2ec>)
 8002846:	429c      	cmp	r4, r3
 8002848:	f000 8096 	beq.w	8002978 <HAL_GPIO_Init+0x2cc>
 800284c:	f502 6200 	add.w	r2, r2, #2048	; 0x800
 8002850:	4294      	cmp	r4, r2
 8002852:	f000 8093 	beq.w	800297c <HAL_GPIO_Init+0x2d0>
 8002856:	f502 6280 	add.w	r2, r2, #1024	; 0x400
 800285a:	4294      	cmp	r4, r2
 800285c:	f000 8090 	beq.w	8002980 <HAL_GPIO_Init+0x2d4>
 8002860:	f502 6280 	add.w	r2, r2, #1024	; 0x400
 8002864:	4294      	cmp	r4, r2
 8002866:	bf0c      	ite	eq
 8002868:	2205      	moveq	r2, #5
 800286a:	2206      	movne	r2, #6
 800286c:	fa02 f20e 	lsl.w	r2, r2, lr
 8002870:	ea42 020c 	orr.w	r2, r2, ip
 8002874:	608a      	str	r2, [r1, #8]
 8002876:	f8db 2000 	ldr.w	r2, [fp]
 800287a:	03c1      	lsls	r1, r0, #15
 800287c:	bf4c      	ite	mi
 800287e:	433a      	orrmi	r2, r7
 8002880:	43ba      	bicpl	r2, r7
 8002882:	f8cb 2000 	str.w	r2, [fp]
 8002886:	f8db 2004 	ldr.w	r2, [fp, #4]
 800288a:	0383      	lsls	r3, r0, #14
 800288c:	bf4c      	ite	mi
 800288e:	433a      	orrmi	r2, r7
 8002890:	43ba      	bicpl	r2, r7
 8002892:	f8cb 2004 	str.w	r2, [fp, #4]
 8002896:	f8db 2008 	ldr.w	r2, [fp, #8]
 800289a:	02c1      	lsls	r1, r0, #11
 800289c:	bf4c      	ite	mi
 800289e:	433a      	orrmi	r2, r7
 80028a0:	43ba      	bicpl	r2, r7
 80028a2:	f8cb 2008 	str.w	r2, [fp, #8]
 80028a6:	f8db 200c 	ldr.w	r2, [fp, #12]
 80028aa:	0283      	lsls	r3, r0, #10
 80028ac:	bf4c      	ite	mi
 80028ae:	4317      	orrmi	r7, r2
 80028b0:	ea22 0707 	bicpl.w	r7, r2, r7
 80028b4:	f8cb 700c 	str.w	r7, [fp, #12]
 80028b8:	f108 0801 	add.w	r8, r8, #1
 80028bc:	e746      	b.n	800274c <HAL_GPIO_Init+0xa0>
 80028be:	4834      	ldr	r0, [pc, #208]	; (8002990 <HAL_GPIO_Init+0x2e4>)
 80028c0:	4281      	cmp	r1, r0
 80028c2:	d00d      	beq.n	80028e0 <HAL_GPIO_Init+0x234>
 80028c4:	d81f      	bhi.n	8002906 <HAL_GPIO_Init+0x25a>
 80028c6:	f5a0 1080 	sub.w	r0, r0, #1048576	; 0x100000
 80028ca:	4281      	cmp	r1, r0
 80028cc:	d008      	beq.n	80028e0 <HAL_GPIO_Init+0x234>
 80028ce:	f500 2070 	add.w	r0, r0, #983040	; 0xf0000
 80028d2:	4281      	cmp	r1, r0
 80028d4:	d004      	beq.n	80028e0 <HAL_GPIO_Init+0x234>
 80028d6:	f5a0 1080 	sub.w	r0, r0, #1048576	; 0x100000
 80028da:	4281      	cmp	r1, r0
 80028dc:	f47f af76 	bne.w	80027cc <HAL_GPIO_Init+0x120>
 80028e0:	68a9      	ldr	r1, [r5, #8]
 80028e2:	2902      	cmp	r1, #2
 80028e4:	d903      	bls.n	80028ee <HAL_GPIO_Init+0x242>
 80028e6:	21f7      	movs	r1, #247	; 0xf7
 80028e8:	4827      	ldr	r0, [pc, #156]	; (8002988 <HAL_GPIO_Init+0x2dc>)
 80028ea:	f7ff f897 	bl	8001a1c <assert_failed>
 80028ee:	68a9      	ldr	r1, [r5, #8]
 80028f0:	2900      	cmp	r1, #0
 80028f2:	d03b      	beq.n	800296c <HAL_GPIO_Init+0x2c0>
 80028f4:	2901      	cmp	r1, #1
 80028f6:	f04f 0608 	mov.w	r6, #8
 80028fa:	bf0c      	ite	eq
 80028fc:	f8c4 9010 	streq.w	r9, [r4, #16]
 8002900:	f8c4 9014 	strne.w	r9, [r4, #20]
 8002904:	e762      	b.n	80027cc <HAL_GPIO_Init+0x120>
 8002906:	4825      	ldr	r0, [pc, #148]	; (800299c <HAL_GPIO_Init+0x2f0>)
 8002908:	4281      	cmp	r1, r0
 800290a:	d0e9      	beq.n	80028e0 <HAL_GPIO_Init+0x234>
 800290c:	f500 3080 	add.w	r0, r0, #65536	; 0x10000
 8002910:	e7e3      	b.n	80028da <HAL_GPIO_Init+0x22e>
 8002912:	68ea      	ldr	r2, [r5, #12]
 8002914:	3a01      	subs	r2, #1
 8002916:	2a02      	cmp	r2, #2
 8002918:	d903      	bls.n	8002922 <HAL_GPIO_Init+0x276>
 800291a:	21d5      	movs	r1, #213	; 0xd5
 800291c:	481a      	ldr	r0, [pc, #104]	; (8002988 <HAL_GPIO_Init+0x2dc>)
 800291e:	f7ff f87d 	bl	8001a1c <assert_failed>
 8002922:	68ee      	ldr	r6, [r5, #12]
 8002924:	e752      	b.n	80027cc <HAL_GPIO_Init+0x120>
 8002926:	68ea      	ldr	r2, [r5, #12]
 8002928:	3a01      	subs	r2, #1
 800292a:	2a02      	cmp	r2, #2
 800292c:	d903      	bls.n	8002936 <HAL_GPIO_Init+0x28a>
 800292e:	21dc      	movs	r1, #220	; 0xdc
 8002930:	4815      	ldr	r0, [pc, #84]	; (8002988 <HAL_GPIO_Init+0x2dc>)
 8002932:	f7ff f873 	bl	8001a1c <assert_failed>
 8002936:	68ee      	ldr	r6, [r5, #12]
 8002938:	3604      	adds	r6, #4
 800293a:	e747      	b.n	80027cc <HAL_GPIO_Init+0x120>
 800293c:	68ea      	ldr	r2, [r5, #12]
 800293e:	3a01      	subs	r2, #1
 8002940:	2a02      	cmp	r2, #2
 8002942:	d903      	bls.n	800294c <HAL_GPIO_Init+0x2a0>
 8002944:	21e3      	movs	r1, #227	; 0xe3
 8002946:	4810      	ldr	r0, [pc, #64]	; (8002988 <HAL_GPIO_Init+0x2dc>)
 8002948:	f7ff f868 	bl	8001a1c <assert_failed>
 800294c:	68ee      	ldr	r6, [r5, #12]
 800294e:	3608      	adds	r6, #8
 8002950:	e73c      	b.n	80027cc <HAL_GPIO_Init+0x120>
 8002952:	68ea      	ldr	r2, [r5, #12]
 8002954:	3a01      	subs	r2, #1
 8002956:	2a02      	cmp	r2, #2
 8002958:	d903      	bls.n	8002962 <HAL_GPIO_Init+0x2b6>
 800295a:	21ea      	movs	r1, #234	; 0xea
 800295c:	480a      	ldr	r0, [pc, #40]	; (8002988 <HAL_GPIO_Init+0x2dc>)
 800295e:	f7ff f85d 	bl	8001a1c <assert_failed>
 8002962:	68ee      	ldr	r6, [r5, #12]
 8002964:	360c      	adds	r6, #12
 8002966:	e731      	b.n	80027cc <HAL_GPIO_Init+0x120>
 8002968:	2600      	movs	r6, #0
 800296a:	e72f      	b.n	80027cc <HAL_GPIO_Init+0x120>
 800296c:	2604      	movs	r6, #4
 800296e:	e72d      	b.n	80027cc <HAL_GPIO_Init+0x120>
 8002970:	2200      	movs	r2, #0
 8002972:	e77b      	b.n	800286c <HAL_GPIO_Init+0x1c0>
 8002974:	2201      	movs	r2, #1
 8002976:	e779      	b.n	800286c <HAL_GPIO_Init+0x1c0>
 8002978:	2202      	movs	r2, #2
 800297a:	e777      	b.n	800286c <HAL_GPIO_Init+0x1c0>
 800297c:	2203      	movs	r2, #3
 800297e:	e775      	b.n	800286c <HAL_GPIO_Init+0x1c0>
 8002980:	2204      	movs	r2, #4
 8002982:	e773      	b.n	800286c <HAL_GPIO_Init+0x1c0>
 8002984:	40010800 	.word	0x40010800
 8002988:	08009c5b 	.word	0x08009c5b
 800298c:	10110000 	.word	0x10110000
 8002990:	10220000 	.word	0x10220000
 8002994:	40010c00 	.word	0x40010c00
 8002998:	40011000 	.word	0x40011000
 800299c:	10310000 	.word	0x10310000
 80029a0:	40021000 	.word	0x40021000
 80029a4:	40010400 	.word	0x40010400

080029a8 <HAL_GPIO_WritePin>:
 80029a8:	b570      	push	{r4, r5, r6, lr}
 80029aa:	4605      	mov	r5, r0
 80029ac:	4616      	mov	r6, r2
 80029ae:	460c      	mov	r4, r1
 80029b0:	b921      	cbnz	r1, 80029bc <HAL_GPIO_WritePin+0x14>
 80029b2:	f44f 71ea 	mov.w	r1, #468	; 0x1d4
 80029b6:	4808      	ldr	r0, [pc, #32]	; (80029d8 <HAL_GPIO_WritePin+0x30>)
 80029b8:	f7ff f830 	bl	8001a1c <assert_failed>
 80029bc:	2e01      	cmp	r6, #1
 80029be:	d906      	bls.n	80029ce <HAL_GPIO_WritePin+0x26>
 80029c0:	f240 11d5 	movw	r1, #469	; 0x1d5
 80029c4:	4804      	ldr	r0, [pc, #16]	; (80029d8 <HAL_GPIO_WritePin+0x30>)
 80029c6:	f7ff f829 	bl	8001a1c <assert_failed>
 80029ca:	612c      	str	r4, [r5, #16]
 80029cc:	bd70      	pop	{r4, r5, r6, pc}
 80029ce:	2e00      	cmp	r6, #0
 80029d0:	d1fb      	bne.n	80029ca <HAL_GPIO_WritePin+0x22>
 80029d2:	0424      	lsls	r4, r4, #16
 80029d4:	e7f9      	b.n	80029ca <HAL_GPIO_WritePin+0x22>
 80029d6:	bf00      	nop
 80029d8:	08009c5b 	.word	0x08009c5b

080029dc <HAL_GPIO_TogglePin>:
 80029dc:	b538      	push	{r3, r4, r5, lr}
 80029de:	4605      	mov	r5, r0
 80029e0:	460c      	mov	r4, r1
 80029e2:	b921      	cbnz	r1, 80029ee <HAL_GPIO_TogglePin+0x12>
 80029e4:	f44f 71f6 	mov.w	r1, #492	; 0x1ec
 80029e8:	4805      	ldr	r0, [pc, #20]	; (8002a00 <HAL_GPIO_TogglePin+0x24>)
 80029ea:	f7ff f817 	bl	8001a1c <assert_failed>
 80029ee:	68e9      	ldr	r1, [r5, #12]
 80029f0:	ea04 0301 	and.w	r3, r4, r1
 80029f4:	ea24 0401 	bic.w	r4, r4, r1
 80029f8:	ea44 4403 	orr.w	r4, r4, r3, lsl #16
 80029fc:	612c      	str	r4, [r5, #16]
 80029fe:	bd38      	pop	{r3, r4, r5, pc}
 8002a00:	08009c5b 	.word	0x08009c5b

08002a04 <HAL_PWR_EnableBkUpAccess>:
 8002a04:	2201      	movs	r2, #1
 8002a06:	4b01      	ldr	r3, [pc, #4]	; (8002a0c <HAL_PWR_EnableBkUpAccess+0x8>)
 8002a08:	601a      	str	r2, [r3, #0]
 8002a0a:	4770      	bx	lr
 8002a0c:	420e0020 	.word	0x420e0020

08002a10 <HAL_RCC_OscConfig>:
 8002a10:	e92d 41f3 	stmdb	sp!, {r0, r1, r4, r5, r6, r7, r8, lr}
 8002a14:	4604      	mov	r4, r0
 8002a16:	b908      	cbnz	r0, 8002a1c <HAL_RCC_OscConfig+0xc>
 8002a18:	2001      	movs	r0, #1
 8002a1a:	e083      	b.n	8002b24 <HAL_RCC_OscConfig+0x114>
 8002a1c:	6803      	ldr	r3, [r0, #0]
 8002a1e:	b9ab      	cbnz	r3, 8002a4c <HAL_RCC_OscConfig+0x3c>
 8002a20:	6823      	ldr	r3, [r4, #0]
 8002a22:	0719      	lsls	r1, r3, #28
 8002a24:	f100 80c4 	bmi.w	8002bb0 <HAL_RCC_OscConfig+0x1a0>
 8002a28:	6823      	ldr	r3, [r4, #0]
 8002a2a:	075a      	lsls	r2, r3, #29
 8002a2c:	f100 80f6 	bmi.w	8002c1c <HAL_RCC_OscConfig+0x20c>
 8002a30:	69e3      	ldr	r3, [r4, #28]
 8002a32:	2b02      	cmp	r3, #2
 8002a34:	d904      	bls.n	8002a40 <HAL_RCC_OscConfig+0x30>
 8002a36:	f240 21af 	movw	r1, #687	; 0x2af
 8002a3a:	489b      	ldr	r0, [pc, #620]	; (8002ca8 <HAL_RCC_OscConfig+0x298>)
 8002a3c:	f7fe ffee 	bl	8001a1c <assert_failed>
 8002a40:	69e0      	ldr	r0, [r4, #28]
 8002a42:	2800      	cmp	r0, #0
 8002a44:	f040 8167 	bne.w	8002d16 <HAL_RCC_OscConfig+0x306>
 8002a48:	2000      	movs	r0, #0
 8002a4a:	e06b      	b.n	8002b24 <HAL_RCC_OscConfig+0x114>
 8002a4c:	071b      	lsls	r3, r3, #28
 8002a4e:	d104      	bne.n	8002a5a <HAL_RCC_OscConfig+0x4a>
 8002a50:	f240 1167 	movw	r1, #359	; 0x167
 8002a54:	4894      	ldr	r0, [pc, #592]	; (8002ca8 <HAL_RCC_OscConfig+0x298>)
 8002a56:	f7fe ffe1 	bl	8001a1c <assert_failed>
 8002a5a:	6823      	ldr	r3, [r4, #0]
 8002a5c:	07df      	lsls	r7, r3, #31
 8002a5e:	d51f      	bpl.n	8002aa0 <HAL_RCC_OscConfig+0x90>
 8002a60:	6863      	ldr	r3, [r4, #4]
 8002a62:	f433 3280 	bics.w	r2, r3, #65536	; 0x10000
 8002a66:	d007      	beq.n	8002a78 <HAL_RCC_OscConfig+0x68>
 8002a68:	f5b3 2fa0 	cmp.w	r3, #327680	; 0x50000
 8002a6c:	d004      	beq.n	8002a78 <HAL_RCC_OscConfig+0x68>
 8002a6e:	f240 116d 	movw	r1, #365	; 0x16d
 8002a72:	488d      	ldr	r0, [pc, #564]	; (8002ca8 <HAL_RCC_OscConfig+0x298>)
 8002a74:	f7fe ffd2 	bl	8001a1c <assert_failed>
 8002a78:	4d8c      	ldr	r5, [pc, #560]	; (8002cac <HAL_RCC_OscConfig+0x29c>)
 8002a7a:	686b      	ldr	r3, [r5, #4]
 8002a7c:	f003 030c 	and.w	r3, r3, #12
 8002a80:	2b04      	cmp	r3, #4
 8002a82:	d007      	beq.n	8002a94 <HAL_RCC_OscConfig+0x84>
 8002a84:	686b      	ldr	r3, [r5, #4]
 8002a86:	f003 030c 	and.w	r3, r3, #12
 8002a8a:	2b08      	cmp	r3, #8
 8002a8c:	d136      	bne.n	8002afc <HAL_RCC_OscConfig+0xec>
 8002a8e:	686b      	ldr	r3, [r5, #4]
 8002a90:	03de      	lsls	r6, r3, #15
 8002a92:	d533      	bpl.n	8002afc <HAL_RCC_OscConfig+0xec>
 8002a94:	682b      	ldr	r3, [r5, #0]
 8002a96:	039d      	lsls	r5, r3, #14
 8002a98:	d502      	bpl.n	8002aa0 <HAL_RCC_OscConfig+0x90>
 8002a9a:	6863      	ldr	r3, [r4, #4]
 8002a9c:	2b00      	cmp	r3, #0
 8002a9e:	d0bb      	beq.n	8002a18 <HAL_RCC_OscConfig+0x8>
 8002aa0:	6823      	ldr	r3, [r4, #0]
 8002aa2:	079a      	lsls	r2, r3, #30
 8002aa4:	d5bc      	bpl.n	8002a20 <HAL_RCC_OscConfig+0x10>
 8002aa6:	6923      	ldr	r3, [r4, #16]
 8002aa8:	2b01      	cmp	r3, #1
 8002aaa:	d904      	bls.n	8002ab6 <HAL_RCC_OscConfig+0xa6>
 8002aac:	f240 11a1 	movw	r1, #417	; 0x1a1
 8002ab0:	487d      	ldr	r0, [pc, #500]	; (8002ca8 <HAL_RCC_OscConfig+0x298>)
 8002ab2:	f7fe ffb3 	bl	8001a1c <assert_failed>
 8002ab6:	6963      	ldr	r3, [r4, #20]
 8002ab8:	2b1f      	cmp	r3, #31
 8002aba:	d904      	bls.n	8002ac6 <HAL_RCC_OscConfig+0xb6>
 8002abc:	f44f 71d1 	mov.w	r1, #418	; 0x1a2
 8002ac0:	4879      	ldr	r0, [pc, #484]	; (8002ca8 <HAL_RCC_OscConfig+0x298>)
 8002ac2:	f7fe ffab 	bl	8001a1c <assert_failed>
 8002ac6:	4d79      	ldr	r5, [pc, #484]	; (8002cac <HAL_RCC_OscConfig+0x29c>)
 8002ac8:	686b      	ldr	r3, [r5, #4]
 8002aca:	f013 0f0c 	tst.w	r3, #12
 8002ace:	d007      	beq.n	8002ae0 <HAL_RCC_OscConfig+0xd0>
 8002ad0:	686b      	ldr	r3, [r5, #4]
 8002ad2:	f003 030c 	and.w	r3, r3, #12
 8002ad6:	2b08      	cmp	r3, #8
 8002ad8:	d14b      	bne.n	8002b72 <HAL_RCC_OscConfig+0x162>
 8002ada:	686b      	ldr	r3, [r5, #4]
 8002adc:	03da      	lsls	r2, r3, #15
 8002ade:	d448      	bmi.n	8002b72 <HAL_RCC_OscConfig+0x162>
 8002ae0:	682b      	ldr	r3, [r5, #0]
 8002ae2:	079b      	lsls	r3, r3, #30
 8002ae4:	d502      	bpl.n	8002aec <HAL_RCC_OscConfig+0xdc>
 8002ae6:	6923      	ldr	r3, [r4, #16]
 8002ae8:	2b01      	cmp	r3, #1
 8002aea:	d195      	bne.n	8002a18 <HAL_RCC_OscConfig+0x8>
 8002aec:	682b      	ldr	r3, [r5, #0]
 8002aee:	6962      	ldr	r2, [r4, #20]
 8002af0:	f023 03f8 	bic.w	r3, r3, #248	; 0xf8
 8002af4:	ea43 03c2 	orr.w	r3, r3, r2, lsl #3
 8002af8:	602b      	str	r3, [r5, #0]
 8002afa:	e791      	b.n	8002a20 <HAL_RCC_OscConfig+0x10>
 8002afc:	6863      	ldr	r3, [r4, #4]
 8002afe:	f5b3 3f80 	cmp.w	r3, #65536	; 0x10000
 8002b02:	d112      	bne.n	8002b2a <HAL_RCC_OscConfig+0x11a>
 8002b04:	682b      	ldr	r3, [r5, #0]
 8002b06:	f443 3380 	orr.w	r3, r3, #65536	; 0x10000
 8002b0a:	602b      	str	r3, [r5, #0]
 8002b0c:	f7ff fabc 	bl	8002088 <HAL_GetTick>
 8002b10:	4606      	mov	r6, r0
 8002b12:	682b      	ldr	r3, [r5, #0]
 8002b14:	0398      	lsls	r0, r3, #14
 8002b16:	d4c3      	bmi.n	8002aa0 <HAL_RCC_OscConfig+0x90>
 8002b18:	f7ff fab6 	bl	8002088 <HAL_GetTick>
 8002b1c:	1b80      	subs	r0, r0, r6
 8002b1e:	2864      	cmp	r0, #100	; 0x64
 8002b20:	d9f7      	bls.n	8002b12 <HAL_RCC_OscConfig+0x102>
 8002b22:	2003      	movs	r0, #3
 8002b24:	b002      	add	sp, #8
 8002b26:	e8bd 81f0 	ldmia.w	sp!, {r4, r5, r6, r7, r8, pc}
 8002b2a:	b99b      	cbnz	r3, 8002b54 <HAL_RCC_OscConfig+0x144>
 8002b2c:	682b      	ldr	r3, [r5, #0]
 8002b2e:	f423 3380 	bic.w	r3, r3, #65536	; 0x10000
 8002b32:	602b      	str	r3, [r5, #0]
 8002b34:	682b      	ldr	r3, [r5, #0]
 8002b36:	f423 2380 	bic.w	r3, r3, #262144	; 0x40000
 8002b3a:	602b      	str	r3, [r5, #0]
 8002b3c:	f7ff faa4 	bl	8002088 <HAL_GetTick>
 8002b40:	4606      	mov	r6, r0
 8002b42:	682b      	ldr	r3, [r5, #0]
 8002b44:	0399      	lsls	r1, r3, #14
 8002b46:	d5ab      	bpl.n	8002aa0 <HAL_RCC_OscConfig+0x90>
 8002b48:	f7ff fa9e 	bl	8002088 <HAL_GetTick>
 8002b4c:	1b80      	subs	r0, r0, r6
 8002b4e:	2864      	cmp	r0, #100	; 0x64
 8002b50:	d9f7      	bls.n	8002b42 <HAL_RCC_OscConfig+0x132>
 8002b52:	e7e6      	b.n	8002b22 <HAL_RCC_OscConfig+0x112>
 8002b54:	f5b3 2fa0 	cmp.w	r3, #327680	; 0x50000
 8002b58:	682b      	ldr	r3, [r5, #0]
 8002b5a:	d103      	bne.n	8002b64 <HAL_RCC_OscConfig+0x154>
 8002b5c:	f443 2380 	orr.w	r3, r3, #262144	; 0x40000
 8002b60:	602b      	str	r3, [r5, #0]
 8002b62:	e7cf      	b.n	8002b04 <HAL_RCC_OscConfig+0xf4>
 8002b64:	f423 3380 	bic.w	r3, r3, #65536	; 0x10000
 8002b68:	602b      	str	r3, [r5, #0]
 8002b6a:	682b      	ldr	r3, [r5, #0]
 8002b6c:	f423 2380 	bic.w	r3, r3, #262144	; 0x40000
 8002b70:	e7cb      	b.n	8002b0a <HAL_RCC_OscConfig+0xfa>
 8002b72:	6922      	ldr	r2, [r4, #16]
 8002b74:	4b4e      	ldr	r3, [pc, #312]	; (8002cb0 <HAL_RCC_OscConfig+0x2a0>)
 8002b76:	b16a      	cbz	r2, 8002b94 <HAL_RCC_OscConfig+0x184>
 8002b78:	2201      	movs	r2, #1
 8002b7a:	601a      	str	r2, [r3, #0]
 8002b7c:	f7ff fa84 	bl	8002088 <HAL_GetTick>
 8002b80:	4606      	mov	r6, r0
 8002b82:	682b      	ldr	r3, [r5, #0]
 8002b84:	079f      	lsls	r7, r3, #30
 8002b86:	d4b1      	bmi.n	8002aec <HAL_RCC_OscConfig+0xdc>
 8002b88:	f7ff fa7e 	bl	8002088 <HAL_GetTick>
 8002b8c:	1b80      	subs	r0, r0, r6
 8002b8e:	2802      	cmp	r0, #2
 8002b90:	d9f7      	bls.n	8002b82 <HAL_RCC_OscConfig+0x172>
 8002b92:	e7c6      	b.n	8002b22 <HAL_RCC_OscConfig+0x112>
 8002b94:	601a      	str	r2, [r3, #0]
 8002b96:	f7ff fa77 	bl	8002088 <HAL_GetTick>
 8002b9a:	4606      	mov	r6, r0
 8002b9c:	682b      	ldr	r3, [r5, #0]
 8002b9e:	0798      	lsls	r0, r3, #30
 8002ba0:	f57f af3e 	bpl.w	8002a20 <HAL_RCC_OscConfig+0x10>
 8002ba4:	f7ff fa70 	bl	8002088 <HAL_GetTick>
 8002ba8:	1b80      	subs	r0, r0, r6
 8002baa:	2802      	cmp	r0, #2
 8002bac:	d9f6      	bls.n	8002b9c <HAL_RCC_OscConfig+0x18c>
 8002bae:	e7b8      	b.n	8002b22 <HAL_RCC_OscConfig+0x112>
 8002bb0:	69a3      	ldr	r3, [r4, #24]
 8002bb2:	2b01      	cmp	r3, #1
 8002bb4:	d904      	bls.n	8002bc0 <HAL_RCC_OscConfig+0x1b0>
 8002bb6:	f44f 71f1 	mov.w	r1, #482	; 0x1e2
 8002bba:	483b      	ldr	r0, [pc, #236]	; (8002ca8 <HAL_RCC_OscConfig+0x298>)
 8002bbc:	f7fe ff2e 	bl	8001a1c <assert_failed>
 8002bc0:	69a2      	ldr	r2, [r4, #24]
 8002bc2:	4e3a      	ldr	r6, [pc, #232]	; (8002cac <HAL_RCC_OscConfig+0x29c>)
 8002bc4:	4b3b      	ldr	r3, [pc, #236]	; (8002cb4 <HAL_RCC_OscConfig+0x2a4>)
 8002bc6:	b1da      	cbz	r2, 8002c00 <HAL_RCC_OscConfig+0x1f0>
 8002bc8:	2201      	movs	r2, #1
 8002bca:	601a      	str	r2, [r3, #0]
 8002bcc:	f7ff fa5c 	bl	8002088 <HAL_GetTick>
 8002bd0:	4605      	mov	r5, r0
 8002bd2:	6a73      	ldr	r3, [r6, #36]	; 0x24
 8002bd4:	079b      	lsls	r3, r3, #30
 8002bd6:	d50d      	bpl.n	8002bf4 <HAL_RCC_OscConfig+0x1e4>
 8002bd8:	f44f 52fa 	mov.w	r2, #8000	; 0x1f40
 8002bdc:	4b36      	ldr	r3, [pc, #216]	; (8002cb8 <HAL_RCC_OscConfig+0x2a8>)
 8002bde:	681b      	ldr	r3, [r3, #0]
 8002be0:	fbb3 f3f2 	udiv	r3, r3, r2
 8002be4:	9301      	str	r3, [sp, #4]
 8002be6:	bf00      	nop
 8002be8:	9b01      	ldr	r3, [sp, #4]
 8002bea:	1e5a      	subs	r2, r3, #1
 8002bec:	9201      	str	r2, [sp, #4]
 8002bee:	2b00      	cmp	r3, #0
 8002bf0:	d1f9      	bne.n	8002be6 <HAL_RCC_OscConfig+0x1d6>
 8002bf2:	e719      	b.n	8002a28 <HAL_RCC_OscConfig+0x18>
 8002bf4:	f7ff fa48 	bl	8002088 <HAL_GetTick>
 8002bf8:	1b40      	subs	r0, r0, r5
 8002bfa:	2802      	cmp	r0, #2
 8002bfc:	d9e9      	bls.n	8002bd2 <HAL_RCC_OscConfig+0x1c2>
 8002bfe:	e790      	b.n	8002b22 <HAL_RCC_OscConfig+0x112>
 8002c00:	601a      	str	r2, [r3, #0]
 8002c02:	f7ff fa41 	bl	8002088 <HAL_GetTick>
 8002c06:	4605      	mov	r5, r0
 8002c08:	6a73      	ldr	r3, [r6, #36]	; 0x24
 8002c0a:	079f      	lsls	r7, r3, #30
 8002c0c:	f57f af0c 	bpl.w	8002a28 <HAL_RCC_OscConfig+0x18>
 8002c10:	f7ff fa3a 	bl	8002088 <HAL_GetTick>
 8002c14:	1b40      	subs	r0, r0, r5
 8002c16:	2802      	cmp	r0, #2
 8002c18:	d9f6      	bls.n	8002c08 <HAL_RCC_OscConfig+0x1f8>
 8002c1a:	e782      	b.n	8002b22 <HAL_RCC_OscConfig+0x112>
 8002c1c:	68e3      	ldr	r3, [r4, #12]
 8002c1e:	2b01      	cmp	r3, #1
 8002c20:	d906      	bls.n	8002c30 <HAL_RCC_OscConfig+0x220>
 8002c22:	2b05      	cmp	r3, #5
 8002c24:	d004      	beq.n	8002c30 <HAL_RCC_OscConfig+0x220>
 8002c26:	f240 2111 	movw	r1, #529	; 0x211
 8002c2a:	481f      	ldr	r0, [pc, #124]	; (8002ca8 <HAL_RCC_OscConfig+0x298>)
 8002c2c:	f7fe fef6 	bl	8001a1c <assert_failed>
 8002c30:	4d1e      	ldr	r5, [pc, #120]	; (8002cac <HAL_RCC_OscConfig+0x29c>)
 8002c32:	69eb      	ldr	r3, [r5, #28]
 8002c34:	00d8      	lsls	r0, r3, #3
 8002c36:	d424      	bmi.n	8002c82 <HAL_RCC_OscConfig+0x272>
 8002c38:	2701      	movs	r7, #1
 8002c3a:	69eb      	ldr	r3, [r5, #28]
 8002c3c:	f043 5380 	orr.w	r3, r3, #268435456	; 0x10000000
 8002c40:	61eb      	str	r3, [r5, #28]
 8002c42:	69eb      	ldr	r3, [r5, #28]
 8002c44:	f003 5380 	and.w	r3, r3, #268435456	; 0x10000000
 8002c48:	9300      	str	r3, [sp, #0]
 8002c4a:	9b00      	ldr	r3, [sp, #0]
 8002c4c:	4e1b      	ldr	r6, [pc, #108]	; (8002cbc <HAL_RCC_OscConfig+0x2ac>)
 8002c4e:	6833      	ldr	r3, [r6, #0]
 8002c50:	05d9      	lsls	r1, r3, #23
 8002c52:	d518      	bpl.n	8002c86 <HAL_RCC_OscConfig+0x276>
 8002c54:	68e3      	ldr	r3, [r4, #12]
 8002c56:	2b01      	cmp	r3, #1
 8002c58:	d132      	bne.n	8002cc0 <HAL_RCC_OscConfig+0x2b0>
 8002c5a:	6a2b      	ldr	r3, [r5, #32]
 8002c5c:	f043 0301 	orr.w	r3, r3, #1
 8002c60:	622b      	str	r3, [r5, #32]
 8002c62:	f7ff fa11 	bl	8002088 <HAL_GetTick>
 8002c66:	f241 3888 	movw	r8, #5000	; 0x1388
 8002c6a:	4606      	mov	r6, r0
 8002c6c:	6a2b      	ldr	r3, [r5, #32]
 8002c6e:	079b      	lsls	r3, r3, #30
 8002c70:	d54b      	bpl.n	8002d0a <HAL_RCC_OscConfig+0x2fa>
 8002c72:	2f00      	cmp	r7, #0
 8002c74:	f43f aedc 	beq.w	8002a30 <HAL_RCC_OscConfig+0x20>
 8002c78:	69eb      	ldr	r3, [r5, #28]
 8002c7a:	f023 5380 	bic.w	r3, r3, #268435456	; 0x10000000
 8002c7e:	61eb      	str	r3, [r5, #28]
 8002c80:	e6d6      	b.n	8002a30 <HAL_RCC_OscConfig+0x20>
 8002c82:	2700      	movs	r7, #0
 8002c84:	e7e2      	b.n	8002c4c <HAL_RCC_OscConfig+0x23c>
 8002c86:	6833      	ldr	r3, [r6, #0]
 8002c88:	f443 7380 	orr.w	r3, r3, #256	; 0x100
 8002c8c:	6033      	str	r3, [r6, #0]
 8002c8e:	f7ff f9fb 	bl	8002088 <HAL_GetTick>
 8002c92:	4680      	mov	r8, r0
 8002c94:	6833      	ldr	r3, [r6, #0]
 8002c96:	05da      	lsls	r2, r3, #23
 8002c98:	d4dc      	bmi.n	8002c54 <HAL_RCC_OscConfig+0x244>
 8002c9a:	f7ff f9f5 	bl	8002088 <HAL_GetTick>
 8002c9e:	eba0 0008 	sub.w	r0, r0, r8
 8002ca2:	2864      	cmp	r0, #100	; 0x64
 8002ca4:	d9f6      	bls.n	8002c94 <HAL_RCC_OscConfig+0x284>
 8002ca6:	e73c      	b.n	8002b22 <HAL_RCC_OscConfig+0x112>
 8002ca8:	08009c94 	.word	0x08009c94
 8002cac:	40021000 	.word	0x40021000
 8002cb0:	42420000 	.word	0x42420000
 8002cb4:	42420480 	.word	0x42420480
 8002cb8:	20000000 	.word	0x20000000
 8002cbc:	40007000 	.word	0x40007000
 8002cc0:	b9ab      	cbnz	r3, 8002cee <HAL_RCC_OscConfig+0x2de>
 8002cc2:	6a2b      	ldr	r3, [r5, #32]
 8002cc4:	f241 3888 	movw	r8, #5000	; 0x1388
 8002cc8:	f023 0301 	bic.w	r3, r3, #1
 8002ccc:	622b      	str	r3, [r5, #32]
 8002cce:	6a2b      	ldr	r3, [r5, #32]
 8002cd0:	f023 0304 	bic.w	r3, r3, #4
 8002cd4:	622b      	str	r3, [r5, #32]
 8002cd6:	f7ff f9d7 	bl	8002088 <HAL_GetTick>
 8002cda:	4606      	mov	r6, r0
 8002cdc:	6a2b      	ldr	r3, [r5, #32]
 8002cde:	0798      	lsls	r0, r3, #30
 8002ce0:	d5c7      	bpl.n	8002c72 <HAL_RCC_OscConfig+0x262>
 8002ce2:	f7ff f9d1 	bl	8002088 <HAL_GetTick>
 8002ce6:	1b80      	subs	r0, r0, r6
 8002ce8:	4540      	cmp	r0, r8
 8002cea:	d9f7      	bls.n	8002cdc <HAL_RCC_OscConfig+0x2cc>
 8002cec:	e719      	b.n	8002b22 <HAL_RCC_OscConfig+0x112>
 8002cee:	2b05      	cmp	r3, #5
 8002cf0:	6a2b      	ldr	r3, [r5, #32]
 8002cf2:	d103      	bne.n	8002cfc <HAL_RCC_OscConfig+0x2ec>
 8002cf4:	f043 0304 	orr.w	r3, r3, #4
 8002cf8:	622b      	str	r3, [r5, #32]
 8002cfa:	e7ae      	b.n	8002c5a <HAL_RCC_OscConfig+0x24a>
 8002cfc:	f023 0301 	bic.w	r3, r3, #1
 8002d00:	622b      	str	r3, [r5, #32]
 8002d02:	6a2b      	ldr	r3, [r5, #32]
 8002d04:	f023 0304 	bic.w	r3, r3, #4
 8002d08:	e7aa      	b.n	8002c60 <HAL_RCC_OscConfig+0x250>
 8002d0a:	f7ff f9bd 	bl	8002088 <HAL_GetTick>
 8002d0e:	1b80      	subs	r0, r0, r6
 8002d10:	4540      	cmp	r0, r8
 8002d12:	d9ab      	bls.n	8002c6c <HAL_RCC_OscConfig+0x25c>
 8002d14:	e705      	b.n	8002b22 <HAL_RCC_OscConfig+0x112>
 8002d16:	4b41      	ldr	r3, [pc, #260]	; (8002e1c <HAL_RCC_OscConfig+0x40c>)
 8002d18:	685a      	ldr	r2, [r3, #4]
 8002d1a:	461d      	mov	r5, r3
 8002d1c:	f002 020c 	and.w	r2, r2, #12
 8002d20:	2a08      	cmp	r2, #8
 8002d22:	d069      	beq.n	8002df8 <HAL_RCC_OscConfig+0x3e8>
 8002d24:	2802      	cmp	r0, #2
 8002d26:	4e3e      	ldr	r6, [pc, #248]	; (8002e20 <HAL_RCC_OscConfig+0x410>)
 8002d28:	d157      	bne.n	8002dda <HAL_RCC_OscConfig+0x3ca>
 8002d2a:	6a23      	ldr	r3, [r4, #32]
 8002d2c:	f433 3380 	bics.w	r3, r3, #65536	; 0x10000
 8002d30:	d004      	beq.n	8002d3c <HAL_RCC_OscConfig+0x32c>
 8002d32:	f44f 712e 	mov.w	r1, #696	; 0x2b8
 8002d36:	483b      	ldr	r0, [pc, #236]	; (8002e24 <HAL_RCC_OscConfig+0x414>)
 8002d38:	f7fe fe70 	bl	8001a1c <assert_failed>
 8002d3c:	6a63      	ldr	r3, [r4, #36]	; 0x24
 8002d3e:	f433 2240 	bics.w	r2, r3, #786432	; 0xc0000
 8002d42:	f423 2180 	bic.w	r1, r3, #262144	; 0x40000
 8002d46:	d010      	beq.n	8002d6a <HAL_RCC_OscConfig+0x35a>
 8002d48:	f5b2 1f80 	cmp.w	r2, #1048576	; 0x100000
 8002d4c:	d00d      	beq.n	8002d6a <HAL_RCC_OscConfig+0x35a>
 8002d4e:	f5b2 1f00 	cmp.w	r2, #2097152	; 0x200000
 8002d52:	d00a      	beq.n	8002d6a <HAL_RCC_OscConfig+0x35a>
 8002d54:	f5b1 1f40 	cmp.w	r1, #3145728	; 0x300000
 8002d58:	d007      	beq.n	8002d6a <HAL_RCC_OscConfig+0x35a>
 8002d5a:	f5b3 1f60 	cmp.w	r3, #3670016	; 0x380000
 8002d5e:	d004      	beq.n	8002d6a <HAL_RCC_OscConfig+0x35a>
 8002d60:	f240 21b9 	movw	r1, #697	; 0x2b9
 8002d64:	482f      	ldr	r0, [pc, #188]	; (8002e24 <HAL_RCC_OscConfig+0x414>)
 8002d66:	f7fe fe59 	bl	8001a1c <assert_failed>
 8002d6a:	2300      	movs	r3, #0
 8002d6c:	6033      	str	r3, [r6, #0]
 8002d6e:	f7ff f98b 	bl	8002088 <HAL_GetTick>
 8002d72:	4607      	mov	r7, r0
 8002d74:	682b      	ldr	r3, [r5, #0]
 8002d76:	0199      	lsls	r1, r3, #6
 8002d78:	d429      	bmi.n	8002dce <HAL_RCC_OscConfig+0x3be>
 8002d7a:	6a23      	ldr	r3, [r4, #32]
 8002d7c:	f5b3 3f80 	cmp.w	r3, #65536	; 0x10000
 8002d80:	d10e      	bne.n	8002da0 <HAL_RCC_OscConfig+0x390>
 8002d82:	68a3      	ldr	r3, [r4, #8]
 8002d84:	f433 3300 	bics.w	r3, r3, #131072	; 0x20000
 8002d88:	d004      	beq.n	8002d94 <HAL_RCC_OscConfig+0x384>
 8002d8a:	f240 21cf 	movw	r1, #719	; 0x2cf
 8002d8e:	4825      	ldr	r0, [pc, #148]	; (8002e24 <HAL_RCC_OscConfig+0x414>)
 8002d90:	f7fe fe44 	bl	8001a1c <assert_failed>
 8002d94:	686b      	ldr	r3, [r5, #4]
 8002d96:	68a2      	ldr	r2, [r4, #8]
 8002d98:	f423 3300 	bic.w	r3, r3, #131072	; 0x20000
 8002d9c:	4313      	orrs	r3, r2
 8002d9e:	606b      	str	r3, [r5, #4]
 8002da0:	686a      	ldr	r2, [r5, #4]
 8002da2:	e9d4 3108 	ldrd	r3, r1, [r4, #32]
 8002da6:	f422 1274 	bic.w	r2, r2, #3997696	; 0x3d0000
 8002daa:	430b      	orrs	r3, r1
 8002dac:	4313      	orrs	r3, r2
 8002dae:	606b      	str	r3, [r5, #4]
 8002db0:	2301      	movs	r3, #1
 8002db2:	6033      	str	r3, [r6, #0]
 8002db4:	f7ff f968 	bl	8002088 <HAL_GetTick>
 8002db8:	4604      	mov	r4, r0
 8002dba:	682b      	ldr	r3, [r5, #0]
 8002dbc:	019a      	lsls	r2, r3, #6
 8002dbe:	f53f ae43 	bmi.w	8002a48 <HAL_RCC_OscConfig+0x38>
 8002dc2:	f7ff f961 	bl	8002088 <HAL_GetTick>
 8002dc6:	1b00      	subs	r0, r0, r4
 8002dc8:	2802      	cmp	r0, #2
 8002dca:	d9f6      	bls.n	8002dba <HAL_RCC_OscConfig+0x3aa>
 8002dcc:	e6a9      	b.n	8002b22 <HAL_RCC_OscConfig+0x112>
 8002dce:	f7ff f95b 	bl	8002088 <HAL_GetTick>
 8002dd2:	1bc0      	subs	r0, r0, r7
 8002dd4:	2802      	cmp	r0, #2
 8002dd6:	d9cd      	bls.n	8002d74 <HAL_RCC_OscConfig+0x364>
 8002dd8:	e6a3      	b.n	8002b22 <HAL_RCC_OscConfig+0x112>
 8002dda:	2300      	movs	r3, #0
 8002ddc:	6033      	str	r3, [r6, #0]
 8002dde:	f7ff f953 	bl	8002088 <HAL_GetTick>
 8002de2:	4604      	mov	r4, r0
 8002de4:	682b      	ldr	r3, [r5, #0]
 8002de6:	019b      	lsls	r3, r3, #6
 8002de8:	f57f ae2e 	bpl.w	8002a48 <HAL_RCC_OscConfig+0x38>
 8002dec:	f7ff f94c 	bl	8002088 <HAL_GetTick>
 8002df0:	1b00      	subs	r0, r0, r4
 8002df2:	2802      	cmp	r0, #2
 8002df4:	d9f6      	bls.n	8002de4 <HAL_RCC_OscConfig+0x3d4>
 8002df6:	e694      	b.n	8002b22 <HAL_RCC_OscConfig+0x112>
 8002df8:	2801      	cmp	r0, #1
 8002dfa:	f43f ae93 	beq.w	8002b24 <HAL_RCC_OscConfig+0x114>
 8002dfe:	6858      	ldr	r0, [r3, #4]
 8002e00:	6a23      	ldr	r3, [r4, #32]
 8002e02:	f400 3280 	and.w	r2, r0, #65536	; 0x10000
 8002e06:	429a      	cmp	r2, r3
 8002e08:	f47f ae06 	bne.w	8002a18 <HAL_RCC_OscConfig+0x8>
 8002e0c:	6a63      	ldr	r3, [r4, #36]	; 0x24
 8002e0e:	f400 1070 	and.w	r0, r0, #3932160	; 0x3c0000
 8002e12:	1ac0      	subs	r0, r0, r3
 8002e14:	bf18      	it	ne
 8002e16:	2001      	movne	r0, #1
 8002e18:	e684      	b.n	8002b24 <HAL_RCC_OscConfig+0x114>
 8002e1a:	bf00      	nop
 8002e1c:	40021000 	.word	0x40021000
 8002e20:	42420060 	.word	0x42420060
 8002e24:	08009c94 	.word	0x08009c94

08002e28 <HAL_RCC_GetSysClockFreq>:
 8002e28:	b530      	push	{r4, r5, lr}
 8002e2a:	4b18      	ldr	r3, [pc, #96]	; (8002e8c <HAL_RCC_GetSysClockFreq+0x64>)
 8002e2c:	b087      	sub	sp, #28
 8002e2e:	ac02      	add	r4, sp, #8
 8002e30:	f103 0510 	add.w	r5, r3, #16
 8002e34:	4622      	mov	r2, r4
 8002e36:	6818      	ldr	r0, [r3, #0]
 8002e38:	6859      	ldr	r1, [r3, #4]
 8002e3a:	3308      	adds	r3, #8
 8002e3c:	c203      	stmia	r2!, {r0, r1}
 8002e3e:	42ab      	cmp	r3, r5
 8002e40:	4614      	mov	r4, r2
 8002e42:	d1f7      	bne.n	8002e34 <HAL_RCC_GetSysClockFreq+0xc>
 8002e44:	f240 2301 	movw	r3, #513	; 0x201
 8002e48:	4911      	ldr	r1, [pc, #68]	; (8002e90 <HAL_RCC_GetSysClockFreq+0x68>)
 8002e4a:	f8ad 3004 	strh.w	r3, [sp, #4]
 8002e4e:	684b      	ldr	r3, [r1, #4]
 8002e50:	f003 020c 	and.w	r2, r3, #12
 8002e54:	2a08      	cmp	r2, #8
 8002e56:	d117      	bne.n	8002e88 <HAL_RCC_GetSysClockFreq+0x60>
 8002e58:	f3c3 4283 	ubfx	r2, r3, #18, #4
 8002e5c:	a806      	add	r0, sp, #24
 8002e5e:	4402      	add	r2, r0
 8002e60:	03db      	lsls	r3, r3, #15
 8002e62:	f812 2c10 	ldrb.w	r2, [r2, #-16]
 8002e66:	d50c      	bpl.n	8002e82 <HAL_RCC_GetSysClockFreq+0x5a>
 8002e68:	684b      	ldr	r3, [r1, #4]
 8002e6a:	480a      	ldr	r0, [pc, #40]	; (8002e94 <HAL_RCC_GetSysClockFreq+0x6c>)
 8002e6c:	f3c3 4340 	ubfx	r3, r3, #17, #1
 8002e70:	4350      	muls	r0, r2
 8002e72:	aa06      	add	r2, sp, #24
 8002e74:	4413      	add	r3, r2
 8002e76:	f813 3c14 	ldrb.w	r3, [r3, #-20]
 8002e7a:	fbb0 f0f3 	udiv	r0, r0, r3
 8002e7e:	b007      	add	sp, #28
 8002e80:	bd30      	pop	{r4, r5, pc}
 8002e82:	4805      	ldr	r0, [pc, #20]	; (8002e98 <HAL_RCC_GetSysClockFreq+0x70>)
 8002e84:	4350      	muls	r0, r2
 8002e86:	e7fa      	b.n	8002e7e <HAL_RCC_GetSysClockFreq+0x56>
 8002e88:	4802      	ldr	r0, [pc, #8]	; (8002e94 <HAL_RCC_GetSysClockFreq+0x6c>)
 8002e8a:	e7f8      	b.n	8002e7e <HAL_RCC_GetSysClockFreq+0x56>
 8002e8c:	08009ccc 	.word	0x08009ccc
 8002e90:	40021000 	.word	0x40021000
 8002e94:	007a1200 	.word	0x007a1200
 8002e98:	003d0900 	.word	0x003d0900

08002e9c <HAL_RCC_ClockConfig>:
 8002e9c:	e92d 41f0 	stmdb	sp!, {r4, r5, r6, r7, r8, lr}
 8002ea0:	460d      	mov	r5, r1
 8002ea2:	4604      	mov	r4, r0
 8002ea4:	b910      	cbnz	r0, 8002eac <HAL_RCC_ClockConfig+0x10>
 8002ea6:	2001      	movs	r0, #1
 8002ea8:	e8bd 81f0 	ldmia.w	sp!, {r4, r5, r6, r7, r8, pc}
 8002eac:	6803      	ldr	r3, [r0, #0]
 8002eae:	071e      	lsls	r6, r3, #28
 8002eb0:	d104      	bne.n	8002ebc <HAL_RCC_ClockConfig+0x20>
 8002eb2:	f44f 714e 	mov.w	r1, #824	; 0x338
 8002eb6:	486d      	ldr	r0, [pc, #436]	; (800306c <HAL_RCC_ClockConfig+0x1d0>)
 8002eb8:	f7fe fdb0 	bl	8001a1c <assert_failed>
 8002ebc:	2d02      	cmp	r5, #2
 8002ebe:	d904      	bls.n	8002eca <HAL_RCC_ClockConfig+0x2e>
 8002ec0:	f240 3139 	movw	r1, #825	; 0x339
 8002ec4:	4869      	ldr	r0, [pc, #420]	; (800306c <HAL_RCC_ClockConfig+0x1d0>)
 8002ec6:	f7fe fda9 	bl	8001a1c <assert_failed>
 8002eca:	4a69      	ldr	r2, [pc, #420]	; (8003070 <HAL_RCC_ClockConfig+0x1d4>)
 8002ecc:	6813      	ldr	r3, [r2, #0]
 8002ece:	f003 0307 	and.w	r3, r3, #7
 8002ed2:	42ab      	cmp	r3, r5
 8002ed4:	d33d      	bcc.n	8002f52 <HAL_RCC_ClockConfig+0xb6>
 8002ed6:	6823      	ldr	r3, [r4, #0]
 8002ed8:	0798      	lsls	r0, r3, #30
 8002eda:	d445      	bmi.n	8002f68 <HAL_RCC_ClockConfig+0xcc>
 8002edc:	6823      	ldr	r3, [r4, #0]
 8002ede:	07da      	lsls	r2, r3, #31
 8002ee0:	d46e      	bmi.n	8002fc0 <HAL_RCC_ClockConfig+0x124>
 8002ee2:	4a63      	ldr	r2, [pc, #396]	; (8003070 <HAL_RCC_ClockConfig+0x1d4>)
 8002ee4:	6813      	ldr	r3, [r2, #0]
 8002ee6:	f003 0307 	and.w	r3, r3, #7
 8002eea:	42ab      	cmp	r3, r5
 8002eec:	f200 809a 	bhi.w	8003024 <HAL_RCC_ClockConfig+0x188>
 8002ef0:	6823      	ldr	r3, [r4, #0]
 8002ef2:	4d60      	ldr	r5, [pc, #384]	; (8003074 <HAL_RCC_ClockConfig+0x1d8>)
 8002ef4:	f013 0f04 	tst.w	r3, #4
 8002ef8:	f040 80a0 	bne.w	800303c <HAL_RCC_ClockConfig+0x1a0>
 8002efc:	6823      	ldr	r3, [r4, #0]
 8002efe:	071b      	lsls	r3, r3, #28
 8002f00:	d517      	bpl.n	8002f32 <HAL_RCC_ClockConfig+0x96>
 8002f02:	6923      	ldr	r3, [r4, #16]
 8002f04:	f433 6280 	bics.w	r2, r3, #1024	; 0x400
 8002f08:	d00c      	beq.n	8002f24 <HAL_RCC_ClockConfig+0x88>
 8002f0a:	f423 7200 	bic.w	r2, r3, #512	; 0x200
 8002f0e:	f5b2 6fa0 	cmp.w	r2, #1280	; 0x500
 8002f12:	d007      	beq.n	8002f24 <HAL_RCC_ClockConfig+0x88>
 8002f14:	f5b3 6fc0 	cmp.w	r3, #1536	; 0x600
 8002f18:	d004      	beq.n	8002f24 <HAL_RCC_ClockConfig+0x88>
 8002f1a:	f240 31ab 	movw	r1, #939	; 0x3ab
 8002f1e:	4853      	ldr	r0, [pc, #332]	; (800306c <HAL_RCC_ClockConfig+0x1d0>)
 8002f20:	f7fe fd7c 	bl	8001a1c <assert_failed>
 8002f24:	686b      	ldr	r3, [r5, #4]
 8002f26:	6922      	ldr	r2, [r4, #16]
 8002f28:	f423 5360 	bic.w	r3, r3, #14336	; 0x3800
 8002f2c:	ea43 03c2 	orr.w	r3, r3, r2, lsl #3
 8002f30:	606b      	str	r3, [r5, #4]
 8002f32:	f7ff ff79 	bl	8002e28 <HAL_RCC_GetSysClockFreq>
 8002f36:	686b      	ldr	r3, [r5, #4]
 8002f38:	4a4f      	ldr	r2, [pc, #316]	; (8003078 <HAL_RCC_ClockConfig+0x1dc>)
 8002f3a:	f3c3 1303 	ubfx	r3, r3, #4, #4
 8002f3e:	5cd3      	ldrb	r3, [r2, r3]
 8002f40:	40d8      	lsrs	r0, r3
 8002f42:	4b4e      	ldr	r3, [pc, #312]	; (800307c <HAL_RCC_ClockConfig+0x1e0>)
 8002f44:	6018      	str	r0, [r3, #0]
 8002f46:	4b4e      	ldr	r3, [pc, #312]	; (8003080 <HAL_RCC_ClockConfig+0x1e4>)
 8002f48:	6818      	ldr	r0, [r3, #0]
 8002f4a:	f7ff f85b 	bl	8002004 <HAL_InitTick>
 8002f4e:	2000      	movs	r0, #0
 8002f50:	e7aa      	b.n	8002ea8 <HAL_RCC_ClockConfig+0xc>
 8002f52:	6813      	ldr	r3, [r2, #0]
 8002f54:	f023 0307 	bic.w	r3, r3, #7
 8002f58:	432b      	orrs	r3, r5
 8002f5a:	6013      	str	r3, [r2, #0]
 8002f5c:	6813      	ldr	r3, [r2, #0]
 8002f5e:	f003 0307 	and.w	r3, r3, #7
 8002f62:	42ab      	cmp	r3, r5
 8002f64:	d19f      	bne.n	8002ea6 <HAL_RCC_ClockConfig+0xa>
 8002f66:	e7b6      	b.n	8002ed6 <HAL_RCC_ClockConfig+0x3a>
 8002f68:	4e42      	ldr	r6, [pc, #264]	; (8003074 <HAL_RCC_ClockConfig+0x1d8>)
 8002f6a:	f013 0f04 	tst.w	r3, #4
 8002f6e:	bf1e      	ittt	ne
 8002f70:	6872      	ldrne	r2, [r6, #4]
 8002f72:	f442 62e0 	orrne.w	r2, r2, #1792	; 0x700
 8002f76:	6072      	strne	r2, [r6, #4]
 8002f78:	0719      	lsls	r1, r3, #28
 8002f7a:	bf42      	ittt	mi
 8002f7c:	6873      	ldrmi	r3, [r6, #4]
 8002f7e:	f443 5360 	orrmi.w	r3, r3, #14336	; 0x3800
 8002f82:	6073      	strmi	r3, [r6, #4]
 8002f84:	68a3      	ldr	r3, [r4, #8]
 8002f86:	f033 0280 	bics.w	r2, r3, #128	; 0x80
 8002f8a:	d012      	beq.n	8002fb2 <HAL_RCC_ClockConfig+0x116>
 8002f8c:	f023 0220 	bic.w	r2, r3, #32
 8002f90:	2a90      	cmp	r2, #144	; 0x90
 8002f92:	d00e      	beq.n	8002fb2 <HAL_RCC_ClockConfig+0x116>
 8002f94:	f023 0240 	bic.w	r2, r3, #64	; 0x40
 8002f98:	2aa0      	cmp	r2, #160	; 0xa0
 8002f9a:	d00a      	beq.n	8002fb2 <HAL_RCC_ClockConfig+0x116>
 8002f9c:	f023 0210 	bic.w	r2, r3, #16
 8002fa0:	2ac0      	cmp	r2, #192	; 0xc0
 8002fa2:	d006      	beq.n	8002fb2 <HAL_RCC_ClockConfig+0x116>
 8002fa4:	2bf0      	cmp	r3, #240	; 0xf0
 8002fa6:	d004      	beq.n	8002fb2 <HAL_RCC_ClockConfig+0x116>
 8002fa8:	f240 315f 	movw	r1, #863	; 0x35f
 8002fac:	482f      	ldr	r0, [pc, #188]	; (800306c <HAL_RCC_ClockConfig+0x1d0>)
 8002fae:	f7fe fd35 	bl	8001a1c <assert_failed>
 8002fb2:	6873      	ldr	r3, [r6, #4]
 8002fb4:	68a2      	ldr	r2, [r4, #8]
 8002fb6:	f023 03f0 	bic.w	r3, r3, #240	; 0xf0
 8002fba:	4313      	orrs	r3, r2
 8002fbc:	6073      	str	r3, [r6, #4]
 8002fbe:	e78d      	b.n	8002edc <HAL_RCC_ClockConfig+0x40>
 8002fc0:	6863      	ldr	r3, [r4, #4]
 8002fc2:	2b02      	cmp	r3, #2
 8002fc4:	d904      	bls.n	8002fd0 <HAL_RCC_ClockConfig+0x134>
 8002fc6:	f240 3166 	movw	r1, #870	; 0x366
 8002fca:	4828      	ldr	r0, [pc, #160]	; (800306c <HAL_RCC_ClockConfig+0x1d0>)
 8002fcc:	f7fe fd26 	bl	8001a1c <assert_failed>
 8002fd0:	6862      	ldr	r2, [r4, #4]
 8002fd2:	4e28      	ldr	r6, [pc, #160]	; (8003074 <HAL_RCC_ClockConfig+0x1d8>)
 8002fd4:	2a01      	cmp	r2, #1
 8002fd6:	6833      	ldr	r3, [r6, #0]
 8002fd8:	d11c      	bne.n	8003014 <HAL_RCC_ClockConfig+0x178>
 8002fda:	f413 3f00 	tst.w	r3, #131072	; 0x20000
 8002fde:	f43f af62 	beq.w	8002ea6 <HAL_RCC_ClockConfig+0xa>
 8002fe2:	6873      	ldr	r3, [r6, #4]
 8002fe4:	f241 3888 	movw	r8, #5000	; 0x1388
 8002fe8:	f023 0303 	bic.w	r3, r3, #3
 8002fec:	4313      	orrs	r3, r2
 8002fee:	6073      	str	r3, [r6, #4]
 8002ff0:	f7ff f84a 	bl	8002088 <HAL_GetTick>
 8002ff4:	4607      	mov	r7, r0
 8002ff6:	6873      	ldr	r3, [r6, #4]
 8002ff8:	6862      	ldr	r2, [r4, #4]
 8002ffa:	f003 030c 	and.w	r3, r3, #12
 8002ffe:	ebb3 0f82 	cmp.w	r3, r2, lsl #2
 8003002:	f43f af6e 	beq.w	8002ee2 <HAL_RCC_ClockConfig+0x46>
 8003006:	f7ff f83f 	bl	8002088 <HAL_GetTick>
 800300a:	1bc0      	subs	r0, r0, r7
 800300c:	4540      	cmp	r0, r8
 800300e:	d9f2      	bls.n	8002ff6 <HAL_RCC_ClockConfig+0x15a>
 8003010:	2003      	movs	r0, #3
 8003012:	e749      	b.n	8002ea8 <HAL_RCC_ClockConfig+0xc>
 8003014:	2a02      	cmp	r2, #2
 8003016:	d102      	bne.n	800301e <HAL_RCC_ClockConfig+0x182>
 8003018:	f013 7f00 	tst.w	r3, #33554432	; 0x2000000
 800301c:	e7df      	b.n	8002fde <HAL_RCC_ClockConfig+0x142>
 800301e:	f013 0f02 	tst.w	r3, #2
 8003022:	e7dc      	b.n	8002fde <HAL_RCC_ClockConfig+0x142>
 8003024:	6813      	ldr	r3, [r2, #0]
 8003026:	f023 0307 	bic.w	r3, r3, #7
 800302a:	432b      	orrs	r3, r5
 800302c:	6013      	str	r3, [r2, #0]
 800302e:	6813      	ldr	r3, [r2, #0]
 8003030:	f003 0307 	and.w	r3, r3, #7
 8003034:	42ab      	cmp	r3, r5
 8003036:	f47f af36 	bne.w	8002ea6 <HAL_RCC_ClockConfig+0xa>
 800303a:	e759      	b.n	8002ef0 <HAL_RCC_ClockConfig+0x54>
 800303c:	68e3      	ldr	r3, [r4, #12]
 800303e:	f433 6280 	bics.w	r2, r3, #1024	; 0x400
 8003042:	d00c      	beq.n	800305e <HAL_RCC_ClockConfig+0x1c2>
 8003044:	f423 7200 	bic.w	r2, r3, #512	; 0x200
 8003048:	f5b2 6fa0 	cmp.w	r2, #1280	; 0x500
 800304c:	d007      	beq.n	800305e <HAL_RCC_ClockConfig+0x1c2>
 800304e:	f5b3 6fc0 	cmp.w	r3, #1536	; 0x600
 8003052:	d004      	beq.n	800305e <HAL_RCC_ClockConfig+0x1c2>
 8003054:	f44f 7169 	mov.w	r1, #932	; 0x3a4
 8003058:	4804      	ldr	r0, [pc, #16]	; (800306c <HAL_RCC_ClockConfig+0x1d0>)
 800305a:	f7fe fcdf 	bl	8001a1c <assert_failed>
 800305e:	686b      	ldr	r3, [r5, #4]
 8003060:	68e2      	ldr	r2, [r4, #12]
 8003062:	f423 63e0 	bic.w	r3, r3, #1792	; 0x700
 8003066:	4313      	orrs	r3, r2
 8003068:	606b      	str	r3, [r5, #4]
 800306a:	e747      	b.n	8002efc <HAL_RCC_ClockConfig+0x60>
 800306c:	08009c94 	.word	0x08009c94
 8003070:	40022000 	.word	0x40022000
 8003074:	40021000 	.word	0x40021000
 8003078:	08009bd0 	.word	0x08009bd0
 800307c:	20000000 	.word	0x20000000
 8003080:	20000008 	.word	0x20000008

08003084 <HAL_RCC_GetPCLK1Freq>:
 8003084:	4b04      	ldr	r3, [pc, #16]	; (8003098 <HAL_RCC_GetPCLK1Freq+0x14>)
 8003086:	4a05      	ldr	r2, [pc, #20]	; (800309c <HAL_RCC_GetPCLK1Freq+0x18>)
 8003088:	685b      	ldr	r3, [r3, #4]
 800308a:	f3c3 2302 	ubfx	r3, r3, #8, #3
 800308e:	5cd3      	ldrb	r3, [r2, r3]
 8003090:	4a03      	ldr	r2, [pc, #12]	; (80030a0 <HAL_RCC_GetPCLK1Freq+0x1c>)
 8003092:	6810      	ldr	r0, [r2, #0]
 8003094:	40d8      	lsrs	r0, r3
 8003096:	4770      	bx	lr
 8003098:	40021000 	.word	0x40021000
 800309c:	08009be0 	.word	0x08009be0
 80030a0:	20000000 	.word	0x20000000

080030a4 <HAL_RCC_GetPCLK2Freq>:
 80030a4:	4b04      	ldr	r3, [pc, #16]	; (80030b8 <HAL_RCC_GetPCLK2Freq+0x14>)
 80030a6:	4a05      	ldr	r2, [pc, #20]	; (80030bc <HAL_RCC_GetPCLK2Freq+0x18>)
 80030a8:	685b      	ldr	r3, [r3, #4]
 80030aa:	f3c3 23c2 	ubfx	r3, r3, #11, #3
 80030ae:	5cd3      	ldrb	r3, [r2, r3]
 80030b0:	4a03      	ldr	r2, [pc, #12]	; (80030c0 <HAL_RCC_GetPCLK2Freq+0x1c>)
 80030b2:	6810      	ldr	r0, [r2, #0]
 80030b4:	40d8      	lsrs	r0, r3
 80030b6:	4770      	bx	lr
 80030b8:	40021000 	.word	0x40021000
 80030bc:	08009be0 	.word	0x08009be0
 80030c0:	20000000 	.word	0x20000000

080030c4 <HAL_RCCEx_PeriphCLKConfig>:
 80030c4:	6803      	ldr	r3, [r0, #0]
 80030c6:	e92d 41f3 	stmdb	sp!, {r0, r1, r4, r5, r6, r7, r8, lr}
 80030ca:	4605      	mov	r5, r0
 80030cc:	06d8      	lsls	r0, r3, #27
 80030ce:	d103      	bne.n	80030d8 <HAL_RCCEx_PeriphCLKConfig+0x14>
 80030d0:	216c      	movs	r1, #108	; 0x6c
 80030d2:	4845      	ldr	r0, [pc, #276]	; (80031e8 <HAL_RCCEx_PeriphCLKConfig+0x124>)
 80030d4:	f7fe fca2 	bl	8001a1c <assert_failed>
 80030d8:	682b      	ldr	r3, [r5, #0]
 80030da:	07d9      	lsls	r1, r3, #31
 80030dc:	d528      	bpl.n	8003130 <HAL_RCCEx_PeriphCLKConfig+0x6c>
 80030de:	686b      	ldr	r3, [r5, #4]
 80030e0:	f433 7340 	bics.w	r3, r3, #768	; 0x300
 80030e4:	d003      	beq.n	80030ee <HAL_RCCEx_PeriphCLKConfig+0x2a>
 80030e6:	2174      	movs	r1, #116	; 0x74
 80030e8:	483f      	ldr	r0, [pc, #252]	; (80031e8 <HAL_RCCEx_PeriphCLKConfig+0x124>)
 80030ea:	f7fe fc97 	bl	8001a1c <assert_failed>
 80030ee:	4c3f      	ldr	r4, [pc, #252]	; (80031ec <HAL_RCCEx_PeriphCLKConfig+0x128>)
 80030f0:	69e3      	ldr	r3, [r4, #28]
 80030f2:	00da      	lsls	r2, r3, #3
 80030f4:	d444      	bmi.n	8003180 <HAL_RCCEx_PeriphCLKConfig+0xbc>
 80030f6:	2701      	movs	r7, #1
 80030f8:	69e3      	ldr	r3, [r4, #28]
 80030fa:	f043 5380 	orr.w	r3, r3, #268435456	; 0x10000000
 80030fe:	61e3      	str	r3, [r4, #28]
 8003100:	69e3      	ldr	r3, [r4, #28]
 8003102:	f003 5380 	and.w	r3, r3, #268435456	; 0x10000000
 8003106:	9301      	str	r3, [sp, #4]
 8003108:	9b01      	ldr	r3, [sp, #4]
 800310a:	4e39      	ldr	r6, [pc, #228]	; (80031f0 <HAL_RCCEx_PeriphCLKConfig+0x12c>)
 800310c:	6833      	ldr	r3, [r6, #0]
 800310e:	05db      	lsls	r3, r3, #23
 8003110:	d538      	bpl.n	8003184 <HAL_RCCEx_PeriphCLKConfig+0xc0>
 8003112:	6a23      	ldr	r3, [r4, #32]
 8003114:	f413 7340 	ands.w	r3, r3, #768	; 0x300
 8003118:	d148      	bne.n	80031ac <HAL_RCCEx_PeriphCLKConfig+0xe8>
 800311a:	6a23      	ldr	r3, [r4, #32]
 800311c:	686a      	ldr	r2, [r5, #4]
 800311e:	f423 7340 	bic.w	r3, r3, #768	; 0x300
 8003122:	4313      	orrs	r3, r2
 8003124:	6223      	str	r3, [r4, #32]
 8003126:	b11f      	cbz	r7, 8003130 <HAL_RCCEx_PeriphCLKConfig+0x6c>
 8003128:	69e3      	ldr	r3, [r4, #28]
 800312a:	f023 5380 	bic.w	r3, r3, #268435456	; 0x10000000
 800312e:	61e3      	str	r3, [r4, #28]
 8003130:	682b      	ldr	r3, [r5, #0]
 8003132:	079b      	lsls	r3, r3, #30
 8003134:	d50e      	bpl.n	8003154 <HAL_RCCEx_PeriphCLKConfig+0x90>
 8003136:	68ab      	ldr	r3, [r5, #8]
 8003138:	f433 4340 	bics.w	r3, r3, #49152	; 0xc000
 800313c:	d003      	beq.n	8003146 <HAL_RCCEx_PeriphCLKConfig+0x82>
 800313e:	21b9      	movs	r1, #185	; 0xb9
 8003140:	4829      	ldr	r0, [pc, #164]	; (80031e8 <HAL_RCCEx_PeriphCLKConfig+0x124>)
 8003142:	f7fe fc6b 	bl	8001a1c <assert_failed>
 8003146:	4a29      	ldr	r2, [pc, #164]	; (80031ec <HAL_RCCEx_PeriphCLKConfig+0x128>)
 8003148:	68a9      	ldr	r1, [r5, #8]
 800314a:	6853      	ldr	r3, [r2, #4]
 800314c:	f423 4340 	bic.w	r3, r3, #49152	; 0xc000
 8003150:	430b      	orrs	r3, r1
 8003152:	6053      	str	r3, [r2, #4]
 8003154:	6828      	ldr	r0, [r5, #0]
 8003156:	f010 0010 	ands.w	r0, r0, #16
 800315a:	d024      	beq.n	80031a6 <HAL_RCCEx_PeriphCLKConfig+0xe2>
 800315c:	696b      	ldr	r3, [r5, #20]
 800315e:	f433 0380 	bics.w	r3, r3, #4194304	; 0x400000
 8003162:	d004      	beq.n	800316e <HAL_RCCEx_PeriphCLKConfig+0xaa>
 8003164:	f240 1115 	movw	r1, #277	; 0x115
 8003168:	481f      	ldr	r0, [pc, #124]	; (80031e8 <HAL_RCCEx_PeriphCLKConfig+0x124>)
 800316a:	f7fe fc57 	bl	8001a1c <assert_failed>
 800316e:	4a1f      	ldr	r2, [pc, #124]	; (80031ec <HAL_RCCEx_PeriphCLKConfig+0x128>)
 8003170:	6969      	ldr	r1, [r5, #20]
 8003172:	6853      	ldr	r3, [r2, #4]
 8003174:	2000      	movs	r0, #0
 8003176:	f423 0380 	bic.w	r3, r3, #4194304	; 0x400000
 800317a:	430b      	orrs	r3, r1
 800317c:	6053      	str	r3, [r2, #4]
 800317e:	e012      	b.n	80031a6 <HAL_RCCEx_PeriphCLKConfig+0xe2>
 8003180:	2700      	movs	r7, #0
 8003182:	e7c2      	b.n	800310a <HAL_RCCEx_PeriphCLKConfig+0x46>
 8003184:	6833      	ldr	r3, [r6, #0]
 8003186:	f443 7380 	orr.w	r3, r3, #256	; 0x100
 800318a:	6033      	str	r3, [r6, #0]
 800318c:	f7fe ff7c 	bl	8002088 <HAL_GetTick>
 8003190:	4680      	mov	r8, r0
 8003192:	6833      	ldr	r3, [r6, #0]
 8003194:	05d8      	lsls	r0, r3, #23
 8003196:	d4bc      	bmi.n	8003112 <HAL_RCCEx_PeriphCLKConfig+0x4e>
 8003198:	f7fe ff76 	bl	8002088 <HAL_GetTick>
 800319c:	eba0 0008 	sub.w	r0, r0, r8
 80031a0:	2864      	cmp	r0, #100	; 0x64
 80031a2:	d9f6      	bls.n	8003192 <HAL_RCCEx_PeriphCLKConfig+0xce>
 80031a4:	2003      	movs	r0, #3
 80031a6:	b002      	add	sp, #8
 80031a8:	e8bd 81f0 	ldmia.w	sp!, {r4, r5, r6, r7, r8, pc}
 80031ac:	686a      	ldr	r2, [r5, #4]
 80031ae:	f402 7240 	and.w	r2, r2, #768	; 0x300
 80031b2:	429a      	cmp	r2, r3
 80031b4:	d0b1      	beq.n	800311a <HAL_RCCEx_PeriphCLKConfig+0x56>
 80031b6:	2001      	movs	r0, #1
 80031b8:	4a0e      	ldr	r2, [pc, #56]	; (80031f4 <HAL_RCCEx_PeriphCLKConfig+0x130>)
 80031ba:	6a23      	ldr	r3, [r4, #32]
 80031bc:	6010      	str	r0, [r2, #0]
 80031be:	2000      	movs	r0, #0
 80031c0:	f423 7140 	bic.w	r1, r3, #768	; 0x300
 80031c4:	6010      	str	r0, [r2, #0]
 80031c6:	6221      	str	r1, [r4, #32]
 80031c8:	07d9      	lsls	r1, r3, #31
 80031ca:	d5a6      	bpl.n	800311a <HAL_RCCEx_PeriphCLKConfig+0x56>
 80031cc:	f7fe ff5c 	bl	8002088 <HAL_GetTick>
 80031d0:	f241 3888 	movw	r8, #5000	; 0x1388
 80031d4:	4606      	mov	r6, r0
 80031d6:	6a23      	ldr	r3, [r4, #32]
 80031d8:	079a      	lsls	r2, r3, #30
 80031da:	d49e      	bmi.n	800311a <HAL_RCCEx_PeriphCLKConfig+0x56>
 80031dc:	f7fe ff54 	bl	8002088 <HAL_GetTick>
 80031e0:	1b80      	subs	r0, r0, r6
 80031e2:	4540      	cmp	r0, r8
 80031e4:	d9f7      	bls.n	80031d6 <HAL_RCCEx_PeriphCLKConfig+0x112>
 80031e6:	e7dd      	b.n	80031a4 <HAL_RCCEx_PeriphCLKConfig+0xe0>
 80031e8:	08009cdd 	.word	0x08009cdd
 80031ec:	40021000 	.word	0x40021000
 80031f0:	40007000 	.word	0x40007000
 80031f4:	42420440 	.word	0x42420440

080031f8 <HAL_RCCEx_GetPeriphCLKFreq>:
 80031f8:	b570      	push	{r4, r5, r6, lr}
 80031fa:	4604      	mov	r4, r0
 80031fc:	4b3e      	ldr	r3, [pc, #248]	; (80032f8 <HAL_RCCEx_GetPeriphCLKFreq+0x100>)
 80031fe:	b086      	sub	sp, #24
 8003200:	ad02      	add	r5, sp, #8
 8003202:	f103 0610 	add.w	r6, r3, #16
 8003206:	462a      	mov	r2, r5
 8003208:	6818      	ldr	r0, [r3, #0]
 800320a:	6859      	ldr	r1, [r3, #4]
 800320c:	3308      	adds	r3, #8
 800320e:	c203      	stmia	r2!, {r0, r1}
 8003210:	42b3      	cmp	r3, r6
 8003212:	4615      	mov	r5, r2
 8003214:	d1f7      	bne.n	8003206 <HAL_RCCEx_GetPeriphCLKFreq+0xe>
 8003216:	f240 2301 	movw	r3, #513	; 0x201
 800321a:	06e1      	lsls	r1, r4, #27
 800321c:	f8ad 3004 	strh.w	r3, [sp, #4]
 8003220:	d104      	bne.n	800322c <HAL_RCCEx_GetPeriphCLKFreq+0x34>
 8003222:	f44f 71cb 	mov.w	r1, #406	; 0x196
 8003226:	4835      	ldr	r0, [pc, #212]	; (80032fc <HAL_RCCEx_GetPeriphCLKFreq+0x104>)
 8003228:	f7fe fbf8 	bl	8001a1c <assert_failed>
 800322c:	2c08      	cmp	r4, #8
 800322e:	d809      	bhi.n	8003244 <HAL_RCCEx_GetPeriphCLKFreq+0x4c>
 8003230:	b34c      	cbz	r4, 8003286 <HAL_RCCEx_GetPeriphCLKFreq+0x8e>
 8003232:	3c01      	subs	r4, #1
 8003234:	2c07      	cmp	r4, #7
 8003236:	d85d      	bhi.n	80032f4 <HAL_RCCEx_GetPeriphCLKFreq+0xfc>
 8003238:	e8df f004 	tbb	[pc, r4]
 800323c:	2b5c4e30 	.word	0x2b5c4e30
 8003240:	2b5c5c5c 	.word	0x2b5c5c5c
 8003244:	2c10      	cmp	r4, #16
 8003246:	d155      	bne.n	80032f4 <HAL_RCCEx_GetPeriphCLKFreq+0xfc>
 8003248:	4b2d      	ldr	r3, [pc, #180]	; (8003300 <HAL_RCCEx_GetPeriphCLKFreq+0x108>)
 800324a:	6859      	ldr	r1, [r3, #4]
 800324c:	681c      	ldr	r4, [r3, #0]
 800324e:	f014 7480 	ands.w	r4, r4, #16777216	; 0x1000000
 8003252:	d018      	beq.n	8003286 <HAL_RCCEx_GetPeriphCLKFreq+0x8e>
 8003254:	f3c1 4283 	ubfx	r2, r1, #18, #4
 8003258:	a806      	add	r0, sp, #24
 800325a:	4402      	add	r2, r0
 800325c:	f812 4c10 	ldrb.w	r4, [r2, #-16]
 8003260:	03ca      	lsls	r2, r1, #15
 8003262:	d513      	bpl.n	800328c <HAL_RCCEx_GetPeriphCLKFreq+0x94>
 8003264:	685a      	ldr	r2, [r3, #4]
 8003266:	f3c2 4240 	ubfx	r2, r2, #17, #1
 800326a:	4402      	add	r2, r0
 800326c:	f812 0c14 	ldrb.w	r0, [r2, #-20]
 8003270:	4a24      	ldr	r2, [pc, #144]	; (8003304 <HAL_RCCEx_GetPeriphCLKFreq+0x10c>)
 8003272:	fbb2 f2f0 	udiv	r2, r2, r0
 8003276:	4354      	muls	r4, r2
 8003278:	685b      	ldr	r3, [r3, #4]
 800327a:	025b      	lsls	r3, r3, #9
 800327c:	d403      	bmi.n	8003286 <HAL_RCCEx_GetPeriphCLKFreq+0x8e>
 800327e:	2303      	movs	r3, #3
 8003280:	0064      	lsls	r4, r4, #1
 8003282:	fbb4 f4f3 	udiv	r4, r4, r3
 8003286:	4620      	mov	r0, r4
 8003288:	b006      	add	sp, #24
 800328a:	bd70      	pop	{r4, r5, r6, pc}
 800328c:	481e      	ldr	r0, [pc, #120]	; (8003308 <HAL_RCCEx_GetPeriphCLKFreq+0x110>)
 800328e:	4344      	muls	r4, r0
 8003290:	e7f2      	b.n	8003278 <HAL_RCCEx_GetPeriphCLKFreq+0x80>
 8003292:	b006      	add	sp, #24
 8003294:	e8bd 4070 	ldmia.w	sp!, {r4, r5, r6, lr}
 8003298:	f7ff bdc6 	b.w	8002e28 <HAL_RCC_GetSysClockFreq>
 800329c:	f240 3102 	movw	r1, #770	; 0x302
 80032a0:	4a17      	ldr	r2, [pc, #92]	; (8003300 <HAL_RCCEx_GetPeriphCLKFreq+0x108>)
 80032a2:	6a13      	ldr	r3, [r2, #32]
 80032a4:	4019      	ands	r1, r3
 80032a6:	f5b1 7f81 	cmp.w	r1, #258	; 0x102
 80032aa:	d020      	beq.n	80032ee <HAL_RCCEx_GetPeriphCLKFreq+0xf6>
 80032ac:	f403 7340 	and.w	r3, r3, #768	; 0x300
 80032b0:	f5b3 7f00 	cmp.w	r3, #512	; 0x200
 80032b4:	d107      	bne.n	80032c6 <HAL_RCCEx_GetPeriphCLKFreq+0xce>
 80032b6:	f649 4340 	movw	r3, #40000	; 0x9c40
 80032ba:	6a54      	ldr	r4, [r2, #36]	; 0x24
 80032bc:	f014 0402 	ands.w	r4, r4, #2
 80032c0:	bf18      	it	ne
 80032c2:	461c      	movne	r4, r3
 80032c4:	e7df      	b.n	8003286 <HAL_RCCEx_GetPeriphCLKFreq+0x8e>
 80032c6:	f5b3 7f40 	cmp.w	r3, #768	; 0x300
 80032ca:	d113      	bne.n	80032f4 <HAL_RCCEx_GetPeriphCLKFreq+0xfc>
 80032cc:	6814      	ldr	r4, [r2, #0]
 80032ce:	f24f 4324 	movw	r3, #62500	; 0xf424
 80032d2:	f414 3400 	ands.w	r4, r4, #131072	; 0x20000
 80032d6:	e7f3      	b.n	80032c0 <HAL_RCCEx_GetPeriphCLKFreq+0xc8>
 80032d8:	f7ff fee4 	bl	80030a4 <HAL_RCC_GetPCLK2Freq>
 80032dc:	4b08      	ldr	r3, [pc, #32]	; (8003300 <HAL_RCCEx_GetPeriphCLKFreq+0x108>)
 80032de:	685b      	ldr	r3, [r3, #4]
 80032e0:	f3c3 3381 	ubfx	r3, r3, #14, #2
 80032e4:	3301      	adds	r3, #1
 80032e6:	005b      	lsls	r3, r3, #1
 80032e8:	fbb0 f4f3 	udiv	r4, r0, r3
 80032ec:	e7cb      	b.n	8003286 <HAL_RCCEx_GetPeriphCLKFreq+0x8e>
 80032ee:	f44f 4400 	mov.w	r4, #32768	; 0x8000
 80032f2:	e7c8      	b.n	8003286 <HAL_RCCEx_GetPeriphCLKFreq+0x8e>
 80032f4:	2400      	movs	r4, #0
 80032f6:	e7c6      	b.n	8003286 <HAL_RCCEx_GetPeriphCLKFreq+0x8e>
 80032f8:	08009ccc 	.word	0x08009ccc
 80032fc:	08009cdd 	.word	0x08009cdd
 8003300:	40021000 	.word	0x40021000
 8003304:	007a1200 	.word	0x007a1200
 8003308:	003d0900 	.word	0x003d0900

0800330c <RTC_ReadTimeCounter>:
 800330c:	6803      	ldr	r3, [r0, #0]
 800330e:	b530      	push	{r4, r5, lr}
 8003310:	699a      	ldr	r2, [r3, #24]
 8003312:	69d8      	ldr	r0, [r3, #28]
 8003314:	6999      	ldr	r1, [r3, #24]
 8003316:	b295      	uxth	r5, r2
 8003318:	b28c      	uxth	r4, r1
 800331a:	42a5      	cmp	r5, r4
 800331c:	bf17      	itett	ne
 800331e:	69d8      	ldrne	r0, [r3, #28]
 8003320:	b280      	uxtheq	r0, r0
 8003322:	b280      	uxthne	r0, r0
 8003324:	ea40 4001 	orrne.w	r0, r0, r1, lsl #16
 8003328:	bf08      	it	eq
 800332a:	ea40 4002 	orreq.w	r0, r0, r2, lsl #16
 800332e:	bd30      	pop	{r4, r5, pc}

08003330 <RTC_ReadAlarmCounter>:
 8003330:	6803      	ldr	r3, [r0, #0]
 8003332:	6a18      	ldr	r0, [r3, #32]
 8003334:	6a5b      	ldr	r3, [r3, #36]	; 0x24
 8003336:	b29b      	uxth	r3, r3
 8003338:	ea43 4000 	orr.w	r0, r3, r0, lsl #16
 800333c:	4770      	bx	lr

0800333e <RTC_ByteToBcd2>:
 800333e:	2300      	movs	r3, #0
 8003340:	2809      	cmp	r0, #9
 8003342:	d803      	bhi.n	800334c <RTC_ByteToBcd2+0xe>
 8003344:	ea40 1003 	orr.w	r0, r0, r3, lsl #4
 8003348:	b2c0      	uxtb	r0, r0
 800334a:	4770      	bx	lr
 800334c:	380a      	subs	r0, #10
 800334e:	3301      	adds	r3, #1
 8003350:	b2c0      	uxtb	r0, r0
 8003352:	e7f5      	b.n	8003340 <RTC_ByteToBcd2+0x2>

08003354 <RTC_Bcd2ToByte>:
 8003354:	220a      	movs	r2, #10
 8003356:	0903      	lsrs	r3, r0, #4
 8003358:	f000 000f 	and.w	r0, r0, #15
 800335c:	fb02 0003 	mla	r0, r2, r3, r0
 8003360:	b2c0      	uxtb	r0, r0
 8003362:	4770      	bx	lr

08003364 <RTC_WeekDayNum>:
 8003364:	b530      	push	{r4, r5, lr}
 8003366:	4603      	mov	r3, r0
 8003368:	f500 64fa 	add.w	r4, r0, #2000	; 0x7d0
 800336c:	2017      	movs	r0, #23
 800336e:	2509      	movs	r5, #9
 8003370:	4348      	muls	r0, r1
 8003372:	2902      	cmp	r1, #2
 8003374:	fbb0 f5f5 	udiv	r5, r0, r5
 8003378:	d817      	bhi.n	80033aa <RTC_WeekDayNum+0x46>
 800337a:	3204      	adds	r2, #4
 800337c:	1910      	adds	r0, r2, r4
 800337e:	f44f 72c8 	mov.w	r2, #400	; 0x190
 8003382:	f203 73cf 	addw	r3, r3, #1999	; 0x7cf
 8003386:	fbb3 f2f2 	udiv	r2, r3, r2
 800338a:	4428      	add	r0, r5
 800338c:	eb00 0093 	add.w	r0, r0, r3, lsr #2
 8003390:	4410      	add	r0, r2
 8003392:	2264      	movs	r2, #100	; 0x64
 8003394:	fbb3 f3f2 	udiv	r3, r3, r2
 8003398:	1ac0      	subs	r0, r0, r3
 800339a:	2307      	movs	r3, #7
 800339c:	fbb0 f3f3 	udiv	r3, r0, r3
 80033a0:	ebc3 03c3 	rsb	r3, r3, r3, lsl #3
 80033a4:	1ac0      	subs	r0, r0, r3
 80033a6:	b2c0      	uxtb	r0, r0
 80033a8:	bd30      	pop	{r4, r5, pc}
 80033aa:	f44f 73c8 	mov.w	r3, #400	; 0x190
 80033ae:	1c90      	adds	r0, r2, #2
 80033b0:	2264      	movs	r2, #100	; 0x64
 80033b2:	4420      	add	r0, r4
 80033b4:	fbb4 f3f3 	udiv	r3, r4, r3
 80033b8:	4428      	add	r0, r5
 80033ba:	eb00 0094 	add.w	r0, r0, r4, lsr #2
 80033be:	fbb4 f4f2 	udiv	r4, r4, r2
 80033c2:	4418      	add	r0, r3
 80033c4:	1b00      	subs	r0, r0, r4
 80033c6:	e7e8      	b.n	800339a <RTC_WeekDayNum+0x36>

080033c8 <RTC_EnterInitMode>:
 80033c8:	b538      	push	{r3, r4, r5, lr}
 80033ca:	4604      	mov	r4, r0
 80033cc:	f7fe fe5c 	bl	8002088 <HAL_GetTick>
 80033d0:	4605      	mov	r5, r0
 80033d2:	6823      	ldr	r3, [r4, #0]
 80033d4:	685a      	ldr	r2, [r3, #4]
 80033d6:	0692      	lsls	r2, r2, #26
 80033d8:	d505      	bpl.n	80033e6 <RTC_EnterInitMode+0x1e>
 80033da:	2000      	movs	r0, #0
 80033dc:	685a      	ldr	r2, [r3, #4]
 80033de:	f042 0210 	orr.w	r2, r2, #16
 80033e2:	605a      	str	r2, [r3, #4]
 80033e4:	bd38      	pop	{r3, r4, r5, pc}
 80033e6:	f7fe fe4f 	bl	8002088 <HAL_GetTick>
 80033ea:	1b40      	subs	r0, r0, r5
 80033ec:	f5b0 7f7a 	cmp.w	r0, #1000	; 0x3e8
 80033f0:	d9ef      	bls.n	80033d2 <RTC_EnterInitMode+0xa>
 80033f2:	2003      	movs	r0, #3
 80033f4:	e7f6      	b.n	80033e4 <RTC_EnterInitMode+0x1c>

080033f6 <RTC_ExitInitMode>:
 80033f6:	6802      	ldr	r2, [r0, #0]
 80033f8:	b538      	push	{r3, r4, r5, lr}
 80033fa:	6853      	ldr	r3, [r2, #4]
 80033fc:	4604      	mov	r4, r0
 80033fe:	f023 0310 	bic.w	r3, r3, #16
 8003402:	6053      	str	r3, [r2, #4]
 8003404:	f7fe fe40 	bl	8002088 <HAL_GetTick>
 8003408:	4605      	mov	r5, r0
 800340a:	6823      	ldr	r3, [r4, #0]
 800340c:	685b      	ldr	r3, [r3, #4]
 800340e:	069b      	lsls	r3, r3, #26
 8003410:	d501      	bpl.n	8003416 <RTC_ExitInitMode+0x20>
 8003412:	2000      	movs	r0, #0
 8003414:	bd38      	pop	{r3, r4, r5, pc}
 8003416:	f7fe fe37 	bl	8002088 <HAL_GetTick>
 800341a:	1b40      	subs	r0, r0, r5
 800341c:	f5b0 7f7a 	cmp.w	r0, #1000	; 0x3e8
 8003420:	d9f3      	bls.n	800340a <RTC_ExitInitMode+0x14>
 8003422:	2003      	movs	r0, #3
 8003424:	e7f6      	b.n	8003414 <RTC_ExitInitMode+0x1e>

08003426 <RTC_WriteTimeCounter>:
 8003426:	b538      	push	{r3, r4, r5, lr}
 8003428:	4605      	mov	r5, r0
 800342a:	460c      	mov	r4, r1
 800342c:	f7ff ffcc 	bl	80033c8 <RTC_EnterInitMode>
 8003430:	b958      	cbnz	r0, 800344a <RTC_WriteTimeCounter+0x24>
 8003432:	682b      	ldr	r3, [r5, #0]
 8003434:	0c22      	lsrs	r2, r4, #16
 8003436:	b2a4      	uxth	r4, r4
 8003438:	619a      	str	r2, [r3, #24]
 800343a:	4628      	mov	r0, r5
 800343c:	61dc      	str	r4, [r3, #28]
 800343e:	f7ff ffda 	bl	80033f6 <RTC_ExitInitMode>
 8003442:	3800      	subs	r0, #0
 8003444:	bf18      	it	ne
 8003446:	2001      	movne	r0, #1
 8003448:	bd38      	pop	{r3, r4, r5, pc}
 800344a:	2001      	movs	r0, #1
 800344c:	e7fc      	b.n	8003448 <RTC_WriteTimeCounter+0x22>

0800344e <RTC_WriteAlarmCounter>:
 800344e:	b538      	push	{r3, r4, r5, lr}
 8003450:	4605      	mov	r5, r0
 8003452:	460c      	mov	r4, r1
 8003454:	f7ff ffb8 	bl	80033c8 <RTC_EnterInitMode>
 8003458:	b958      	cbnz	r0, 8003472 <RTC_WriteAlarmCounter+0x24>
 800345a:	682b      	ldr	r3, [r5, #0]
 800345c:	0c22      	lsrs	r2, r4, #16
 800345e:	b2a4      	uxth	r4, r4
 8003460:	621a      	str	r2, [r3, #32]
 8003462:	4628      	mov	r0, r5
 8003464:	625c      	str	r4, [r3, #36]	; 0x24
 8003466:	f7ff ffc6 	bl	80033f6 <RTC_ExitInitMode>
 800346a:	3800      	subs	r0, #0
 800346c:	bf18      	it	ne
 800346e:	2001      	movne	r0, #1
 8003470:	bd38      	pop	{r3, r4, r5, pc}
 8003472:	2001      	movs	r0, #1
 8003474:	e7fc      	b.n	8003470 <RTC_WriteAlarmCounter+0x22>
	...

08003478 <HAL_RTC_SetTime>:
 8003478:	b570      	push	{r4, r5, r6, lr}
 800347a:	460d      	mov	r5, r1
 800347c:	4616      	mov	r6, r2
 800347e:	4604      	mov	r4, r0
 8003480:	2800      	cmp	r0, #0
 8003482:	d03c      	beq.n	80034fe <HAL_RTC_SetTime+0x86>
 8003484:	2900      	cmp	r1, #0
 8003486:	d03a      	beq.n	80034fe <HAL_RTC_SetTime+0x86>
 8003488:	2a01      	cmp	r2, #1
 800348a:	d904      	bls.n	8003496 <HAL_RTC_SetTime+0x1e>
 800348c:	f240 21ca 	movw	r1, #714	; 0x2ca
 8003490:	4843      	ldr	r0, [pc, #268]	; (80035a0 <HAL_RTC_SetTime+0x128>)
 8003492:	f7fe fac3 	bl	8001a1c <assert_failed>
 8003496:	7c23      	ldrb	r3, [r4, #16]
 8003498:	2002      	movs	r0, #2
 800349a:	2b01      	cmp	r3, #1
 800349c:	d07d      	beq.n	800359a <HAL_RTC_SetTime+0x122>
 800349e:	2301      	movs	r3, #1
 80034a0:	7460      	strb	r0, [r4, #17]
 80034a2:	7423      	strb	r3, [r4, #16]
 80034a4:	7828      	ldrb	r0, [r5, #0]
 80034a6:	bb66      	cbnz	r6, 8003502 <HAL_RTC_SetTime+0x8a>
 80034a8:	2817      	cmp	r0, #23
 80034aa:	d904      	bls.n	80034b6 <HAL_RTC_SetTime+0x3e>
 80034ac:	f240 21d3 	movw	r1, #723	; 0x2d3
 80034b0:	483b      	ldr	r0, [pc, #236]	; (80035a0 <HAL_RTC_SetTime+0x128>)
 80034b2:	f7fe fab3 	bl	8001a1c <assert_failed>
 80034b6:	786b      	ldrb	r3, [r5, #1]
 80034b8:	2b3b      	cmp	r3, #59	; 0x3b
 80034ba:	d904      	bls.n	80034c6 <HAL_RTC_SetTime+0x4e>
 80034bc:	f44f 7135 	mov.w	r1, #724	; 0x2d4
 80034c0:	4837      	ldr	r0, [pc, #220]	; (80035a0 <HAL_RTC_SetTime+0x128>)
 80034c2:	f7fe faab 	bl	8001a1c <assert_failed>
 80034c6:	78ab      	ldrb	r3, [r5, #2]
 80034c8:	2b3b      	cmp	r3, #59	; 0x3b
 80034ca:	d904      	bls.n	80034d6 <HAL_RTC_SetTime+0x5e>
 80034cc:	f240 21d5 	movw	r1, #725	; 0x2d5
 80034d0:	4833      	ldr	r0, [pc, #204]	; (80035a0 <HAL_RTC_SetTime+0x128>)
 80034d2:	f7fe faa3 	bl	8001a1c <assert_failed>
 80034d6:	213c      	movs	r1, #60	; 0x3c
 80034d8:	7868      	ldrb	r0, [r5, #1]
 80034da:	782e      	ldrb	r6, [r5, #0]
 80034dc:	4341      	muls	r1, r0
 80034de:	f44f 6061 	mov.w	r0, #3600	; 0xe10
 80034e2:	fb00 1606 	mla	r6, r0, r6, r1
 80034e6:	78a8      	ldrb	r0, [r5, #2]
 80034e8:	4406      	add	r6, r0
 80034ea:	4631      	mov	r1, r6
 80034ec:	4620      	mov	r0, r4
 80034ee:	f7ff ff9a 	bl	8003426 <RTC_WriteTimeCounter>
 80034f2:	4605      	mov	r5, r0
 80034f4:	b398      	cbz	r0, 800355e <HAL_RTC_SetTime+0xe6>
 80034f6:	2304      	movs	r3, #4
 80034f8:	7463      	strb	r3, [r4, #17]
 80034fa:	2300      	movs	r3, #0
 80034fc:	7423      	strb	r3, [r4, #16]
 80034fe:	2501      	movs	r5, #1
 8003500:	e049      	b.n	8003596 <HAL_RTC_SetTime+0x11e>
 8003502:	f7ff ff27 	bl	8003354 <RTC_Bcd2ToByte>
 8003506:	2817      	cmp	r0, #23
 8003508:	d904      	bls.n	8003514 <HAL_RTC_SetTime+0x9c>
 800350a:	f240 21dd 	movw	r1, #733	; 0x2dd
 800350e:	4824      	ldr	r0, [pc, #144]	; (80035a0 <HAL_RTC_SetTime+0x128>)
 8003510:	f7fe fa84 	bl	8001a1c <assert_failed>
 8003514:	7868      	ldrb	r0, [r5, #1]
 8003516:	f7ff ff1d 	bl	8003354 <RTC_Bcd2ToByte>
 800351a:	283b      	cmp	r0, #59	; 0x3b
 800351c:	d904      	bls.n	8003528 <HAL_RTC_SetTime+0xb0>
 800351e:	f240 21de 	movw	r1, #734	; 0x2de
 8003522:	481f      	ldr	r0, [pc, #124]	; (80035a0 <HAL_RTC_SetTime+0x128>)
 8003524:	f7fe fa7a 	bl	8001a1c <assert_failed>
 8003528:	78a8      	ldrb	r0, [r5, #2]
 800352a:	f7ff ff13 	bl	8003354 <RTC_Bcd2ToByte>
 800352e:	283b      	cmp	r0, #59	; 0x3b
 8003530:	d904      	bls.n	800353c <HAL_RTC_SetTime+0xc4>
 8003532:	f240 21df 	movw	r1, #735	; 0x2df
 8003536:	481a      	ldr	r0, [pc, #104]	; (80035a0 <HAL_RTC_SetTime+0x128>)
 8003538:	f7fe fa70 	bl	8001a1c <assert_failed>
 800353c:	7828      	ldrb	r0, [r5, #0]
 800353e:	f7ff ff09 	bl	8003354 <RTC_Bcd2ToByte>
 8003542:	4606      	mov	r6, r0
 8003544:	7868      	ldrb	r0, [r5, #1]
 8003546:	f7ff ff05 	bl	8003354 <RTC_Bcd2ToByte>
 800354a:	213c      	movs	r1, #60	; 0x3c
 800354c:	4341      	muls	r1, r0
 800354e:	f44f 6061 	mov.w	r0, #3600	; 0xe10
 8003552:	fb00 1606 	mla	r6, r0, r6, r1
 8003556:	78a8      	ldrb	r0, [r5, #2]
 8003558:	f7ff fefc 	bl	8003354 <RTC_Bcd2ToByte>
 800355c:	e7c4      	b.n	80034e8 <HAL_RTC_SetTime+0x70>
 800355e:	6822      	ldr	r2, [r4, #0]
 8003560:	4620      	mov	r0, r4
 8003562:	6853      	ldr	r3, [r2, #4]
 8003564:	f023 0305 	bic.w	r3, r3, #5
 8003568:	6053      	str	r3, [r2, #4]
 800356a:	f7ff fee1 	bl	8003330 <RTC_ReadAlarmCounter>
 800356e:	1c43      	adds	r3, r0, #1
 8003570:	d00d      	beq.n	800358e <HAL_RTC_SetTime+0x116>
 8003572:	4286      	cmp	r6, r0
 8003574:	d90b      	bls.n	800358e <HAL_RTC_SetTime+0x116>
 8003576:	f500 31a8 	add.w	r1, r0, #86016	; 0x15000
 800357a:	f501 71c0 	add.w	r1, r1, #384	; 0x180
 800357e:	4620      	mov	r0, r4
 8003580:	f7ff ff65 	bl	800344e <RTC_WriteAlarmCounter>
 8003584:	b118      	cbz	r0, 800358e <HAL_RTC_SetTime+0x116>
 8003586:	2304      	movs	r3, #4
 8003588:	7425      	strb	r5, [r4, #16]
 800358a:	7463      	strb	r3, [r4, #17]
 800358c:	e7b7      	b.n	80034fe <HAL_RTC_SetTime+0x86>
 800358e:	2301      	movs	r3, #1
 8003590:	7463      	strb	r3, [r4, #17]
 8003592:	2300      	movs	r3, #0
 8003594:	7423      	strb	r3, [r4, #16]
 8003596:	4628      	mov	r0, r5
 8003598:	bd70      	pop	{r4, r5, r6, pc}
 800359a:	4605      	mov	r5, r0
 800359c:	e7fb      	b.n	8003596 <HAL_RTC_SetTime+0x11e>
 800359e:	bf00      	nop
 80035a0:	08009d18 	.word	0x08009d18

080035a4 <HAL_RTC_GetTime>:
 80035a4:	e92d 47f0 	stmdb	sp!, {r4, r5, r6, r7, r8, r9, sl, lr}
 80035a8:	460e      	mov	r6, r1
 80035aa:	4617      	mov	r7, r2
 80035ac:	4605      	mov	r5, r0
 80035ae:	b910      	cbnz	r0, 80035b6 <HAL_RTC_GetTime+0x12>
 80035b0:	2001      	movs	r0, #1
 80035b2:	e8bd 87f0 	ldmia.w	sp!, {r4, r5, r6, r7, r8, r9, sl, pc}
 80035b6:	2900      	cmp	r1, #0
 80035b8:	d0fa      	beq.n	80035b0 <HAL_RTC_GetTime+0xc>
 80035ba:	2a01      	cmp	r2, #1
 80035bc:	d904      	bls.n	80035c8 <HAL_RTC_GetTime+0x24>
 80035be:	f240 312d 	movw	r1, #813	; 0x32d
 80035c2:	4856      	ldr	r0, [pc, #344]	; (800371c <HAL_RTC_GetTime+0x178>)
 80035c4:	f7fe fa2a 	bl	8001a1c <assert_failed>
 80035c8:	682b      	ldr	r3, [r5, #0]
 80035ca:	685b      	ldr	r3, [r3, #4]
 80035cc:	f013 0804 	ands.w	r8, r3, #4
 80035d0:	d1ee      	bne.n	80035b0 <HAL_RTC_GetTime+0xc>
 80035d2:	4628      	mov	r0, r5
 80035d4:	f7ff fe9a 	bl	800330c <RTC_ReadTimeCounter>
 80035d8:	f44f 6361 	mov.w	r3, #3600	; 0xe10
 80035dc:	fbb0 f2f3 	udiv	r2, r0, r3
 80035e0:	243c      	movs	r4, #60	; 0x3c
 80035e2:	fb03 0312 	mls	r3, r3, r2, r0
 80035e6:	4682      	mov	sl, r0
 80035e8:	fbb3 f0f4 	udiv	r0, r3, r4
 80035ec:	fb04 3310 	mls	r3, r4, r0, r3
 80035f0:	70b3      	strb	r3, [r6, #2]
 80035f2:	4b4b      	ldr	r3, [pc, #300]	; (8003720 <HAL_RTC_GetTime+0x17c>)
 80035f4:	7070      	strb	r0, [r6, #1]
 80035f6:	459a      	cmp	sl, r3
 80035f8:	f240 8086 	bls.w	8003708 <HAL_RTC_GetTime+0x164>
 80035fc:	2318      	movs	r3, #24
 80035fe:	fbb2 f9f3 	udiv	r9, r2, r3
 8003602:	fb03 2219 	mls	r2, r3, r9, r2
 8003606:	4628      	mov	r0, r5
 8003608:	7032      	strb	r2, [r6, #0]
 800360a:	f7ff fe91 	bl	8003330 <RTC_ReadAlarmCounter>
 800360e:	1c41      	adds	r1, r0, #1
 8003610:	4604      	mov	r4, r0
 8003612:	d005      	beq.n	8003620 <HAL_RTC_GetTime+0x7c>
 8003614:	4582      	cmp	sl, r0
 8003616:	bf2c      	ite	cs
 8003618:	f04f 34ff 	movcs.w	r4, #4294967295
 800361c:	eba0 040a 	subcc.w	r4, r0, sl
 8003620:	4840      	ldr	r0, [pc, #256]	; (8003724 <HAL_RTC_GetTime+0x180>)
 8003622:	fb00 aa19 	mls	sl, r0, r9, sl
 8003626:	4628      	mov	r0, r5
 8003628:	4651      	mov	r1, sl
 800362a:	f7ff fefc 	bl	8003426 <RTC_WriteTimeCounter>
 800362e:	2800      	cmp	r0, #0
 8003630:	d1be      	bne.n	80035b0 <HAL_RTC_GetTime+0xc>
 8003632:	1c62      	adds	r2, r4, #1
 8003634:	d027      	beq.n	8003686 <HAL_RTC_GetTime+0xe2>
 8003636:	eb0a 0104 	add.w	r1, sl, r4
 800363a:	4628      	mov	r0, r5
 800363c:	f7ff ff07 	bl	800344e <RTC_WriteAlarmCounter>
 8003640:	2800      	cmp	r0, #0
 8003642:	d1b5      	bne.n	80035b0 <HAL_RTC_GetTime+0xc>
 8003644:	2264      	movs	r2, #100	; 0x64
 8003646:	f44f 71c8 	mov.w	r1, #400	; 0x190
 800364a:	f240 2cd5 	movw	ip, #725	; 0x2d5
 800364e:	7be8      	ldrb	r0, [r5, #15]
 8003650:	7b6c      	ldrb	r4, [r5, #13]
 8003652:	7bab      	ldrb	r3, [r5, #14]
 8003654:	45c1      	cmp	r9, r8
 8003656:	d118      	bne.n	800368a <HAL_RTC_GetTime+0xe6>
 8003658:	b2e1      	uxtb	r1, r4
 800365a:	b2da      	uxtb	r2, r3
 800365c:	73e8      	strb	r0, [r5, #15]
 800365e:	7369      	strb	r1, [r5, #13]
 8003660:	73aa      	strb	r2, [r5, #14]
 8003662:	f7ff fe7f 	bl	8003364 <RTC_WeekDayNum>
 8003666:	7328      	strb	r0, [r5, #12]
 8003668:	b15f      	cbz	r7, 8003682 <HAL_RTC_GetTime+0xde>
 800366a:	7830      	ldrb	r0, [r6, #0]
 800366c:	f7ff fe67 	bl	800333e <RTC_ByteToBcd2>
 8003670:	7030      	strb	r0, [r6, #0]
 8003672:	7870      	ldrb	r0, [r6, #1]
 8003674:	f7ff fe63 	bl	800333e <RTC_ByteToBcd2>
 8003678:	7070      	strb	r0, [r6, #1]
 800367a:	78b0      	ldrb	r0, [r6, #2]
 800367c:	f7ff fe5f 	bl	800333e <RTC_ByteToBcd2>
 8003680:	70b0      	strb	r0, [r6, #2]
 8003682:	2000      	movs	r0, #0
 8003684:	e795      	b.n	80035b2 <HAL_RTC_GetTime+0xe>
 8003686:	4621      	mov	r1, r4
 8003688:	e7d7      	b.n	800363a <HAL_RTC_GetTime+0x96>
 800368a:	f104 3eff 	add.w	lr, r4, #4294967295
 800368e:	f1be 0f09 	cmp.w	lr, #9
 8003692:	d90e      	bls.n	80036b2 <HAL_RTC_GetTime+0x10e>
 8003694:	2c0c      	cmp	r4, #12
 8003696:	d039      	beq.n	800370c <HAL_RTC_GetTime+0x168>
 8003698:	f024 0e02 	bic.w	lr, r4, #2
 800369c:	f1be 0f04 	cmp.w	lr, #4
 80036a0:	d002      	beq.n	80036a8 <HAL_RTC_GetTime+0x104>
 80036a2:	f1be 0f09 	cmp.w	lr, #9
 80036a6:	d10b      	bne.n	80036c0 <HAL_RTC_GetTime+0x11c>
 80036a8:	2b1d      	cmp	r3, #29
 80036aa:	d90d      	bls.n	80036c8 <HAL_RTC_GetTime+0x124>
 80036ac:	2301      	movs	r3, #1
 80036ae:	3401      	adds	r4, #1
 80036b0:	e031      	b.n	8003716 <HAL_RTC_GetTime+0x172>
 80036b2:	fa2c fe0e 	lsr.w	lr, ip, lr
 80036b6:	f01e 0f01 	tst.w	lr, #1
 80036ba:	d0ed      	beq.n	8003698 <HAL_RTC_GetTime+0xf4>
 80036bc:	2b1e      	cmp	r3, #30
 80036be:	e7f4      	b.n	80036aa <HAL_RTC_GetTime+0x106>
 80036c0:	2c02      	cmp	r4, #2
 80036c2:	d128      	bne.n	8003716 <HAL_RTC_GetTime+0x172>
 80036c4:	2b1b      	cmp	r3, #27
 80036c6:	d801      	bhi.n	80036cc <HAL_RTC_GetTime+0x128>
 80036c8:	3301      	adds	r3, #1
 80036ca:	e024      	b.n	8003716 <HAL_RTC_GetTime+0x172>
 80036cc:	2b1c      	cmp	r3, #28
 80036ce:	d114      	bne.n	80036fa <HAL_RTC_GetTime+0x156>
 80036d0:	0783      	lsls	r3, r0, #30
 80036d2:	fa1f fe80 	uxth.w	lr, r0
 80036d6:	d112      	bne.n	80036fe <HAL_RTC_GetTime+0x15a>
 80036d8:	fbbe f3f2 	udiv	r3, lr, r2
 80036dc:	fb02 e313 	mls	r3, r2, r3, lr
 80036e0:	b29b      	uxth	r3, r3
 80036e2:	b97b      	cbnz	r3, 8003704 <HAL_RTC_GetTime+0x160>
 80036e4:	fbbe f3f1 	udiv	r3, lr, r1
 80036e8:	fb01 e313 	mls	r3, r1, r3, lr
 80036ec:	b29b      	uxth	r3, r3
 80036ee:	2b00      	cmp	r3, #0
 80036f0:	bf16      	itet	ne
 80036f2:	2301      	movne	r3, #1
 80036f4:	231d      	moveq	r3, #29
 80036f6:	2403      	movne	r4, #3
 80036f8:	e00d      	b.n	8003716 <HAL_RTC_GetTime+0x172>
 80036fa:	2b1d      	cmp	r3, #29
 80036fc:	d10b      	bne.n	8003716 <HAL_RTC_GetTime+0x172>
 80036fe:	2301      	movs	r3, #1
 8003700:	2403      	movs	r4, #3
 8003702:	e008      	b.n	8003716 <HAL_RTC_GetTime+0x172>
 8003704:	231d      	movs	r3, #29
 8003706:	e006      	b.n	8003716 <HAL_RTC_GetTime+0x172>
 8003708:	7032      	strb	r2, [r6, #0]
 800370a:	e7ad      	b.n	8003668 <HAL_RTC_GetTime+0xc4>
 800370c:	2b1e      	cmp	r3, #30
 800370e:	d9db      	bls.n	80036c8 <HAL_RTC_GetTime+0x124>
 8003710:	2301      	movs	r3, #1
 8003712:	461c      	mov	r4, r3
 8003714:	3001      	adds	r0, #1
 8003716:	f108 0801 	add.w	r8, r8, #1
 800371a:	e79b      	b.n	8003654 <HAL_RTC_GetTime+0xb0>
 800371c:	08009d18 	.word	0x08009d18
 8003720:	0001517f 	.word	0x0001517f
 8003724:	00015180 	.word	0x00015180

08003728 <HAL_RTC_SetDate>:
 8003728:	b570      	push	{r4, r5, r6, lr}
 800372a:	460d      	mov	r5, r1
 800372c:	4616      	mov	r6, r2
 800372e:	4604      	mov	r4, r0
 8003730:	2800      	cmp	r0, #0
 8003732:	d04e      	beq.n	80037d2 <HAL_RTC_SetDate+0xaa>
 8003734:	2900      	cmp	r1, #0
 8003736:	d04c      	beq.n	80037d2 <HAL_RTC_SetDate+0xaa>
 8003738:	2a01      	cmp	r2, #1
 800373a:	d904      	bls.n	8003746 <HAL_RTC_SetDate+0x1e>
 800373c:	f44f 7167 	mov.w	r1, #924	; 0x39c
 8003740:	4848      	ldr	r0, [pc, #288]	; (8003864 <HAL_RTC_SetDate+0x13c>)
 8003742:	f7fe f96b 	bl	8001a1c <assert_failed>
 8003746:	7c23      	ldrb	r3, [r4, #16]
 8003748:	2002      	movs	r0, #2
 800374a:	2b01      	cmp	r3, #1
 800374c:	f000 8088 	beq.w	8003860 <HAL_RTC_SetDate+0x138>
 8003750:	2301      	movs	r3, #1
 8003752:	7460      	strb	r0, [r4, #17]
 8003754:	7423      	strb	r3, [r4, #16]
 8003756:	78e8      	ldrb	r0, [r5, #3]
 8003758:	2e00      	cmp	r6, #0
 800375a:	d13c      	bne.n	80037d6 <HAL_RTC_SetDate+0xae>
 800375c:	2863      	cmp	r0, #99	; 0x63
 800375e:	d904      	bls.n	800376a <HAL_RTC_SetDate+0x42>
 8003760:	f240 31a5 	movw	r1, #933	; 0x3a5
 8003764:	483f      	ldr	r0, [pc, #252]	; (8003864 <HAL_RTC_SetDate+0x13c>)
 8003766:	f7fe f959 	bl	8001a1c <assert_failed>
 800376a:	786b      	ldrb	r3, [r5, #1]
 800376c:	3b01      	subs	r3, #1
 800376e:	2b0b      	cmp	r3, #11
 8003770:	d904      	bls.n	800377c <HAL_RTC_SetDate+0x54>
 8003772:	f240 31a6 	movw	r1, #934	; 0x3a6
 8003776:	483b      	ldr	r0, [pc, #236]	; (8003864 <HAL_RTC_SetDate+0x13c>)
 8003778:	f7fe f950 	bl	8001a1c <assert_failed>
 800377c:	78ab      	ldrb	r3, [r5, #2]
 800377e:	3b01      	subs	r3, #1
 8003780:	2b1e      	cmp	r3, #30
 8003782:	d904      	bls.n	800378e <HAL_RTC_SetDate+0x66>
 8003784:	f240 31a7 	movw	r1, #935	; 0x3a7
 8003788:	4836      	ldr	r0, [pc, #216]	; (8003864 <HAL_RTC_SetDate+0x13c>)
 800378a:	f7fe f947 	bl	8001a1c <assert_failed>
 800378e:	78eb      	ldrb	r3, [r5, #3]
 8003790:	73e3      	strb	r3, [r4, #15]
 8003792:	786b      	ldrb	r3, [r5, #1]
 8003794:	7363      	strb	r3, [r4, #13]
 8003796:	78ab      	ldrb	r3, [r5, #2]
 8003798:	73a3      	strb	r3, [r4, #14]
 800379a:	7ba2      	ldrb	r2, [r4, #14]
 800379c:	7b61      	ldrb	r1, [r4, #13]
 800379e:	7be0      	ldrb	r0, [r4, #15]
 80037a0:	f7ff fde0 	bl	8003364 <RTC_WeekDayNum>
 80037a4:	7320      	strb	r0, [r4, #12]
 80037a6:	7028      	strb	r0, [r5, #0]
 80037a8:	4620      	mov	r0, r4
 80037aa:	f7ff fdaf 	bl	800330c <RTC_ReadTimeCounter>
 80037ae:	4b2e      	ldr	r3, [pc, #184]	; (8003868 <HAL_RTC_SetDate+0x140>)
 80037b0:	4298      	cmp	r0, r3
 80037b2:	d951      	bls.n	8003858 <HAL_RTC_SetDate+0x130>
 80037b4:	492d      	ldr	r1, [pc, #180]	; (800386c <HAL_RTC_SetDate+0x144>)
 80037b6:	fbb0 f6f1 	udiv	r6, r0, r1
 80037ba:	fb01 0616 	mls	r6, r1, r6, r0
 80037be:	4620      	mov	r0, r4
 80037c0:	4631      	mov	r1, r6
 80037c2:	f7ff fe30 	bl	8003426 <RTC_WriteTimeCounter>
 80037c6:	4605      	mov	r5, r0
 80037c8:	b398      	cbz	r0, 8003832 <HAL_RTC_SetDate+0x10a>
 80037ca:	2304      	movs	r3, #4
 80037cc:	7463      	strb	r3, [r4, #17]
 80037ce:	2300      	movs	r3, #0
 80037d0:	7423      	strb	r3, [r4, #16]
 80037d2:	2001      	movs	r0, #1
 80037d4:	e044      	b.n	8003860 <HAL_RTC_SetDate+0x138>
 80037d6:	f7ff fdbd 	bl	8003354 <RTC_Bcd2ToByte>
 80037da:	2863      	cmp	r0, #99	; 0x63
 80037dc:	d904      	bls.n	80037e8 <HAL_RTC_SetDate+0xc0>
 80037de:	f44f 716c 	mov.w	r1, #944	; 0x3b0
 80037e2:	4820      	ldr	r0, [pc, #128]	; (8003864 <HAL_RTC_SetDate+0x13c>)
 80037e4:	f7fe f91a 	bl	8001a1c <assert_failed>
 80037e8:	7868      	ldrb	r0, [r5, #1]
 80037ea:	f7ff fdb3 	bl	8003354 <RTC_Bcd2ToByte>
 80037ee:	3801      	subs	r0, #1
 80037f0:	b2c0      	uxtb	r0, r0
 80037f2:	280b      	cmp	r0, #11
 80037f4:	d904      	bls.n	8003800 <HAL_RTC_SetDate+0xd8>
 80037f6:	f240 31b1 	movw	r1, #945	; 0x3b1
 80037fa:	481a      	ldr	r0, [pc, #104]	; (8003864 <HAL_RTC_SetDate+0x13c>)
 80037fc:	f7fe f90e 	bl	8001a1c <assert_failed>
 8003800:	78a8      	ldrb	r0, [r5, #2]
 8003802:	f7ff fda7 	bl	8003354 <RTC_Bcd2ToByte>
 8003806:	3801      	subs	r0, #1
 8003808:	b2c0      	uxtb	r0, r0
 800380a:	281e      	cmp	r0, #30
 800380c:	d904      	bls.n	8003818 <HAL_RTC_SetDate+0xf0>
 800380e:	f240 31b2 	movw	r1, #946	; 0x3b2
 8003812:	4814      	ldr	r0, [pc, #80]	; (8003864 <HAL_RTC_SetDate+0x13c>)
 8003814:	f7fe f902 	bl	8001a1c <assert_failed>
 8003818:	78e8      	ldrb	r0, [r5, #3]
 800381a:	f7ff fd9b 	bl	8003354 <RTC_Bcd2ToByte>
 800381e:	73e0      	strb	r0, [r4, #15]
 8003820:	7868      	ldrb	r0, [r5, #1]
 8003822:	f7ff fd97 	bl	8003354 <RTC_Bcd2ToByte>
 8003826:	7360      	strb	r0, [r4, #13]
 8003828:	78a8      	ldrb	r0, [r5, #2]
 800382a:	f7ff fd93 	bl	8003354 <RTC_Bcd2ToByte>
 800382e:	73a0      	strb	r0, [r4, #14]
 8003830:	e7b3      	b.n	800379a <HAL_RTC_SetDate+0x72>
 8003832:	4620      	mov	r0, r4
 8003834:	f7ff fd7c 	bl	8003330 <RTC_ReadAlarmCounter>
 8003838:	1c43      	adds	r3, r0, #1
 800383a:	d00d      	beq.n	8003858 <HAL_RTC_SetDate+0x130>
 800383c:	4286      	cmp	r6, r0
 800383e:	d90b      	bls.n	8003858 <HAL_RTC_SetDate+0x130>
 8003840:	f500 31a8 	add.w	r1, r0, #86016	; 0x15000
 8003844:	f501 71c0 	add.w	r1, r1, #384	; 0x180
 8003848:	4620      	mov	r0, r4
 800384a:	f7ff fe00 	bl	800344e <RTC_WriteAlarmCounter>
 800384e:	b118      	cbz	r0, 8003858 <HAL_RTC_SetDate+0x130>
 8003850:	2304      	movs	r3, #4
 8003852:	7425      	strb	r5, [r4, #16]
 8003854:	7463      	strb	r3, [r4, #17]
 8003856:	e7bc      	b.n	80037d2 <HAL_RTC_SetDate+0xaa>
 8003858:	2301      	movs	r3, #1
 800385a:	2000      	movs	r0, #0
 800385c:	7463      	strb	r3, [r4, #17]
 800385e:	7420      	strb	r0, [r4, #16]
 8003860:	bd70      	pop	{r4, r5, r6, pc}
 8003862:	bf00      	nop
 8003864:	08009d18 	.word	0x08009d18
 8003868:	00015f8f 	.word	0x00015f8f
 800386c:	00015180 	.word	0x00015180

08003870 <HAL_RTC_GetDate>:
 8003870:	2300      	movs	r3, #0
 8003872:	b5f7      	push	{r0, r1, r2, r4, r5, r6, r7, lr}
 8003874:	460c      	mov	r4, r1
 8003876:	4616      	mov	r6, r2
 8003878:	4605      	mov	r5, r0
 800387a:	f8ad 3004 	strh.w	r3, [sp, #4]
 800387e:	f88d 3006 	strb.w	r3, [sp, #6]
 8003882:	b918      	cbnz	r0, 800388c <HAL_RTC_GetDate+0x1c>
 8003884:	2101      	movs	r1, #1
 8003886:	4608      	mov	r0, r1
 8003888:	b003      	add	sp, #12
 800388a:	bdf0      	pop	{r4, r5, r6, r7, pc}
 800388c:	2900      	cmp	r1, #0
 800388e:	d0f9      	beq.n	8003884 <HAL_RTC_GetDate+0x14>
 8003890:	2a01      	cmp	r2, #1
 8003892:	d904      	bls.n	800389e <HAL_RTC_GetDate+0x2e>
 8003894:	f240 410e 	movw	r1, #1038	; 0x40e
 8003898:	4810      	ldr	r0, [pc, #64]	; (80038dc <HAL_RTC_GetDate+0x6c>)
 800389a:	f7fe f8bf 	bl	8001a1c <assert_failed>
 800389e:	a901      	add	r1, sp, #4
 80038a0:	2200      	movs	r2, #0
 80038a2:	4628      	mov	r0, r5
 80038a4:	f7ff fe7e 	bl	80035a4 <HAL_RTC_GetTime>
 80038a8:	4601      	mov	r1, r0
 80038aa:	2800      	cmp	r0, #0
 80038ac:	d1ea      	bne.n	8003884 <HAL_RTC_GetDate+0x14>
 80038ae:	7b2b      	ldrb	r3, [r5, #12]
 80038b0:	7023      	strb	r3, [r4, #0]
 80038b2:	7be8      	ldrb	r0, [r5, #15]
 80038b4:	70e0      	strb	r0, [r4, #3]
 80038b6:	7b6f      	ldrb	r7, [r5, #13]
 80038b8:	7067      	strb	r7, [r4, #1]
 80038ba:	7baa      	ldrb	r2, [r5, #14]
 80038bc:	70a2      	strb	r2, [r4, #2]
 80038be:	2e00      	cmp	r6, #0
 80038c0:	d0e1      	beq.n	8003886 <HAL_RTC_GetDate+0x16>
 80038c2:	f7ff fd3c 	bl	800333e <RTC_ByteToBcd2>
 80038c6:	70e0      	strb	r0, [r4, #3]
 80038c8:	4638      	mov	r0, r7
 80038ca:	f7ff fd38 	bl	800333e <RTC_ByteToBcd2>
 80038ce:	7060      	strb	r0, [r4, #1]
 80038d0:	4610      	mov	r0, r2
 80038d2:	f7ff fd34 	bl	800333e <RTC_ByteToBcd2>
 80038d6:	70a0      	strb	r0, [r4, #2]
 80038d8:	e7d5      	b.n	8003886 <HAL_RTC_GetDate+0x16>
 80038da:	bf00      	nop
 80038dc:	08009d18 	.word	0x08009d18

080038e0 <HAL_RTC_WaitForSynchro>:
 80038e0:	b538      	push	{r3, r4, r5, lr}
 80038e2:	4604      	mov	r4, r0
 80038e4:	b1a8      	cbz	r0, 8003912 <HAL_RTC_WaitForSynchro+0x32>
 80038e6:	6802      	ldr	r2, [r0, #0]
 80038e8:	6853      	ldr	r3, [r2, #4]
 80038ea:	f023 0308 	bic.w	r3, r3, #8
 80038ee:	6053      	str	r3, [r2, #4]
 80038f0:	f7fe fbca 	bl	8002088 <HAL_GetTick>
 80038f4:	4605      	mov	r5, r0
 80038f6:	6823      	ldr	r3, [r4, #0]
 80038f8:	685b      	ldr	r3, [r3, #4]
 80038fa:	071b      	lsls	r3, r3, #28
 80038fc:	d501      	bpl.n	8003902 <HAL_RTC_WaitForSynchro+0x22>
 80038fe:	2000      	movs	r0, #0
 8003900:	bd38      	pop	{r3, r4, r5, pc}
 8003902:	f7fe fbc1 	bl	8002088 <HAL_GetTick>
 8003906:	1b40      	subs	r0, r0, r5
 8003908:	f5b0 7f7a 	cmp.w	r0, #1000	; 0x3e8
 800390c:	d9f3      	bls.n	80038f6 <HAL_RTC_WaitForSynchro+0x16>
 800390e:	2003      	movs	r0, #3
 8003910:	e7f6      	b.n	8003900 <HAL_RTC_WaitForSynchro+0x20>
 8003912:	2001      	movs	r0, #1
 8003914:	e7f4      	b.n	8003900 <HAL_RTC_WaitForSynchro+0x20>
	...

08003918 <HAL_RTC_Init>:
 8003918:	b510      	push	{r4, lr}
 800391a:	4604      	mov	r4, r0
 800391c:	b390      	cbz	r0, 8003984 <HAL_RTC_Init+0x6c>
 800391e:	6802      	ldr	r2, [r0, #0]
 8003920:	4b35      	ldr	r3, [pc, #212]	; (80039f8 <HAL_RTC_Init+0xe0>)
 8003922:	429a      	cmp	r2, r3
 8003924:	d004      	beq.n	8003930 <HAL_RTC_Init+0x18>
 8003926:	f240 111d 	movw	r1, #285	; 0x11d
 800392a:	4834      	ldr	r0, [pc, #208]	; (80039fc <HAL_RTC_Init+0xe4>)
 800392c:	f7fe f876 	bl	8001a1c <assert_failed>
 8003930:	68a3      	ldr	r3, [r4, #8]
 8003932:	f033 0280 	bics.w	r2, r3, #128	; 0x80
 8003936:	d009      	beq.n	800394c <HAL_RTC_Init+0x34>
 8003938:	f423 7300 	bic.w	r3, r3, #512	; 0x200
 800393c:	f5b3 7f80 	cmp.w	r3, #256	; 0x100
 8003940:	d004      	beq.n	800394c <HAL_RTC_Init+0x34>
 8003942:	f44f 718f 	mov.w	r1, #286	; 0x11e
 8003946:	482d      	ldr	r0, [pc, #180]	; (80039fc <HAL_RTC_Init+0xe4>)
 8003948:	f7fe f868 	bl	8001a1c <assert_failed>
 800394c:	f46f 1280 	mvn.w	r2, #1048576	; 0x100000
 8003950:	6863      	ldr	r3, [r4, #4]
 8003952:	f5a3 1380 	sub.w	r3, r3, #1048576	; 0x100000
 8003956:	4293      	cmp	r3, r2
 8003958:	d204      	bcs.n	8003964 <HAL_RTC_Init+0x4c>
 800395a:	f240 111f 	movw	r1, #287	; 0x11f
 800395e:	4827      	ldr	r0, [pc, #156]	; (80039fc <HAL_RTC_Init+0xe4>)
 8003960:	f7fe f85c 	bl	8001a1c <assert_failed>
 8003964:	7c63      	ldrb	r3, [r4, #17]
 8003966:	f003 02ff 	and.w	r2, r3, #255	; 0xff
 800396a:	b91b      	cbnz	r3, 8003974 <HAL_RTC_Init+0x5c>
 800396c:	4620      	mov	r0, r4
 800396e:	7422      	strb	r2, [r4, #16]
 8003970:	f7fe f8a6 	bl	8001ac0 <HAL_RTC_MspInit>
 8003974:	2302      	movs	r3, #2
 8003976:	4620      	mov	r0, r4
 8003978:	7463      	strb	r3, [r4, #17]
 800397a:	f7ff ffb1 	bl	80038e0 <HAL_RTC_WaitForSynchro>
 800397e:	b118      	cbz	r0, 8003988 <HAL_RTC_Init+0x70>
 8003980:	2304      	movs	r3, #4
 8003982:	7463      	strb	r3, [r4, #17]
 8003984:	2001      	movs	r0, #1
 8003986:	e036      	b.n	80039f6 <HAL_RTC_Init+0xde>
 8003988:	4620      	mov	r0, r4
 800398a:	f7ff fd1d 	bl	80033c8 <RTC_EnterInitMode>
 800398e:	2800      	cmp	r0, #0
 8003990:	d1f6      	bne.n	8003980 <HAL_RTC_Init+0x68>
 8003992:	6822      	ldr	r2, [r4, #0]
 8003994:	68a0      	ldr	r0, [r4, #8]
 8003996:	6853      	ldr	r3, [r2, #4]
 8003998:	f023 0307 	bic.w	r3, r3, #7
 800399c:	6053      	str	r3, [r2, #4]
 800399e:	4a18      	ldr	r2, [pc, #96]	; (8003a00 <HAL_RTC_Init+0xe8>)
 80039a0:	b118      	cbz	r0, 80039aa <HAL_RTC_Init+0x92>
 80039a2:	6b11      	ldr	r1, [r2, #48]	; 0x30
 80039a4:	f021 0101 	bic.w	r1, r1, #1
 80039a8:	6311      	str	r1, [r2, #48]	; 0x30
 80039aa:	6ad3      	ldr	r3, [r2, #44]	; 0x2c
 80039ac:	f423 7360 	bic.w	r3, r3, #896	; 0x380
 80039b0:	4303      	orrs	r3, r0
 80039b2:	62d3      	str	r3, [r2, #44]	; 0x2c
 80039b4:	6860      	ldr	r0, [r4, #4]
 80039b6:	1c43      	adds	r3, r0, #1
 80039b8:	d105      	bne.n	80039c6 <HAL_RTC_Init+0xae>
 80039ba:	2001      	movs	r0, #1
 80039bc:	f7ff fc1c 	bl	80031f8 <HAL_RCCEx_GetPeriphCLKFreq>
 80039c0:	2800      	cmp	r0, #0
 80039c2:	d0dd      	beq.n	8003980 <HAL_RTC_Init+0x68>
 80039c4:	3801      	subs	r0, #1
 80039c6:	6822      	ldr	r2, [r4, #0]
 80039c8:	6893      	ldr	r3, [r2, #8]
 80039ca:	f023 030f 	bic.w	r3, r3, #15
 80039ce:	ea43 4310 	orr.w	r3, r3, r0, lsr #16
 80039d2:	6093      	str	r3, [r2, #8]
 80039d4:	68d3      	ldr	r3, [r2, #12]
 80039d6:	b280      	uxth	r0, r0
 80039d8:	0c1b      	lsrs	r3, r3, #16
 80039da:	041b      	lsls	r3, r3, #16
 80039dc:	4318      	orrs	r0, r3
 80039de:	60d0      	str	r0, [r2, #12]
 80039e0:	4620      	mov	r0, r4
 80039e2:	f7ff fd08 	bl	80033f6 <RTC_ExitInitMode>
 80039e6:	2301      	movs	r3, #1
 80039e8:	b110      	cbz	r0, 80039f0 <HAL_RTC_Init+0xd8>
 80039ea:	2204      	movs	r2, #4
 80039ec:	7462      	strb	r2, [r4, #17]
 80039ee:	e7c9      	b.n	8003984 <HAL_RTC_Init+0x6c>
 80039f0:	7363      	strb	r3, [r4, #13]
 80039f2:	81e3      	strh	r3, [r4, #14]
 80039f4:	7463      	strb	r3, [r4, #17]
 80039f6:	bd10      	pop	{r4, pc}
 80039f8:	40002800 	.word	0x40002800
 80039fc:	08009d18 	.word	0x08009d18
 8003a00:	40006c00 	.word	0x40006c00

08003a04 <TIM_OC1_SetConfig>:
 8003a04:	6a03      	ldr	r3, [r0, #32]
 8003a06:	e92d 41f0 	stmdb	sp!, {r4, r5, r6, r7, r8, lr}
 8003a0a:	f023 0301 	bic.w	r3, r3, #1
 8003a0e:	6203      	str	r3, [r0, #32]
 8003a10:	6a05      	ldr	r5, [r0, #32]
 8003a12:	f8d0 8004 	ldr.w	r8, [r0, #4]
 8003a16:	6986      	ldr	r6, [r0, #24]
 8003a18:	680b      	ldr	r3, [r1, #0]
 8003a1a:	f026 0673 	bic.w	r6, r6, #115	; 0x73
 8003a1e:	431e      	orrs	r6, r3
 8003a20:	688b      	ldr	r3, [r1, #8]
 8003a22:	f025 0502 	bic.w	r5, r5, #2
 8003a26:	431d      	orrs	r5, r3
 8003a28:	4b1f      	ldr	r3, [pc, #124]	; (8003aa8 <TIM_OC1_SetConfig+0xa4>)
 8003a2a:	4604      	mov	r4, r0
 8003a2c:	4298      	cmp	r0, r3
 8003a2e:	460f      	mov	r7, r1
 8003a30:	d003      	beq.n	8003a3a <TIM_OC1_SetConfig+0x36>
 8003a32:	f503 6300 	add.w	r3, r3, #2048	; 0x800
 8003a36:	4298      	cmp	r0, r3
 8003a38:	d12e      	bne.n	8003a98 <TIM_OC1_SetConfig+0x94>
 8003a3a:	68fb      	ldr	r3, [r7, #12]
 8003a3c:	f033 0308 	bics.w	r3, r3, #8
 8003a40:	d004      	beq.n	8003a4c <TIM_OC1_SetConfig+0x48>
 8003a42:	f641 2141 	movw	r1, #6721	; 0x1a41
 8003a46:	4819      	ldr	r0, [pc, #100]	; (8003aac <TIM_OC1_SetConfig+0xa8>)
 8003a48:	f7fd ffe8 	bl	8001a1c <assert_failed>
 8003a4c:	68fb      	ldr	r3, [r7, #12]
 8003a4e:	f025 0508 	bic.w	r5, r5, #8
 8003a52:	431d      	orrs	r5, r3
 8003a54:	4b14      	ldr	r3, [pc, #80]	; (8003aa8 <TIM_OC1_SetConfig+0xa4>)
 8003a56:	f025 0504 	bic.w	r5, r5, #4
 8003a5a:	429c      	cmp	r4, r3
 8003a5c:	d003      	beq.n	8003a66 <TIM_OC1_SetConfig+0x62>
 8003a5e:	f503 6300 	add.w	r3, r3, #2048	; 0x800
 8003a62:	429c      	cmp	r4, r3
 8003a64:	d118      	bne.n	8003a98 <TIM_OC1_SetConfig+0x94>
 8003a66:	69bb      	ldr	r3, [r7, #24]
 8003a68:	f433 7300 	bics.w	r3, r3, #512	; 0x200
 8003a6c:	d004      	beq.n	8003a78 <TIM_OC1_SetConfig+0x74>
 8003a6e:	f641 214e 	movw	r1, #6734	; 0x1a4e
 8003a72:	480e      	ldr	r0, [pc, #56]	; (8003aac <TIM_OC1_SetConfig+0xa8>)
 8003a74:	f7fd ffd2 	bl	8001a1c <assert_failed>
 8003a78:	697b      	ldr	r3, [r7, #20]
 8003a7a:	f433 7380 	bics.w	r3, r3, #256	; 0x100
 8003a7e:	d004      	beq.n	8003a8a <TIM_OC1_SetConfig+0x86>
 8003a80:	f641 214f 	movw	r1, #6735	; 0x1a4f
 8003a84:	4809      	ldr	r0, [pc, #36]	; (8003aac <TIM_OC1_SetConfig+0xa8>)
 8003a86:	f7fd ffc9 	bl	8001a1c <assert_failed>
 8003a8a:	e9d7 3205 	ldrd	r3, r2, [r7, #20]
 8003a8e:	f428 7840 	bic.w	r8, r8, #768	; 0x300
 8003a92:	4313      	orrs	r3, r2
 8003a94:	ea43 0808 	orr.w	r8, r3, r8
 8003a98:	687b      	ldr	r3, [r7, #4]
 8003a9a:	f8c4 8004 	str.w	r8, [r4, #4]
 8003a9e:	61a6      	str	r6, [r4, #24]
 8003aa0:	6363      	str	r3, [r4, #52]	; 0x34
 8003aa2:	6225      	str	r5, [r4, #32]
 8003aa4:	e8bd 81f0 	ldmia.w	sp!, {r4, r5, r6, r7, r8, pc}
 8003aa8:	40012c00 	.word	0x40012c00
 8003aac:	08009d50 	.word	0x08009d50

08003ab0 <TIM_OC3_SetConfig>:
 8003ab0:	6a03      	ldr	r3, [r0, #32]
 8003ab2:	e92d 41f0 	stmdb	sp!, {r4, r5, r6, r7, r8, lr}
 8003ab6:	f423 7380 	bic.w	r3, r3, #256	; 0x100
 8003aba:	6203      	str	r3, [r0, #32]
 8003abc:	6a05      	ldr	r5, [r0, #32]
 8003abe:	f8d0 8004 	ldr.w	r8, [r0, #4]
 8003ac2:	69c6      	ldr	r6, [r0, #28]
 8003ac4:	680b      	ldr	r3, [r1, #0]
 8003ac6:	f026 0673 	bic.w	r6, r6, #115	; 0x73
 8003aca:	431e      	orrs	r6, r3
 8003acc:	688b      	ldr	r3, [r1, #8]
 8003ace:	f425 7500 	bic.w	r5, r5, #512	; 0x200
 8003ad2:	ea45 2503 	orr.w	r5, r5, r3, lsl #8
 8003ad6:	4b20      	ldr	r3, [pc, #128]	; (8003b58 <TIM_OC3_SetConfig+0xa8>)
 8003ad8:	4604      	mov	r4, r0
 8003ada:	4298      	cmp	r0, r3
 8003adc:	460f      	mov	r7, r1
 8003ade:	d003      	beq.n	8003ae8 <TIM_OC3_SetConfig+0x38>
 8003ae0:	f503 6300 	add.w	r3, r3, #2048	; 0x800
 8003ae4:	4298      	cmp	r0, r3
 8003ae6:	d12f      	bne.n	8003b48 <TIM_OC3_SetConfig+0x98>
 8003ae8:	68fb      	ldr	r3, [r7, #12]
 8003aea:	f033 0308 	bics.w	r3, r3, #8
 8003aee:	d004      	beq.n	8003afa <TIM_OC3_SetConfig+0x4a>
 8003af0:	f641 21d7 	movw	r1, #6871	; 0x1ad7
 8003af4:	4819      	ldr	r0, [pc, #100]	; (8003b5c <TIM_OC3_SetConfig+0xac>)
 8003af6:	f7fd ff91 	bl	8001a1c <assert_failed>
 8003afa:	68fb      	ldr	r3, [r7, #12]
 8003afc:	f425 6500 	bic.w	r5, r5, #2048	; 0x800
 8003b00:	ea45 2503 	orr.w	r5, r5, r3, lsl #8
 8003b04:	4b14      	ldr	r3, [pc, #80]	; (8003b58 <TIM_OC3_SetConfig+0xa8>)
 8003b06:	f425 6580 	bic.w	r5, r5, #1024	; 0x400
 8003b0a:	429c      	cmp	r4, r3
 8003b0c:	d003      	beq.n	8003b16 <TIM_OC3_SetConfig+0x66>
 8003b0e:	f503 6300 	add.w	r3, r3, #2048	; 0x800
 8003b12:	429c      	cmp	r4, r3
 8003b14:	d118      	bne.n	8003b48 <TIM_OC3_SetConfig+0x98>
 8003b16:	69bb      	ldr	r3, [r7, #24]
 8003b18:	f433 7300 	bics.w	r3, r3, #512	; 0x200
 8003b1c:	d004      	beq.n	8003b28 <TIM_OC3_SetConfig+0x78>
 8003b1e:	f641 21e4 	movw	r1, #6884	; 0x1ae4
 8003b22:	480e      	ldr	r0, [pc, #56]	; (8003b5c <TIM_OC3_SetConfig+0xac>)
 8003b24:	f7fd ff7a 	bl	8001a1c <assert_failed>
 8003b28:	697b      	ldr	r3, [r7, #20]
 8003b2a:	f433 7380 	bics.w	r3, r3, #256	; 0x100
 8003b2e:	d004      	beq.n	8003b3a <TIM_OC3_SetConfig+0x8a>
 8003b30:	f641 21e5 	movw	r1, #6885	; 0x1ae5
 8003b34:	4809      	ldr	r0, [pc, #36]	; (8003b5c <TIM_OC3_SetConfig+0xac>)
 8003b36:	f7fd ff71 	bl	8001a1c <assert_failed>
 8003b3a:	e9d7 3205 	ldrd	r3, r2, [r7, #20]
 8003b3e:	f428 5840 	bic.w	r8, r8, #12288	; 0x3000
 8003b42:	4313      	orrs	r3, r2
 8003b44:	ea48 1803 	orr.w	r8, r8, r3, lsl #4
 8003b48:	687b      	ldr	r3, [r7, #4]
 8003b4a:	f8c4 8004 	str.w	r8, [r4, #4]
 8003b4e:	61e6      	str	r6, [r4, #28]
 8003b50:	63e3      	str	r3, [r4, #60]	; 0x3c
 8003b52:	6225      	str	r5, [r4, #32]
 8003b54:	e8bd 81f0 	ldmia.w	sp!, {r4, r5, r6, r7, r8, pc}
 8003b58:	40012c00 	.word	0x40012c00
 8003b5c:	08009d50 	.word	0x08009d50

08003b60 <TIM_OC4_SetConfig>:
 8003b60:	6a03      	ldr	r3, [r0, #32]
 8003b62:	e92d 41f0 	stmdb	sp!, {r4, r5, r6, r7, r8, lr}
 8003b66:	f423 5380 	bic.w	r3, r3, #4096	; 0x1000
 8003b6a:	6203      	str	r3, [r0, #32]
 8003b6c:	6a06      	ldr	r6, [r0, #32]
 8003b6e:	f8d0 8004 	ldr.w	r8, [r0, #4]
 8003b72:	69c7      	ldr	r7, [r0, #28]
 8003b74:	680b      	ldr	r3, [r1, #0]
 8003b76:	f427 47e6 	bic.w	r7, r7, #29440	; 0x7300
 8003b7a:	ea47 2703 	orr.w	r7, r7, r3, lsl #8
 8003b7e:	688b      	ldr	r3, [r1, #8]
 8003b80:	f426 5600 	bic.w	r6, r6, #8192	; 0x2000
 8003b84:	ea46 3603 	orr.w	r6, r6, r3, lsl #12
 8003b88:	4b0f      	ldr	r3, [pc, #60]	; (8003bc8 <TIM_OC4_SetConfig+0x68>)
 8003b8a:	4604      	mov	r4, r0
 8003b8c:	4298      	cmp	r0, r3
 8003b8e:	460d      	mov	r5, r1
 8003b90:	d003      	beq.n	8003b9a <TIM_OC4_SetConfig+0x3a>
 8003b92:	f503 6300 	add.w	r3, r3, #2048	; 0x800
 8003b96:	4298      	cmp	r0, r3
 8003b98:	d10d      	bne.n	8003bb6 <TIM_OC4_SetConfig+0x56>
 8003b9a:	696b      	ldr	r3, [r5, #20]
 8003b9c:	f433 7380 	bics.w	r3, r3, #256	; 0x100
 8003ba0:	d004      	beq.n	8003bac <TIM_OC4_SetConfig+0x4c>
 8003ba2:	f641 3123 	movw	r1, #6947	; 0x1b23
 8003ba6:	4809      	ldr	r0, [pc, #36]	; (8003bcc <TIM_OC4_SetConfig+0x6c>)
 8003ba8:	f7fd ff38 	bl	8001a1c <assert_failed>
 8003bac:	696b      	ldr	r3, [r5, #20]
 8003bae:	f428 4880 	bic.w	r8, r8, #16384	; 0x4000
 8003bb2:	ea48 1883 	orr.w	r8, r8, r3, lsl #6
 8003bb6:	686b      	ldr	r3, [r5, #4]
 8003bb8:	f8c4 8004 	str.w	r8, [r4, #4]
 8003bbc:	61e7      	str	r7, [r4, #28]
 8003bbe:	6423      	str	r3, [r4, #64]	; 0x40
 8003bc0:	6226      	str	r6, [r4, #32]
 8003bc2:	e8bd 81f0 	ldmia.w	sp!, {r4, r5, r6, r7, r8, pc}
 8003bc6:	bf00      	nop
 8003bc8:	40012c00 	.word	0x40012c00
 8003bcc:	08009d50 	.word	0x08009d50

08003bd0 <HAL_TIM_PWM_MspInit>:
 8003bd0:	4770      	bx	lr

08003bd2 <HAL_TIM_PeriodElapsedHalfCpltCallback>:
 8003bd2:	4770      	bx	lr

08003bd4 <HAL_TIM_OC_DelayElapsedCallback>:
 8003bd4:	4770      	bx	lr

08003bd6 <HAL_TIM_IC_CaptureHalfCpltCallback>:
 8003bd6:	4770      	bx	lr

08003bd8 <HAL_TIM_PWM_PulseFinishedCallback>:
 8003bd8:	4770      	bx	lr

08003bda <HAL_TIM_PWM_PulseFinishedHalfCpltCallback>:
 8003bda:	4770      	bx	lr

08003bdc <HAL_TIM_TriggerCallback>:
 8003bdc:	4770      	bx	lr

08003bde <HAL_TIM_TriggerHalfCpltCallback>:
 8003bde:	4770      	bx	lr

08003be0 <HAL_TIM_ErrorCallback>:
 8003be0:	4770      	bx	lr
	...

08003be4 <HAL_TIM_Base_Start>:
 8003be4:	6803      	ldr	r3, [r0, #0]
 8003be6:	4a28      	ldr	r2, [pc, #160]	; (8003c88 <HAL_TIM_Base_Start+0xa4>)
 8003be8:	b510      	push	{r4, lr}
 8003bea:	4293      	cmp	r3, r2
 8003bec:	4604      	mov	r4, r0
 8003bee:	d01f      	beq.n	8003c30 <HAL_TIM_Base_Start+0x4c>
 8003bf0:	f502 6200 	add.w	r2, r2, #2048	; 0x800
 8003bf4:	4293      	cmp	r3, r2
 8003bf6:	d01b      	beq.n	8003c30 <HAL_TIM_Base_Start+0x4c>
 8003bf8:	f1b3 4f80 	cmp.w	r3, #1073741824	; 0x40000000
 8003bfc:	d018      	beq.n	8003c30 <HAL_TIM_Base_Start+0x4c>
 8003bfe:	f5a2 3298 	sub.w	r2, r2, #77824	; 0x13000
 8003c02:	4293      	cmp	r3, r2
 8003c04:	d014      	beq.n	8003c30 <HAL_TIM_Base_Start+0x4c>
 8003c06:	f502 6280 	add.w	r2, r2, #1024	; 0x400
 8003c0a:	4293      	cmp	r3, r2
 8003c0c:	d010      	beq.n	8003c30 <HAL_TIM_Base_Start+0x4c>
 8003c0e:	f502 6280 	add.w	r2, r2, #1024	; 0x400
 8003c12:	4293      	cmp	r3, r2
 8003c14:	d00c      	beq.n	8003c30 <HAL_TIM_Base_Start+0x4c>
 8003c16:	f502 6280 	add.w	r2, r2, #1024	; 0x400
 8003c1a:	4293      	cmp	r3, r2
 8003c1c:	d008      	beq.n	8003c30 <HAL_TIM_Base_Start+0x4c>
 8003c1e:	f502 6280 	add.w	r2, r2, #1024	; 0x400
 8003c22:	4293      	cmp	r3, r2
 8003c24:	d004      	beq.n	8003c30 <HAL_TIM_Base_Start+0x4c>
 8003c26:	f44f 71ca 	mov.w	r1, #404	; 0x194
 8003c2a:	4818      	ldr	r0, [pc, #96]	; (8003c8c <HAL_TIM_Base_Start+0xa8>)
 8003c2c:	f7fd fef6 	bl	8001a1c <assert_failed>
 8003c30:	f894 303d 	ldrb.w	r3, [r4, #61]	; 0x3d
 8003c34:	2b01      	cmp	r3, #1
 8003c36:	d124      	bne.n	8003c82 <HAL_TIM_Base_Start+0x9e>
 8003c38:	2302      	movs	r3, #2
 8003c3a:	4a13      	ldr	r2, [pc, #76]	; (8003c88 <HAL_TIM_Base_Start+0xa4>)
 8003c3c:	f884 303d 	strb.w	r3, [r4, #61]	; 0x3d
 8003c40:	6823      	ldr	r3, [r4, #0]
 8003c42:	4293      	cmp	r3, r2
 8003c44:	d012      	beq.n	8003c6c <HAL_TIM_Base_Start+0x88>
 8003c46:	f502 6200 	add.w	r2, r2, #2048	; 0x800
 8003c4a:	4293      	cmp	r3, r2
 8003c4c:	d00e      	beq.n	8003c6c <HAL_TIM_Base_Start+0x88>
 8003c4e:	f1b3 4f80 	cmp.w	r3, #1073741824	; 0x40000000
 8003c52:	d00b      	beq.n	8003c6c <HAL_TIM_Base_Start+0x88>
 8003c54:	f5a2 3298 	sub.w	r2, r2, #77824	; 0x13000
 8003c58:	4293      	cmp	r3, r2
 8003c5a:	d007      	beq.n	8003c6c <HAL_TIM_Base_Start+0x88>
 8003c5c:	f502 6280 	add.w	r2, r2, #1024	; 0x400
 8003c60:	4293      	cmp	r3, r2
 8003c62:	d003      	beq.n	8003c6c <HAL_TIM_Base_Start+0x88>
 8003c64:	f502 6280 	add.w	r2, r2, #1024	; 0x400
 8003c68:	4293      	cmp	r3, r2
 8003c6a:	d104      	bne.n	8003c76 <HAL_TIM_Base_Start+0x92>
 8003c6c:	689a      	ldr	r2, [r3, #8]
 8003c6e:	f002 0207 	and.w	r2, r2, #7
 8003c72:	2a06      	cmp	r2, #6
 8003c74:	d003      	beq.n	8003c7e <HAL_TIM_Base_Start+0x9a>
 8003c76:	681a      	ldr	r2, [r3, #0]
 8003c78:	f042 0201 	orr.w	r2, r2, #1
 8003c7c:	601a      	str	r2, [r3, #0]
 8003c7e:	2000      	movs	r0, #0
 8003c80:	e000      	b.n	8003c84 <HAL_TIM_Base_Start+0xa0>
 8003c82:	2001      	movs	r0, #1
 8003c84:	bd10      	pop	{r4, pc}
 8003c86:	bf00      	nop
 8003c88:	40012c00 	.word	0x40012c00
 8003c8c:	08009d50 	.word	0x08009d50

08003c90 <HAL_TIM_Base_Start_IT>:
 8003c90:	6803      	ldr	r3, [r0, #0]
 8003c92:	4a2a      	ldr	r2, [pc, #168]	; (8003d3c <HAL_TIM_Base_Start_IT+0xac>)
 8003c94:	b510      	push	{r4, lr}
 8003c96:	4293      	cmp	r3, r2
 8003c98:	4604      	mov	r4, r0
 8003c9a:	d01f      	beq.n	8003cdc <HAL_TIM_Base_Start_IT+0x4c>
 8003c9c:	f502 6200 	add.w	r2, r2, #2048	; 0x800
 8003ca0:	4293      	cmp	r3, r2
 8003ca2:	d01b      	beq.n	8003cdc <HAL_TIM_Base_Start_IT+0x4c>
 8003ca4:	f1b3 4f80 	cmp.w	r3, #1073741824	; 0x40000000
 8003ca8:	d018      	beq.n	8003cdc <HAL_TIM_Base_Start_IT+0x4c>
 8003caa:	f5a2 3298 	sub.w	r2, r2, #77824	; 0x13000
 8003cae:	4293      	cmp	r3, r2
 8003cb0:	d014      	beq.n	8003cdc <HAL_TIM_Base_Start_IT+0x4c>
 8003cb2:	f502 6280 	add.w	r2, r2, #1024	; 0x400
 8003cb6:	4293      	cmp	r3, r2
 8003cb8:	d010      	beq.n	8003cdc <HAL_TIM_Base_Start_IT+0x4c>
 8003cba:	f502 6280 	add.w	r2, r2, #1024	; 0x400
 8003cbe:	4293      	cmp	r3, r2
 8003cc0:	d00c      	beq.n	8003cdc <HAL_TIM_Base_Start_IT+0x4c>
 8003cc2:	f502 6280 	add.w	r2, r2, #1024	; 0x400
 8003cc6:	4293      	cmp	r3, r2
 8003cc8:	d008      	beq.n	8003cdc <HAL_TIM_Base_Start_IT+0x4c>
 8003cca:	f502 6280 	add.w	r2, r2, #1024	; 0x400
 8003cce:	4293      	cmp	r3, r2
 8003cd0:	d004      	beq.n	8003cdc <HAL_TIM_Base_Start_IT+0x4c>
 8003cd2:	f240 11cf 	movw	r1, #463	; 0x1cf
 8003cd6:	481a      	ldr	r0, [pc, #104]	; (8003d40 <HAL_TIM_Base_Start_IT+0xb0>)
 8003cd8:	f7fd fea0 	bl	8001a1c <assert_failed>
 8003cdc:	f894 303d 	ldrb.w	r3, [r4, #61]	; 0x3d
 8003ce0:	2b01      	cmp	r3, #1
 8003ce2:	d128      	bne.n	8003d36 <HAL_TIM_Base_Start_IT+0xa6>
 8003ce4:	2302      	movs	r3, #2
 8003ce6:	f884 303d 	strb.w	r3, [r4, #61]	; 0x3d
 8003cea:	6823      	ldr	r3, [r4, #0]
 8003cec:	68da      	ldr	r2, [r3, #12]
 8003cee:	f042 0201 	orr.w	r2, r2, #1
 8003cf2:	60da      	str	r2, [r3, #12]
 8003cf4:	4a11      	ldr	r2, [pc, #68]	; (8003d3c <HAL_TIM_Base_Start_IT+0xac>)
 8003cf6:	4293      	cmp	r3, r2
 8003cf8:	d012      	beq.n	8003d20 <HAL_TIM_Base_Start_IT+0x90>
 8003cfa:	f502 6200 	add.w	r2, r2, #2048	; 0x800
 8003cfe:	4293      	cmp	r3, r2
 8003d00:	d00e      	beq.n	8003d20 <HAL_TIM_Base_Start_IT+0x90>
 8003d02:	f1b3 4f80 	cmp.w	r3, #1073741824	; 0x40000000
 8003d06:	d00b      	beq.n	8003d20 <HAL_TIM_Base_Start_IT+0x90>
 8003d08:	f5a2 3298 	sub.w	r2, r2, #77824	; 0x13000
 8003d0c:	4293      	cmp	r3, r2
 8003d0e:	d007      	beq.n	8003d20 <HAL_TIM_Base_Start_IT+0x90>
 8003d10:	f502 6280 	add.w	r2, r2, #1024	; 0x400
 8003d14:	4293      	cmp	r3, r2
 8003d16:	d003      	beq.n	8003d20 <HAL_TIM_Base_Start_IT+0x90>
 8003d18:	f502 6280 	add.w	r2, r2, #1024	; 0x400
 8003d1c:	4293      	cmp	r3, r2
 8003d1e:	d104      	bne.n	8003d2a <HAL_TIM_Base_Start_IT+0x9a>
 8003d20:	689a      	ldr	r2, [r3, #8]
 8003d22:	f002 0207 	and.w	r2, r2, #7
 8003d26:	2a06      	cmp	r2, #6
 8003d28:	d003      	beq.n	8003d32 <HAL_TIM_Base_Start_IT+0xa2>
 8003d2a:	681a      	ldr	r2, [r3, #0]
 8003d2c:	f042 0201 	orr.w	r2, r2, #1
 8003d30:	601a      	str	r2, [r3, #0]
 8003d32:	2000      	movs	r0, #0
 8003d34:	e000      	b.n	8003d38 <HAL_TIM_Base_Start_IT+0xa8>
 8003d36:	2001      	movs	r0, #1
 8003d38:	bd10      	pop	{r4, pc}
 8003d3a:	bf00      	nop
 8003d3c:	40012c00 	.word	0x40012c00
 8003d40:	08009d50 	.word	0x08009d50

08003d44 <HAL_TIM_IRQHandler>:
 8003d44:	6803      	ldr	r3, [r0, #0]
 8003d46:	b510      	push	{r4, lr}
 8003d48:	691a      	ldr	r2, [r3, #16]
 8003d4a:	4604      	mov	r4, r0
 8003d4c:	0791      	lsls	r1, r2, #30
 8003d4e:	d50f      	bpl.n	8003d70 <HAL_TIM_IRQHandler+0x2c>
 8003d50:	68da      	ldr	r2, [r3, #12]
 8003d52:	0792      	lsls	r2, r2, #30
 8003d54:	d50c      	bpl.n	8003d70 <HAL_TIM_IRQHandler+0x2c>
 8003d56:	f06f 0202 	mvn.w	r2, #2
 8003d5a:	611a      	str	r2, [r3, #16]
 8003d5c:	2201      	movs	r2, #1
 8003d5e:	7702      	strb	r2, [r0, #28]
 8003d60:	699b      	ldr	r3, [r3, #24]
 8003d62:	079b      	lsls	r3, r3, #30
 8003d64:	d07f      	beq.n	8003e66 <HAL_TIM_IRQHandler+0x122>
 8003d66:	f8d0 3090 	ldr.w	r3, [r0, #144]	; 0x90
 8003d6a:	4798      	blx	r3
 8003d6c:	2300      	movs	r3, #0
 8003d6e:	7723      	strb	r3, [r4, #28]
 8003d70:	6823      	ldr	r3, [r4, #0]
 8003d72:	691a      	ldr	r2, [r3, #16]
 8003d74:	0750      	lsls	r0, r2, #29
 8003d76:	d511      	bpl.n	8003d9c <HAL_TIM_IRQHandler+0x58>
 8003d78:	68da      	ldr	r2, [r3, #12]
 8003d7a:	0751      	lsls	r1, r2, #29
 8003d7c:	d50e      	bpl.n	8003d9c <HAL_TIM_IRQHandler+0x58>
 8003d7e:	f06f 0204 	mvn.w	r2, #4
 8003d82:	611a      	str	r2, [r3, #16]
 8003d84:	2202      	movs	r2, #2
 8003d86:	7722      	strb	r2, [r4, #28]
 8003d88:	699b      	ldr	r3, [r3, #24]
 8003d8a:	f413 7f40 	tst.w	r3, #768	; 0x300
 8003d8e:	d071      	beq.n	8003e74 <HAL_TIM_IRQHandler+0x130>
 8003d90:	f8d4 3090 	ldr.w	r3, [r4, #144]	; 0x90
 8003d94:	4620      	mov	r0, r4
 8003d96:	4798      	blx	r3
 8003d98:	2300      	movs	r3, #0
 8003d9a:	7723      	strb	r3, [r4, #28]
 8003d9c:	6823      	ldr	r3, [r4, #0]
 8003d9e:	691a      	ldr	r2, [r3, #16]
 8003da0:	0712      	lsls	r2, r2, #28
 8003da2:	d510      	bpl.n	8003dc6 <HAL_TIM_IRQHandler+0x82>
 8003da4:	68da      	ldr	r2, [r3, #12]
 8003da6:	0710      	lsls	r0, r2, #28
 8003da8:	d50d      	bpl.n	8003dc6 <HAL_TIM_IRQHandler+0x82>
 8003daa:	f06f 0208 	mvn.w	r2, #8
 8003dae:	611a      	str	r2, [r3, #16]
 8003db0:	2204      	movs	r2, #4
 8003db2:	7722      	strb	r2, [r4, #28]
 8003db4:	69db      	ldr	r3, [r3, #28]
 8003db6:	0799      	lsls	r1, r3, #30
 8003db8:	d063      	beq.n	8003e82 <HAL_TIM_IRQHandler+0x13e>
 8003dba:	f8d4 3090 	ldr.w	r3, [r4, #144]	; 0x90
 8003dbe:	4620      	mov	r0, r4
 8003dc0:	4798      	blx	r3
 8003dc2:	2300      	movs	r3, #0
 8003dc4:	7723      	strb	r3, [r4, #28]
 8003dc6:	6823      	ldr	r3, [r4, #0]
 8003dc8:	691a      	ldr	r2, [r3, #16]
 8003dca:	06d2      	lsls	r2, r2, #27
 8003dcc:	d511      	bpl.n	8003df2 <HAL_TIM_IRQHandler+0xae>
 8003dce:	68da      	ldr	r2, [r3, #12]
 8003dd0:	06d0      	lsls	r0, r2, #27
 8003dd2:	d50e      	bpl.n	8003df2 <HAL_TIM_IRQHandler+0xae>
 8003dd4:	f06f 0210 	mvn.w	r2, #16
 8003dd8:	611a      	str	r2, [r3, #16]
 8003dda:	2208      	movs	r2, #8
 8003ddc:	7722      	strb	r2, [r4, #28]
 8003dde:	69db      	ldr	r3, [r3, #28]
 8003de0:	f413 7f40 	tst.w	r3, #768	; 0x300
 8003de4:	d054      	beq.n	8003e90 <HAL_TIM_IRQHandler+0x14c>
 8003de6:	f8d4 3090 	ldr.w	r3, [r4, #144]	; 0x90
 8003dea:	4620      	mov	r0, r4
 8003dec:	4798      	blx	r3
 8003dee:	2300      	movs	r3, #0
 8003df0:	7723      	strb	r3, [r4, #28]
 8003df2:	6823      	ldr	r3, [r4, #0]
 8003df4:	691a      	ldr	r2, [r3, #16]
 8003df6:	07d1      	lsls	r1, r2, #31
 8003df8:	d509      	bpl.n	8003e0e <HAL_TIM_IRQHandler+0xca>
 8003dfa:	68da      	ldr	r2, [r3, #12]
 8003dfc:	07d2      	lsls	r2, r2, #31
 8003dfe:	d506      	bpl.n	8003e0e <HAL_TIM_IRQHandler+0xca>
 8003e00:	f06f 0201 	mvn.w	r2, #1
 8003e04:	4620      	mov	r0, r4
 8003e06:	611a      	str	r2, [r3, #16]
 8003e08:	f8d4 3080 	ldr.w	r3, [r4, #128]	; 0x80
 8003e0c:	4798      	blx	r3
 8003e0e:	6823      	ldr	r3, [r4, #0]
 8003e10:	691a      	ldr	r2, [r3, #16]
 8003e12:	0610      	lsls	r0, r2, #24
 8003e14:	d509      	bpl.n	8003e2a <HAL_TIM_IRQHandler+0xe6>
 8003e16:	68da      	ldr	r2, [r3, #12]
 8003e18:	0611      	lsls	r1, r2, #24
 8003e1a:	d506      	bpl.n	8003e2a <HAL_TIM_IRQHandler+0xe6>
 8003e1c:	f06f 0280 	mvn.w	r2, #128	; 0x80
 8003e20:	4620      	mov	r0, r4
 8003e22:	611a      	str	r2, [r3, #16]
 8003e24:	f8d4 30b0 	ldr.w	r3, [r4, #176]	; 0xb0
 8003e28:	4798      	blx	r3
 8003e2a:	6823      	ldr	r3, [r4, #0]
 8003e2c:	691a      	ldr	r2, [r3, #16]
 8003e2e:	0652      	lsls	r2, r2, #25
 8003e30:	d509      	bpl.n	8003e46 <HAL_TIM_IRQHandler+0x102>
 8003e32:	68da      	ldr	r2, [r3, #12]
 8003e34:	0650      	lsls	r0, r2, #25
 8003e36:	d506      	bpl.n	8003e46 <HAL_TIM_IRQHandler+0x102>
 8003e38:	f06f 0240 	mvn.w	r2, #64	; 0x40
 8003e3c:	4620      	mov	r0, r4
 8003e3e:	611a      	str	r2, [r3, #16]
 8003e40:	f8d4 3088 	ldr.w	r3, [r4, #136]	; 0x88
 8003e44:	4798      	blx	r3
 8003e46:	6823      	ldr	r3, [r4, #0]
 8003e48:	691a      	ldr	r2, [r3, #16]
 8003e4a:	0691      	lsls	r1, r2, #26
 8003e4c:	d527      	bpl.n	8003e9e <HAL_TIM_IRQHandler+0x15a>
 8003e4e:	68da      	ldr	r2, [r3, #12]
 8003e50:	0692      	lsls	r2, r2, #26
 8003e52:	d524      	bpl.n	8003e9e <HAL_TIM_IRQHandler+0x15a>
 8003e54:	f06f 0220 	mvn.w	r2, #32
 8003e58:	4620      	mov	r0, r4
 8003e5a:	611a      	str	r2, [r3, #16]
 8003e5c:	f8d4 30a8 	ldr.w	r3, [r4, #168]	; 0xa8
 8003e60:	e8bd 4010 	ldmia.w	sp!, {r4, lr}
 8003e64:	4718      	bx	r3
 8003e66:	f8d0 3098 	ldr.w	r3, [r0, #152]	; 0x98
 8003e6a:	4798      	blx	r3
 8003e6c:	4620      	mov	r0, r4
 8003e6e:	f8d4 309c 	ldr.w	r3, [r4, #156]	; 0x9c
 8003e72:	e77a      	b.n	8003d6a <HAL_TIM_IRQHandler+0x26>
 8003e74:	f8d4 3098 	ldr.w	r3, [r4, #152]	; 0x98
 8003e78:	4620      	mov	r0, r4
 8003e7a:	4798      	blx	r3
 8003e7c:	f8d4 309c 	ldr.w	r3, [r4, #156]	; 0x9c
 8003e80:	e788      	b.n	8003d94 <HAL_TIM_IRQHandler+0x50>
 8003e82:	f8d4 3098 	ldr.w	r3, [r4, #152]	; 0x98
 8003e86:	4620      	mov	r0, r4
 8003e88:	4798      	blx	r3
 8003e8a:	f8d4 309c 	ldr.w	r3, [r4, #156]	; 0x9c
 8003e8e:	e796      	b.n	8003dbe <HAL_TIM_IRQHandler+0x7a>
 8003e90:	f8d4 3098 	ldr.w	r3, [r4, #152]	; 0x98
 8003e94:	4620      	mov	r0, r4
 8003e96:	4798      	blx	r3
 8003e98:	f8d4 309c 	ldr.w	r3, [r4, #156]	; 0x9c
 8003e9c:	e7a5      	b.n	8003dea <HAL_TIM_IRQHandler+0xa6>
 8003e9e:	bd10      	pop	{r4, pc}

08003ea0 <TIM_Base_SetConfig>:
 8003ea0:	4a24      	ldr	r2, [pc, #144]	; (8003f34 <TIM_Base_SetConfig+0x94>)
 8003ea2:	6803      	ldr	r3, [r0, #0]
 8003ea4:	4290      	cmp	r0, r2
 8003ea6:	d012      	beq.n	8003ece <TIM_Base_SetConfig+0x2e>
 8003ea8:	f502 6200 	add.w	r2, r2, #2048	; 0x800
 8003eac:	4290      	cmp	r0, r2
 8003eae:	d00e      	beq.n	8003ece <TIM_Base_SetConfig+0x2e>
 8003eb0:	f1b0 4f80 	cmp.w	r0, #1073741824	; 0x40000000
 8003eb4:	d00b      	beq.n	8003ece <TIM_Base_SetConfig+0x2e>
 8003eb6:	f5a2 3298 	sub.w	r2, r2, #77824	; 0x13000
 8003eba:	4290      	cmp	r0, r2
 8003ebc:	d007      	beq.n	8003ece <TIM_Base_SetConfig+0x2e>
 8003ebe:	f502 6280 	add.w	r2, r2, #1024	; 0x400
 8003ec2:	4290      	cmp	r0, r2
 8003ec4:	d003      	beq.n	8003ece <TIM_Base_SetConfig+0x2e>
 8003ec6:	f502 6280 	add.w	r2, r2, #1024	; 0x400
 8003eca:	4290      	cmp	r0, r2
 8003ecc:	d11d      	bne.n	8003f0a <TIM_Base_SetConfig+0x6a>
 8003ece:	684a      	ldr	r2, [r1, #4]
 8003ed0:	f023 0370 	bic.w	r3, r3, #112	; 0x70
 8003ed4:	4313      	orrs	r3, r2
 8003ed6:	4a17      	ldr	r2, [pc, #92]	; (8003f34 <TIM_Base_SetConfig+0x94>)
 8003ed8:	4290      	cmp	r0, r2
 8003eda:	d012      	beq.n	8003f02 <TIM_Base_SetConfig+0x62>
 8003edc:	f502 6200 	add.w	r2, r2, #2048	; 0x800
 8003ee0:	4290      	cmp	r0, r2
 8003ee2:	d00e      	beq.n	8003f02 <TIM_Base_SetConfig+0x62>
 8003ee4:	f1b0 4f80 	cmp.w	r0, #1073741824	; 0x40000000
 8003ee8:	d00b      	beq.n	8003f02 <TIM_Base_SetConfig+0x62>
 8003eea:	f5a2 3298 	sub.w	r2, r2, #77824	; 0x13000
 8003eee:	4290      	cmp	r0, r2
 8003ef0:	d007      	beq.n	8003f02 <TIM_Base_SetConfig+0x62>
 8003ef2:	f502 6280 	add.w	r2, r2, #1024	; 0x400
 8003ef6:	4290      	cmp	r0, r2
 8003ef8:	d003      	beq.n	8003f02 <TIM_Base_SetConfig+0x62>
 8003efa:	f502 6280 	add.w	r2, r2, #1024	; 0x400
 8003efe:	4290      	cmp	r0, r2
 8003f00:	d103      	bne.n	8003f0a <TIM_Base_SetConfig+0x6a>
 8003f02:	68ca      	ldr	r2, [r1, #12]
 8003f04:	f423 7340 	bic.w	r3, r3, #768	; 0x300
 8003f08:	4313      	orrs	r3, r2
 8003f0a:	694a      	ldr	r2, [r1, #20]
 8003f0c:	f023 0380 	bic.w	r3, r3, #128	; 0x80
 8003f10:	4313      	orrs	r3, r2
 8003f12:	6003      	str	r3, [r0, #0]
 8003f14:	688b      	ldr	r3, [r1, #8]
 8003f16:	62c3      	str	r3, [r0, #44]	; 0x2c
 8003f18:	680b      	ldr	r3, [r1, #0]
 8003f1a:	6283      	str	r3, [r0, #40]	; 0x28
 8003f1c:	4b05      	ldr	r3, [pc, #20]	; (8003f34 <TIM_Base_SetConfig+0x94>)
 8003f1e:	4298      	cmp	r0, r3
 8003f20:	d003      	beq.n	8003f2a <TIM_Base_SetConfig+0x8a>
 8003f22:	f503 6300 	add.w	r3, r3, #2048	; 0x800
 8003f26:	4298      	cmp	r0, r3
 8003f28:	d101      	bne.n	8003f2e <TIM_Base_SetConfig+0x8e>
 8003f2a:	690b      	ldr	r3, [r1, #16]
 8003f2c:	6303      	str	r3, [r0, #48]	; 0x30
 8003f2e:	2301      	movs	r3, #1
 8003f30:	6143      	str	r3, [r0, #20]
 8003f32:	4770      	bx	lr
 8003f34:	40012c00 	.word	0x40012c00

08003f38 <TIM_OC2_SetConfig>:
 8003f38:	6a03      	ldr	r3, [r0, #32]
 8003f3a:	e92d 41f0 	stmdb	sp!, {r4, r5, r6, r7, r8, lr}
 8003f3e:	f023 0310 	bic.w	r3, r3, #16
 8003f42:	6203      	str	r3, [r0, #32]
 8003f44:	6a05      	ldr	r5, [r0, #32]
 8003f46:	f8d0 8004 	ldr.w	r8, [r0, #4]
 8003f4a:	6986      	ldr	r6, [r0, #24]
 8003f4c:	680b      	ldr	r3, [r1, #0]
 8003f4e:	f426 46e6 	bic.w	r6, r6, #29440	; 0x7300
 8003f52:	ea46 2603 	orr.w	r6, r6, r3, lsl #8
 8003f56:	688b      	ldr	r3, [r1, #8]
 8003f58:	f025 0520 	bic.w	r5, r5, #32
 8003f5c:	ea45 1503 	orr.w	r5, r5, r3, lsl #4
 8003f60:	4b20      	ldr	r3, [pc, #128]	; (8003fe4 <TIM_OC2_SetConfig+0xac>)
 8003f62:	4604      	mov	r4, r0
 8003f64:	4298      	cmp	r0, r3
 8003f66:	460f      	mov	r7, r1
 8003f68:	d003      	beq.n	8003f72 <TIM_OC2_SetConfig+0x3a>
 8003f6a:	f503 6300 	add.w	r3, r3, #2048	; 0x800
 8003f6e:	4298      	cmp	r0, r3
 8003f70:	d12f      	bne.n	8003fd2 <TIM_OC2_SetConfig+0x9a>
 8003f72:	68fb      	ldr	r3, [r7, #12]
 8003f74:	f033 0308 	bics.w	r3, r3, #8
 8003f78:	d004      	beq.n	8003f84 <TIM_OC2_SetConfig+0x4c>
 8003f7a:	f641 218c 	movw	r1, #6796	; 0x1a8c
 8003f7e:	481a      	ldr	r0, [pc, #104]	; (8003fe8 <TIM_OC2_SetConfig+0xb0>)
 8003f80:	f7fd fd4c 	bl	8001a1c <assert_failed>
 8003f84:	68fb      	ldr	r3, [r7, #12]
 8003f86:	f025 0580 	bic.w	r5, r5, #128	; 0x80
 8003f8a:	ea45 1503 	orr.w	r5, r5, r3, lsl #4
 8003f8e:	4b15      	ldr	r3, [pc, #84]	; (8003fe4 <TIM_OC2_SetConfig+0xac>)
 8003f90:	f025 0540 	bic.w	r5, r5, #64	; 0x40
 8003f94:	429c      	cmp	r4, r3
 8003f96:	d003      	beq.n	8003fa0 <TIM_OC2_SetConfig+0x68>
 8003f98:	f503 6300 	add.w	r3, r3, #2048	; 0x800
 8003f9c:	429c      	cmp	r4, r3
 8003f9e:	d118      	bne.n	8003fd2 <TIM_OC2_SetConfig+0x9a>
 8003fa0:	69bb      	ldr	r3, [r7, #24]
 8003fa2:	f433 7300 	bics.w	r3, r3, #512	; 0x200
 8003fa6:	d004      	beq.n	8003fb2 <TIM_OC2_SetConfig+0x7a>
 8003fa8:	f641 219a 	movw	r1, #6810	; 0x1a9a
 8003fac:	480e      	ldr	r0, [pc, #56]	; (8003fe8 <TIM_OC2_SetConfig+0xb0>)
 8003fae:	f7fd fd35 	bl	8001a1c <assert_failed>
 8003fb2:	697b      	ldr	r3, [r7, #20]
 8003fb4:	f433 7380 	bics.w	r3, r3, #256	; 0x100
 8003fb8:	d004      	beq.n	8003fc4 <TIM_OC2_SetConfig+0x8c>
 8003fba:	f641 219b 	movw	r1, #6811	; 0x1a9b
 8003fbe:	480a      	ldr	r0, [pc, #40]	; (8003fe8 <TIM_OC2_SetConfig+0xb0>)
 8003fc0:	f7fd fd2c 	bl	8001a1c <assert_failed>
 8003fc4:	e9d7 3205 	ldrd	r3, r2, [r7, #20]
 8003fc8:	f428 6840 	bic.w	r8, r8, #3072	; 0xc00
 8003fcc:	4313      	orrs	r3, r2
 8003fce:	ea48 0883 	orr.w	r8, r8, r3, lsl #2
 8003fd2:	687b      	ldr	r3, [r7, #4]
 8003fd4:	f8c4 8004 	str.w	r8, [r4, #4]
 8003fd8:	61a6      	str	r6, [r4, #24]
 8003fda:	63a3      	str	r3, [r4, #56]	; 0x38
 8003fdc:	6225      	str	r5, [r4, #32]
 8003fde:	e8bd 81f0 	ldmia.w	sp!, {r4, r5, r6, r7, r8, pc}
 8003fe2:	bf00      	nop
 8003fe4:	40012c00 	.word	0x40012c00
 8003fe8:	08009d50 	.word	0x08009d50

08003fec <HAL_TIM_PWM_ConfigChannel>:
 8003fec:	f032 030c 	bics.w	r3, r2, #12
 8003ff0:	b570      	push	{r4, r5, r6, lr}
 8003ff2:	4604      	mov	r4, r0
 8003ff4:	460d      	mov	r5, r1
 8003ff6:	4616      	mov	r6, r2
 8003ff8:	d006      	beq.n	8004008 <HAL_TIM_PWM_ConfigChannel+0x1c>
 8003ffa:	2a3c      	cmp	r2, #60	; 0x3c
 8003ffc:	d004      	beq.n	8004008 <HAL_TIM_PWM_ConfigChannel+0x1c>
 8003ffe:	f241 0127 	movw	r1, #4135	; 0x1027
 8004002:	4877      	ldr	r0, [pc, #476]	; (80041e0 <HAL_TIM_PWM_ConfigChannel+0x1f4>)
 8004004:	f7fd fd0a 	bl	8001a1c <assert_failed>
 8004008:	682b      	ldr	r3, [r5, #0]
 800400a:	f023 0310 	bic.w	r3, r3, #16
 800400e:	2b60      	cmp	r3, #96	; 0x60
 8004010:	d004      	beq.n	800401c <HAL_TIM_PWM_ConfigChannel+0x30>
 8004012:	f241 0128 	movw	r1, #4136	; 0x1028
 8004016:	4872      	ldr	r0, [pc, #456]	; (80041e0 <HAL_TIM_PWM_ConfigChannel+0x1f4>)
 8004018:	f7fd fd00 	bl	8001a1c <assert_failed>
 800401c:	68ab      	ldr	r3, [r5, #8]
 800401e:	f033 0302 	bics.w	r3, r3, #2
 8004022:	d004      	beq.n	800402e <HAL_TIM_PWM_ConfigChannel+0x42>
 8004024:	f241 0129 	movw	r1, #4137	; 0x1029
 8004028:	486d      	ldr	r0, [pc, #436]	; (80041e0 <HAL_TIM_PWM_ConfigChannel+0x1f4>)
 800402a:	f7fd fcf7 	bl	8001a1c <assert_failed>
 800402e:	692b      	ldr	r3, [r5, #16]
 8004030:	f033 0304 	bics.w	r3, r3, #4
 8004034:	d004      	beq.n	8004040 <HAL_TIM_PWM_ConfigChannel+0x54>
 8004036:	f241 012a 	movw	r1, #4138	; 0x102a
 800403a:	4869      	ldr	r0, [pc, #420]	; (80041e0 <HAL_TIM_PWM_ConfigChannel+0x1f4>)
 800403c:	f7fd fcee 	bl	8001a1c <assert_failed>
 8004040:	f894 303c 	ldrb.w	r3, [r4, #60]	; 0x3c
 8004044:	2b01      	cmp	r3, #1
 8004046:	f000 80c9 	beq.w	80041dc <HAL_TIM_PWM_ConfigChannel+0x1f0>
 800404a:	2301      	movs	r3, #1
 800404c:	2e08      	cmp	r6, #8
 800404e:	f884 303c 	strb.w	r3, [r4, #60]	; 0x3c
 8004052:	f000 8095 	beq.w	8004180 <HAL_TIM_PWM_ConfigChannel+0x194>
 8004056:	d807      	bhi.n	8004068 <HAL_TIM_PWM_ConfigChannel+0x7c>
 8004058:	2e00      	cmp	r6, #0
 800405a:	d035      	beq.n	80040c8 <HAL_TIM_PWM_ConfigChannel+0xdc>
 800405c:	2e04      	cmp	r6, #4
 800405e:	d061      	beq.n	8004124 <HAL_TIM_PWM_ConfigChannel+0x138>
 8004060:	2000      	movs	r0, #0
 8004062:	f884 003c 	strb.w	r0, [r4, #60]	; 0x3c
 8004066:	bd70      	pop	{r4, r5, r6, pc}
 8004068:	2e0c      	cmp	r6, #12
 800406a:	d1f9      	bne.n	8004060 <HAL_TIM_PWM_ConfigChannel+0x74>
 800406c:	6823      	ldr	r3, [r4, #0]
 800406e:	4a5d      	ldr	r2, [pc, #372]	; (80041e4 <HAL_TIM_PWM_ConfigChannel+0x1f8>)
 8004070:	4293      	cmp	r3, r2
 8004072:	d017      	beq.n	80040a4 <HAL_TIM_PWM_ConfigChannel+0xb8>
 8004074:	f502 6200 	add.w	r2, r2, #2048	; 0x800
 8004078:	4293      	cmp	r3, r2
 800407a:	d013      	beq.n	80040a4 <HAL_TIM_PWM_ConfigChannel+0xb8>
 800407c:	f1b3 4f80 	cmp.w	r3, #1073741824	; 0x40000000
 8004080:	d010      	beq.n	80040a4 <HAL_TIM_PWM_ConfigChannel+0xb8>
 8004082:	f5a2 3298 	sub.w	r2, r2, #77824	; 0x13000
 8004086:	4293      	cmp	r3, r2
 8004088:	d00c      	beq.n	80040a4 <HAL_TIM_PWM_ConfigChannel+0xb8>
 800408a:	f502 6280 	add.w	r2, r2, #1024	; 0x400
 800408e:	4293      	cmp	r3, r2
 8004090:	d008      	beq.n	80040a4 <HAL_TIM_PWM_ConfigChannel+0xb8>
 8004092:	f502 6280 	add.w	r2, r2, #1024	; 0x400
 8004096:	4293      	cmp	r3, r2
 8004098:	d004      	beq.n	80040a4 <HAL_TIM_PWM_ConfigChannel+0xb8>
 800409a:	f241 0167 	movw	r1, #4199	; 0x1067
 800409e:	4850      	ldr	r0, [pc, #320]	; (80041e0 <HAL_TIM_PWM_ConfigChannel+0x1f4>)
 80040a0:	f7fd fcbc 	bl	8001a1c <assert_failed>
 80040a4:	4629      	mov	r1, r5
 80040a6:	6820      	ldr	r0, [r4, #0]
 80040a8:	f7ff fd5a 	bl	8003b60 <TIM_OC4_SetConfig>
 80040ac:	6823      	ldr	r3, [r4, #0]
 80040ae:	6929      	ldr	r1, [r5, #16]
 80040b0:	69da      	ldr	r2, [r3, #28]
 80040b2:	f442 6200 	orr.w	r2, r2, #2048	; 0x800
 80040b6:	61da      	str	r2, [r3, #28]
 80040b8:	69da      	ldr	r2, [r3, #28]
 80040ba:	f422 6280 	bic.w	r2, r2, #1024	; 0x400
 80040be:	61da      	str	r2, [r3, #28]
 80040c0:	69da      	ldr	r2, [r3, #28]
 80040c2:	ea42 2201 	orr.w	r2, r2, r1, lsl #8
 80040c6:	e087      	b.n	80041d8 <HAL_TIM_PWM_ConfigChannel+0x1ec>
 80040c8:	6823      	ldr	r3, [r4, #0]
 80040ca:	4a46      	ldr	r2, [pc, #280]	; (80041e4 <HAL_TIM_PWM_ConfigChannel+0x1f8>)
 80040cc:	4293      	cmp	r3, r2
 80040ce:	d017      	beq.n	8004100 <HAL_TIM_PWM_ConfigChannel+0x114>
 80040d0:	f502 6200 	add.w	r2, r2, #2048	; 0x800
 80040d4:	4293      	cmp	r3, r2
 80040d6:	d013      	beq.n	8004100 <HAL_TIM_PWM_ConfigChannel+0x114>
 80040d8:	f1b3 4f80 	cmp.w	r3, #1073741824	; 0x40000000
 80040dc:	d010      	beq.n	8004100 <HAL_TIM_PWM_ConfigChannel+0x114>
 80040de:	f5a2 3298 	sub.w	r2, r2, #77824	; 0x13000
 80040e2:	4293      	cmp	r3, r2
 80040e4:	d00c      	beq.n	8004100 <HAL_TIM_PWM_ConfigChannel+0x114>
 80040e6:	f502 6280 	add.w	r2, r2, #1024	; 0x400
 80040ea:	4293      	cmp	r3, r2
 80040ec:	d008      	beq.n	8004100 <HAL_TIM_PWM_ConfigChannel+0x114>
 80040ee:	f502 6280 	add.w	r2, r2, #1024	; 0x400
 80040f2:	4293      	cmp	r3, r2
 80040f4:	d004      	beq.n	8004100 <HAL_TIM_PWM_ConfigChannel+0x114>
 80040f6:	f241 0134 	movw	r1, #4148	; 0x1034
 80040fa:	4839      	ldr	r0, [pc, #228]	; (80041e0 <HAL_TIM_PWM_ConfigChannel+0x1f4>)
 80040fc:	f7fd fc8e 	bl	8001a1c <assert_failed>
 8004100:	4629      	mov	r1, r5
 8004102:	6820      	ldr	r0, [r4, #0]
 8004104:	f7ff fc7e 	bl	8003a04 <TIM_OC1_SetConfig>
 8004108:	6823      	ldr	r3, [r4, #0]
 800410a:	6929      	ldr	r1, [r5, #16]
 800410c:	699a      	ldr	r2, [r3, #24]
 800410e:	f042 0208 	orr.w	r2, r2, #8
 8004112:	619a      	str	r2, [r3, #24]
 8004114:	699a      	ldr	r2, [r3, #24]
 8004116:	f022 0204 	bic.w	r2, r2, #4
 800411a:	619a      	str	r2, [r3, #24]
 800411c:	699a      	ldr	r2, [r3, #24]
 800411e:	430a      	orrs	r2, r1
 8004120:	619a      	str	r2, [r3, #24]
 8004122:	e79d      	b.n	8004060 <HAL_TIM_PWM_ConfigChannel+0x74>
 8004124:	6823      	ldr	r3, [r4, #0]
 8004126:	4a2f      	ldr	r2, [pc, #188]	; (80041e4 <HAL_TIM_PWM_ConfigChannel+0x1f8>)
 8004128:	4293      	cmp	r3, r2
 800412a:	d017      	beq.n	800415c <HAL_TIM_PWM_ConfigChannel+0x170>
 800412c:	f502 6200 	add.w	r2, r2, #2048	; 0x800
 8004130:	4293      	cmp	r3, r2
 8004132:	d013      	beq.n	800415c <HAL_TIM_PWM_ConfigChannel+0x170>
 8004134:	f1b3 4f80 	cmp.w	r3, #1073741824	; 0x40000000
 8004138:	d010      	beq.n	800415c <HAL_TIM_PWM_ConfigChannel+0x170>
 800413a:	f5a2 3298 	sub.w	r2, r2, #77824	; 0x13000
 800413e:	4293      	cmp	r3, r2
 8004140:	d00c      	beq.n	800415c <HAL_TIM_PWM_ConfigChannel+0x170>
 8004142:	f502 6280 	add.w	r2, r2, #1024	; 0x400
 8004146:	4293      	cmp	r3, r2
 8004148:	d008      	beq.n	800415c <HAL_TIM_PWM_ConfigChannel+0x170>
 800414a:	f502 6280 	add.w	r2, r2, #1024	; 0x400
 800414e:	4293      	cmp	r3, r2
 8004150:	d004      	beq.n	800415c <HAL_TIM_PWM_ConfigChannel+0x170>
 8004152:	f241 0145 	movw	r1, #4165	; 0x1045
 8004156:	4822      	ldr	r0, [pc, #136]	; (80041e0 <HAL_TIM_PWM_ConfigChannel+0x1f4>)
 8004158:	f7fd fc60 	bl	8001a1c <assert_failed>
 800415c:	4629      	mov	r1, r5
 800415e:	6820      	ldr	r0, [r4, #0]
 8004160:	f7ff feea 	bl	8003f38 <TIM_OC2_SetConfig>
 8004164:	6823      	ldr	r3, [r4, #0]
 8004166:	6929      	ldr	r1, [r5, #16]
 8004168:	699a      	ldr	r2, [r3, #24]
 800416a:	f442 6200 	orr.w	r2, r2, #2048	; 0x800
 800416e:	619a      	str	r2, [r3, #24]
 8004170:	699a      	ldr	r2, [r3, #24]
 8004172:	f422 6280 	bic.w	r2, r2, #1024	; 0x400
 8004176:	619a      	str	r2, [r3, #24]
 8004178:	699a      	ldr	r2, [r3, #24]
 800417a:	ea42 2201 	orr.w	r2, r2, r1, lsl #8
 800417e:	e7cf      	b.n	8004120 <HAL_TIM_PWM_ConfigChannel+0x134>
 8004180:	6823      	ldr	r3, [r4, #0]
 8004182:	4a18      	ldr	r2, [pc, #96]	; (80041e4 <HAL_TIM_PWM_ConfigChannel+0x1f8>)
 8004184:	4293      	cmp	r3, r2
 8004186:	d017      	beq.n	80041b8 <HAL_TIM_PWM_ConfigChannel+0x1cc>
 8004188:	f502 6200 	add.w	r2, r2, #2048	; 0x800
 800418c:	4293      	cmp	r3, r2
 800418e:	d013      	beq.n	80041b8 <HAL_TIM_PWM_ConfigChannel+0x1cc>
 8004190:	f1b3 4f80 	cmp.w	r3, #1073741824	; 0x40000000
 8004194:	d010      	beq.n	80041b8 <HAL_TIM_PWM_ConfigChannel+0x1cc>
 8004196:	f5a2 3298 	sub.w	r2, r2, #77824	; 0x13000
 800419a:	4293      	cmp	r3, r2
 800419c:	d00c      	beq.n	80041b8 <HAL_TIM_PWM_ConfigChannel+0x1cc>
 800419e:	f502 6280 	add.w	r2, r2, #1024	; 0x400
 80041a2:	4293      	cmp	r3, r2
 80041a4:	d008      	beq.n	80041b8 <HAL_TIM_PWM_ConfigChannel+0x1cc>
 80041a6:	f502 6280 	add.w	r2, r2, #1024	; 0x400
 80041aa:	4293      	cmp	r3, r2
 80041ac:	d004      	beq.n	80041b8 <HAL_TIM_PWM_ConfigChannel+0x1cc>
 80041ae:	f241 0156 	movw	r1, #4182	; 0x1056
 80041b2:	480b      	ldr	r0, [pc, #44]	; (80041e0 <HAL_TIM_PWM_ConfigChannel+0x1f4>)
 80041b4:	f7fd fc32 	bl	8001a1c <assert_failed>
 80041b8:	4629      	mov	r1, r5
 80041ba:	6820      	ldr	r0, [r4, #0]
 80041bc:	f7ff fc78 	bl	8003ab0 <TIM_OC3_SetConfig>
 80041c0:	6823      	ldr	r3, [r4, #0]
 80041c2:	6929      	ldr	r1, [r5, #16]
 80041c4:	69da      	ldr	r2, [r3, #28]
 80041c6:	f042 0208 	orr.w	r2, r2, #8
 80041ca:	61da      	str	r2, [r3, #28]
 80041cc:	69da      	ldr	r2, [r3, #28]
 80041ce:	f022 0204 	bic.w	r2, r2, #4
 80041d2:	61da      	str	r2, [r3, #28]
 80041d4:	69da      	ldr	r2, [r3, #28]
 80041d6:	430a      	orrs	r2, r1
 80041d8:	61da      	str	r2, [r3, #28]
 80041da:	e741      	b.n	8004060 <HAL_TIM_PWM_ConfigChannel+0x74>
 80041dc:	2002      	movs	r0, #2
 80041de:	e742      	b.n	8004066 <HAL_TIM_PWM_ConfigChannel+0x7a>
 80041e0:	08009d50 	.word	0x08009d50
 80041e4:	40012c00 	.word	0x40012c00

080041e8 <TIM_ETR_SetConfig>:
 80041e8:	b510      	push	{r4, lr}
 80041ea:	6884      	ldr	r4, [r0, #8]
 80041ec:	430a      	orrs	r2, r1
 80041ee:	f424 447f 	bic.w	r4, r4, #65280	; 0xff00
 80041f2:	ea42 2203 	orr.w	r2, r2, r3, lsl #8
 80041f6:	4322      	orrs	r2, r4
 80041f8:	6082      	str	r2, [r0, #8]
 80041fa:	bd10      	pop	{r4, pc}

080041fc <HAL_TIM_ConfigClockSource>:
 80041fc:	b570      	push	{r4, r5, r6, lr}
 80041fe:	f890 303c 	ldrb.w	r3, [r0, #60]	; 0x3c
 8004202:	4605      	mov	r5, r0
 8004204:	2b01      	cmp	r3, #1
 8004206:	460c      	mov	r4, r1
 8004208:	f04f 0002 	mov.w	r0, #2
 800420c:	d058      	beq.n	80042c0 <HAL_TIM_ConfigClockSource+0xc4>
 800420e:	2301      	movs	r3, #1
 8004210:	f885 003d 	strb.w	r0, [r5, #61]	; 0x3d
 8004214:	f885 303c 	strb.w	r3, [r5, #60]	; 0x3c
 8004218:	680b      	ldr	r3, [r1, #0]
 800421a:	f5b3 5f80 	cmp.w	r3, #4096	; 0x1000
 800421e:	d00c      	beq.n	800423a <HAL_TIM_ConfigClockSource+0x3e>
 8004220:	f5b3 5f00 	cmp.w	r3, #8192	; 0x2000
 8004224:	d009      	beq.n	800423a <HAL_TIM_ConfigClockSource+0x3e>
 8004226:	f033 0330 	bics.w	r3, r3, #48	; 0x30
 800422a:	d006      	beq.n	800423a <HAL_TIM_ConfigClockSource+0x3e>
 800422c:	2b40      	cmp	r3, #64	; 0x40
 800422e:	d004      	beq.n	800423a <HAL_TIM_ConfigClockSource+0x3e>
 8004230:	f241 4132 	movw	r1, #5170	; 0x1432
 8004234:	48a8      	ldr	r0, [pc, #672]	; (80044d8 <HAL_TIM_ConfigClockSource+0x2dc>)
 8004236:	f7fd fbf1 	bl	8001a1c <assert_failed>
 800423a:	682b      	ldr	r3, [r5, #0]
 800423c:	689a      	ldr	r2, [r3, #8]
 800423e:	f422 427f 	bic.w	r2, r2, #65280	; 0xff00
 8004242:	f022 0277 	bic.w	r2, r2, #119	; 0x77
 8004246:	609a      	str	r2, [r3, #8]
 8004248:	6822      	ldr	r2, [r4, #0]
 800424a:	2a60      	cmp	r2, #96	; 0x60
 800424c:	f000 8148 	beq.w	80044e0 <HAL_TIM_ConfigClockSource+0x2e4>
 8004250:	f200 8083 	bhi.w	800435a <HAL_TIM_ConfigClockSource+0x15e>
 8004254:	2a40      	cmp	r2, #64	; 0x40
 8004256:	f000 818d 	beq.w	8004574 <HAL_TIM_ConfigClockSource+0x378>
 800425a:	d832      	bhi.n	80042c2 <HAL_TIM_ConfigClockSource+0xc6>
 800425c:	2a20      	cmp	r2, #32
 800425e:	d003      	beq.n	8004268 <HAL_TIM_ConfigClockSource+0x6c>
 8004260:	d826      	bhi.n	80042b0 <HAL_TIM_ConfigClockSource+0xb4>
 8004262:	f032 0210 	bics.w	r2, r2, #16
 8004266:	d125      	bne.n	80042b4 <HAL_TIM_ConfigClockSource+0xb8>
 8004268:	4a9c      	ldr	r2, [pc, #624]	; (80044dc <HAL_TIM_ConfigClockSource+0x2e0>)
 800426a:	4293      	cmp	r3, r2
 800426c:	d017      	beq.n	800429e <HAL_TIM_ConfigClockSource+0xa2>
 800426e:	f502 6200 	add.w	r2, r2, #2048	; 0x800
 8004272:	4293      	cmp	r3, r2
 8004274:	d013      	beq.n	800429e <HAL_TIM_ConfigClockSource+0xa2>
 8004276:	f1b3 4f80 	cmp.w	r3, #1073741824	; 0x40000000
 800427a:	d010      	beq.n	800429e <HAL_TIM_ConfigClockSource+0xa2>
 800427c:	f5a2 3298 	sub.w	r2, r2, #77824	; 0x13000
 8004280:	4293      	cmp	r3, r2
 8004282:	d00c      	beq.n	800429e <HAL_TIM_ConfigClockSource+0xa2>
 8004284:	f502 6280 	add.w	r2, r2, #1024	; 0x400
 8004288:	4293      	cmp	r3, r2
 800428a:	d008      	beq.n	800429e <HAL_TIM_ConfigClockSource+0xa2>
 800428c:	f502 6280 	add.w	r2, r2, #1024	; 0x400
 8004290:	4293      	cmp	r3, r2
 8004292:	d004      	beq.n	800429e <HAL_TIM_ConfigClockSource+0xa2>
 8004294:	f241 41a4 	movw	r1, #5284	; 0x14a4
 8004298:	488f      	ldr	r0, [pc, #572]	; (80044d8 <HAL_TIM_ConfigClockSource+0x2dc>)
 800429a:	f7fd fbbf 	bl	8001a1c <assert_failed>
 800429e:	682a      	ldr	r2, [r5, #0]
 80042a0:	6821      	ldr	r1, [r4, #0]
 80042a2:	6893      	ldr	r3, [r2, #8]
 80042a4:	f023 0370 	bic.w	r3, r3, #112	; 0x70
 80042a8:	430b      	orrs	r3, r1
 80042aa:	f043 0307 	orr.w	r3, r3, #7
 80042ae:	e0a0      	b.n	80043f2 <HAL_TIM_ConfigClockSource+0x1f6>
 80042b0:	2a30      	cmp	r2, #48	; 0x30
 80042b2:	d0d9      	beq.n	8004268 <HAL_TIM_ConfigClockSource+0x6c>
 80042b4:	2301      	movs	r3, #1
 80042b6:	2000      	movs	r0, #0
 80042b8:	f885 303d 	strb.w	r3, [r5, #61]	; 0x3d
 80042bc:	f885 003c 	strb.w	r0, [r5, #60]	; 0x3c
 80042c0:	bd70      	pop	{r4, r5, r6, pc}
 80042c2:	2a50      	cmp	r2, #80	; 0x50
 80042c4:	d1f6      	bne.n	80042b4 <HAL_TIM_ConfigClockSource+0xb8>
 80042c6:	4a85      	ldr	r2, [pc, #532]	; (80044dc <HAL_TIM_ConfigClockSource+0x2e0>)
 80042c8:	4293      	cmp	r3, r2
 80042ca:	d017      	beq.n	80042fc <HAL_TIM_ConfigClockSource+0x100>
 80042cc:	f502 6200 	add.w	r2, r2, #2048	; 0x800
 80042d0:	4293      	cmp	r3, r2
 80042d2:	d013      	beq.n	80042fc <HAL_TIM_ConfigClockSource+0x100>
 80042d4:	f1b3 4f80 	cmp.w	r3, #1073741824	; 0x40000000
 80042d8:	d010      	beq.n	80042fc <HAL_TIM_ConfigClockSource+0x100>
 80042da:	f5a2 3298 	sub.w	r2, r2, #77824	; 0x13000
 80042de:	4293      	cmp	r3, r2
 80042e0:	d00c      	beq.n	80042fc <HAL_TIM_ConfigClockSource+0x100>
 80042e2:	f502 6280 	add.w	r2, r2, #1024	; 0x400
 80042e6:	4293      	cmp	r3, r2
 80042e8:	d008      	beq.n	80042fc <HAL_TIM_ConfigClockSource+0x100>
 80042ea:	f502 6280 	add.w	r2, r2, #1024	; 0x400
 80042ee:	4293      	cmp	r3, r2
 80042f0:	d004      	beq.n	80042fc <HAL_TIM_ConfigClockSource+0x100>
 80042f2:	f241 4171 	movw	r1, #5233	; 0x1471
 80042f6:	4878      	ldr	r0, [pc, #480]	; (80044d8 <HAL_TIM_ConfigClockSource+0x2dc>)
 80042f8:	f7fd fb90 	bl	8001a1c <assert_failed>
 80042fc:	6863      	ldr	r3, [r4, #4]
 80042fe:	f5b3 4f00 	cmp.w	r3, #32768	; 0x8000
 8004302:	d009      	beq.n	8004318 <HAL_TIM_ConfigClockSource+0x11c>
 8004304:	f033 0202 	bics.w	r2, r3, #2
 8004308:	d006      	beq.n	8004318 <HAL_TIM_ConfigClockSource+0x11c>
 800430a:	2b0a      	cmp	r3, #10
 800430c:	d004      	beq.n	8004318 <HAL_TIM_ConfigClockSource+0x11c>
 800430e:	f241 4174 	movw	r1, #5236	; 0x1474
 8004312:	4871      	ldr	r0, [pc, #452]	; (80044d8 <HAL_TIM_ConfigClockSource+0x2dc>)
 8004314:	f7fd fb82 	bl	8001a1c <assert_failed>
 8004318:	68e3      	ldr	r3, [r4, #12]
 800431a:	2b0f      	cmp	r3, #15
 800431c:	d904      	bls.n	8004328 <HAL_TIM_ConfigClockSource+0x12c>
 800431e:	f241 4175 	movw	r1, #5237	; 0x1475
 8004322:	486d      	ldr	r0, [pc, #436]	; (80044d8 <HAL_TIM_ConfigClockSource+0x2dc>)
 8004324:	f7fd fb7a 	bl	8001a1c <assert_failed>
 8004328:	682b      	ldr	r3, [r5, #0]
 800432a:	6861      	ldr	r1, [r4, #4]
 800432c:	6a18      	ldr	r0, [r3, #32]
 800432e:	68e6      	ldr	r6, [r4, #12]
 8004330:	6a1c      	ldr	r4, [r3, #32]
 8004332:	f020 000a 	bic.w	r0, r0, #10
 8004336:	f024 0401 	bic.w	r4, r4, #1
 800433a:	621c      	str	r4, [r3, #32]
 800433c:	699a      	ldr	r2, [r3, #24]
 800433e:	4301      	orrs	r1, r0
 8004340:	f022 02f0 	bic.w	r2, r2, #240	; 0xf0
 8004344:	ea42 1206 	orr.w	r2, r2, r6, lsl #4
 8004348:	619a      	str	r2, [r3, #24]
 800434a:	6219      	str	r1, [r3, #32]
 800434c:	689a      	ldr	r2, [r3, #8]
 800434e:	f022 0270 	bic.w	r2, r2, #112	; 0x70
 8004352:	f042 0257 	orr.w	r2, r2, #87	; 0x57
 8004356:	609a      	str	r2, [r3, #8]
 8004358:	e7ac      	b.n	80042b4 <HAL_TIM_ConfigClockSource+0xb8>
 800435a:	f5b2 5f80 	cmp.w	r2, #4096	; 0x1000
 800435e:	d04a      	beq.n	80043f6 <HAL_TIM_ConfigClockSource+0x1fa>
 8004360:	f5b2 5f00 	cmp.w	r2, #8192	; 0x2000
 8004364:	d073      	beq.n	800444e <HAL_TIM_ConfigClockSource+0x252>
 8004366:	2a70      	cmp	r2, #112	; 0x70
 8004368:	d1a4      	bne.n	80042b4 <HAL_TIM_ConfigClockSource+0xb8>
 800436a:	4a5c      	ldr	r2, [pc, #368]	; (80044dc <HAL_TIM_ConfigClockSource+0x2e0>)
 800436c:	4293      	cmp	r3, r2
 800436e:	d017      	beq.n	80043a0 <HAL_TIM_ConfigClockSource+0x1a4>
 8004370:	f502 6200 	add.w	r2, r2, #2048	; 0x800
 8004374:	4293      	cmp	r3, r2
 8004376:	d013      	beq.n	80043a0 <HAL_TIM_ConfigClockSource+0x1a4>
 8004378:	f1b3 4f80 	cmp.w	r3, #1073741824	; 0x40000000
 800437c:	d010      	beq.n	80043a0 <HAL_TIM_ConfigClockSource+0x1a4>
 800437e:	f5a2 3298 	sub.w	r2, r2, #77824	; 0x13000
 8004382:	4293      	cmp	r3, r2
 8004384:	d00c      	beq.n	80043a0 <HAL_TIM_ConfigClockSource+0x1a4>
 8004386:	f502 6280 	add.w	r2, r2, #1024	; 0x400
 800438a:	4293      	cmp	r3, r2
 800438c:	d008      	beq.n	80043a0 <HAL_TIM_ConfigClockSource+0x1a4>
 800438e:	f502 6280 	add.w	r2, r2, #1024	; 0x400
 8004392:	4293      	cmp	r3, r2
 8004394:	d004      	beq.n	80043a0 <HAL_TIM_ConfigClockSource+0x1a4>
 8004396:	f241 4145 	movw	r1, #5189	; 0x1445
 800439a:	484f      	ldr	r0, [pc, #316]	; (80044d8 <HAL_TIM_ConfigClockSource+0x2dc>)
 800439c:	f7fd fb3e 	bl	8001a1c <assert_failed>
 80043a0:	68a3      	ldr	r3, [r4, #8]
 80043a2:	f433 5340 	bics.w	r3, r3, #12288	; 0x3000
 80043a6:	d004      	beq.n	80043b2 <HAL_TIM_ConfigClockSource+0x1b6>
 80043a8:	f241 4148 	movw	r1, #5192	; 0x1448
 80043ac:	484a      	ldr	r0, [pc, #296]	; (80044d8 <HAL_TIM_ConfigClockSource+0x2dc>)
 80043ae:	f7fd fb35 	bl	8001a1c <assert_failed>
 80043b2:	6863      	ldr	r3, [r4, #4]
 80043b4:	f5b3 4f00 	cmp.w	r3, #32768	; 0x8000
 80043b8:	d009      	beq.n	80043ce <HAL_TIM_ConfigClockSource+0x1d2>
 80043ba:	f033 0202 	bics.w	r2, r3, #2
 80043be:	d006      	beq.n	80043ce <HAL_TIM_ConfigClockSource+0x1d2>
 80043c0:	2b0a      	cmp	r3, #10
 80043c2:	d004      	beq.n	80043ce <HAL_TIM_ConfigClockSource+0x1d2>
 80043c4:	f241 4149 	movw	r1, #5193	; 0x1449
 80043c8:	4843      	ldr	r0, [pc, #268]	; (80044d8 <HAL_TIM_ConfigClockSource+0x2dc>)
 80043ca:	f7fd fb27 	bl	8001a1c <assert_failed>
 80043ce:	68e3      	ldr	r3, [r4, #12]
 80043d0:	2b0f      	cmp	r3, #15
 80043d2:	d904      	bls.n	80043de <HAL_TIM_ConfigClockSource+0x1e2>
 80043d4:	f241 414a 	movw	r1, #5194	; 0x144a
 80043d8:	483f      	ldr	r0, [pc, #252]	; (80044d8 <HAL_TIM_ConfigClockSource+0x2dc>)
 80043da:	f7fd fb1f 	bl	8001a1c <assert_failed>
 80043de:	e9d4 2101 	ldrd	r2, r1, [r4, #4]
 80043e2:	68e3      	ldr	r3, [r4, #12]
 80043e4:	6828      	ldr	r0, [r5, #0]
 80043e6:	f7ff feff 	bl	80041e8 <TIM_ETR_SetConfig>
 80043ea:	682a      	ldr	r2, [r5, #0]
 80043ec:	6893      	ldr	r3, [r2, #8]
 80043ee:	f043 0377 	orr.w	r3, r3, #119	; 0x77
 80043f2:	6093      	str	r3, [r2, #8]
 80043f4:	e75e      	b.n	80042b4 <HAL_TIM_ConfigClockSource+0xb8>
 80043f6:	4a39      	ldr	r2, [pc, #228]	; (80044dc <HAL_TIM_ConfigClockSource+0x2e0>)
 80043f8:	4293      	cmp	r3, r2
 80043fa:	f43f af5b 	beq.w	80042b4 <HAL_TIM_ConfigClockSource+0xb8>
 80043fe:	f502 6200 	add.w	r2, r2, #2048	; 0x800
 8004402:	4293      	cmp	r3, r2
 8004404:	f43f af56 	beq.w	80042b4 <HAL_TIM_ConfigClockSource+0xb8>
 8004408:	f1b3 4f80 	cmp.w	r3, #1073741824	; 0x40000000
 800440c:	f43f af52 	beq.w	80042b4 <HAL_TIM_ConfigClockSource+0xb8>
 8004410:	f5a2 3298 	sub.w	r2, r2, #77824	; 0x13000
 8004414:	4293      	cmp	r3, r2
 8004416:	f43f af4d 	beq.w	80042b4 <HAL_TIM_ConfigClockSource+0xb8>
 800441a:	f502 6280 	add.w	r2, r2, #1024	; 0x400
 800441e:	4293      	cmp	r3, r2
 8004420:	f43f af48 	beq.w	80042b4 <HAL_TIM_ConfigClockSource+0xb8>
 8004424:	f502 6280 	add.w	r2, r2, #1024	; 0x400
 8004428:	4293      	cmp	r3, r2
 800442a:	f43f af43 	beq.w	80042b4 <HAL_TIM_ConfigClockSource+0xb8>
 800442e:	f502 6280 	add.w	r2, r2, #1024	; 0x400
 8004432:	4293      	cmp	r3, r2
 8004434:	f43f af3e 	beq.w	80042b4 <HAL_TIM_ConfigClockSource+0xb8>
 8004438:	f502 6280 	add.w	r2, r2, #1024	; 0x400
 800443c:	4293      	cmp	r3, r2
 800443e:	f43f af39 	beq.w	80042b4 <HAL_TIM_ConfigClockSource+0xb8>
 8004442:	f241 413e 	movw	r1, #5182	; 0x143e
 8004446:	4824      	ldr	r0, [pc, #144]	; (80044d8 <HAL_TIM_ConfigClockSource+0x2dc>)
 8004448:	f7fd fae8 	bl	8001a1c <assert_failed>
 800444c:	e732      	b.n	80042b4 <HAL_TIM_ConfigClockSource+0xb8>
 800444e:	4a23      	ldr	r2, [pc, #140]	; (80044dc <HAL_TIM_ConfigClockSource+0x2e0>)
 8004450:	4293      	cmp	r3, r2
 8004452:	d017      	beq.n	8004484 <HAL_TIM_ConfigClockSource+0x288>
 8004454:	f502 6200 	add.w	r2, r2, #2048	; 0x800
 8004458:	4293      	cmp	r3, r2
 800445a:	d013      	beq.n	8004484 <HAL_TIM_ConfigClockSource+0x288>
 800445c:	f1b3 4f80 	cmp.w	r3, #1073741824	; 0x40000000
 8004460:	d010      	beq.n	8004484 <HAL_TIM_ConfigClockSource+0x288>
 8004462:	f5a2 3298 	sub.w	r2, r2, #77824	; 0x13000
 8004466:	4293      	cmp	r3, r2
 8004468:	d00c      	beq.n	8004484 <HAL_TIM_ConfigClockSource+0x288>
 800446a:	f502 6280 	add.w	r2, r2, #1024	; 0x400
 800446e:	4293      	cmp	r3, r2
 8004470:	d008      	beq.n	8004484 <HAL_TIM_ConfigClockSource+0x288>
 8004472:	f502 6280 	add.w	r2, r2, #1024	; 0x400
 8004476:	4293      	cmp	r3, r2
 8004478:	d004      	beq.n	8004484 <HAL_TIM_ConfigClockSource+0x288>
 800447a:	f241 415d 	movw	r1, #5213	; 0x145d
 800447e:	4816      	ldr	r0, [pc, #88]	; (80044d8 <HAL_TIM_ConfigClockSource+0x2dc>)
 8004480:	f7fd facc 	bl	8001a1c <assert_failed>
 8004484:	68a3      	ldr	r3, [r4, #8]
 8004486:	f433 5340 	bics.w	r3, r3, #12288	; 0x3000
 800448a:	d004      	beq.n	8004496 <HAL_TIM_ConfigClockSource+0x29a>
 800448c:	f44f 51a3 	mov.w	r1, #5216	; 0x1460
 8004490:	4811      	ldr	r0, [pc, #68]	; (80044d8 <HAL_TIM_ConfigClockSource+0x2dc>)
 8004492:	f7fd fac3 	bl	8001a1c <assert_failed>
 8004496:	6863      	ldr	r3, [r4, #4]
 8004498:	f5b3 4f00 	cmp.w	r3, #32768	; 0x8000
 800449c:	d009      	beq.n	80044b2 <HAL_TIM_ConfigClockSource+0x2b6>
 800449e:	f033 0202 	bics.w	r2, r3, #2
 80044a2:	d006      	beq.n	80044b2 <HAL_TIM_ConfigClockSource+0x2b6>
 80044a4:	2b0a      	cmp	r3, #10
 80044a6:	d004      	beq.n	80044b2 <HAL_TIM_ConfigClockSource+0x2b6>
 80044a8:	f241 4161 	movw	r1, #5217	; 0x1461
 80044ac:	480a      	ldr	r0, [pc, #40]	; (80044d8 <HAL_TIM_ConfigClockSource+0x2dc>)
 80044ae:	f7fd fab5 	bl	8001a1c <assert_failed>
 80044b2:	68e3      	ldr	r3, [r4, #12]
 80044b4:	2b0f      	cmp	r3, #15
 80044b6:	d904      	bls.n	80044c2 <HAL_TIM_ConfigClockSource+0x2c6>
 80044b8:	f241 4162 	movw	r1, #5218	; 0x1462
 80044bc:	4806      	ldr	r0, [pc, #24]	; (80044d8 <HAL_TIM_ConfigClockSource+0x2dc>)
 80044be:	f7fd faad 	bl	8001a1c <assert_failed>
 80044c2:	e9d4 2101 	ldrd	r2, r1, [r4, #4]
 80044c6:	68e3      	ldr	r3, [r4, #12]
 80044c8:	6828      	ldr	r0, [r5, #0]
 80044ca:	f7ff fe8d 	bl	80041e8 <TIM_ETR_SetConfig>
 80044ce:	682a      	ldr	r2, [r5, #0]
 80044d0:	6893      	ldr	r3, [r2, #8]
 80044d2:	f443 4380 	orr.w	r3, r3, #16384	; 0x4000
 80044d6:	e78c      	b.n	80043f2 <HAL_TIM_ConfigClockSource+0x1f6>
 80044d8:	08009d50 	.word	0x08009d50
 80044dc:	40012c00 	.word	0x40012c00
 80044e0:	4a49      	ldr	r2, [pc, #292]	; (8004608 <HAL_TIM_ConfigClockSource+0x40c>)
 80044e2:	4293      	cmp	r3, r2
 80044e4:	d017      	beq.n	8004516 <HAL_TIM_ConfigClockSource+0x31a>
 80044e6:	f502 6200 	add.w	r2, r2, #2048	; 0x800
 80044ea:	4293      	cmp	r3, r2
 80044ec:	d013      	beq.n	8004516 <HAL_TIM_ConfigClockSource+0x31a>
 80044ee:	f1b3 4f80 	cmp.w	r3, #1073741824	; 0x40000000
 80044f2:	d010      	beq.n	8004516 <HAL_TIM_ConfigClockSource+0x31a>
 80044f4:	f5a2 3298 	sub.w	r2, r2, #77824	; 0x13000
 80044f8:	4293      	cmp	r3, r2
 80044fa:	d00c      	beq.n	8004516 <HAL_TIM_ConfigClockSource+0x31a>
 80044fc:	f502 6280 	add.w	r2, r2, #1024	; 0x400
 8004500:	4293      	cmp	r3, r2
 8004502:	d008      	beq.n	8004516 <HAL_TIM_ConfigClockSource+0x31a>
 8004504:	f502 6280 	add.w	r2, r2, #1024	; 0x400
 8004508:	4293      	cmp	r3, r2
 800450a:	d004      	beq.n	8004516 <HAL_TIM_ConfigClockSource+0x31a>
 800450c:	f241 4181 	movw	r1, #5249	; 0x1481
 8004510:	483e      	ldr	r0, [pc, #248]	; (800460c <HAL_TIM_ConfigClockSource+0x410>)
 8004512:	f7fd fa83 	bl	8001a1c <assert_failed>
 8004516:	6863      	ldr	r3, [r4, #4]
 8004518:	f5b3 4f00 	cmp.w	r3, #32768	; 0x8000
 800451c:	d009      	beq.n	8004532 <HAL_TIM_ConfigClockSource+0x336>
 800451e:	f033 0202 	bics.w	r2, r3, #2
 8004522:	d006      	beq.n	8004532 <HAL_TIM_ConfigClockSource+0x336>
 8004524:	2b0a      	cmp	r3, #10
 8004526:	d004      	beq.n	8004532 <HAL_TIM_ConfigClockSource+0x336>
 8004528:	f241 4184 	movw	r1, #5252	; 0x1484
 800452c:	4837      	ldr	r0, [pc, #220]	; (800460c <HAL_TIM_ConfigClockSource+0x410>)
 800452e:	f7fd fa75 	bl	8001a1c <assert_failed>
 8004532:	68e3      	ldr	r3, [r4, #12]
 8004534:	2b0f      	cmp	r3, #15
 8004536:	d904      	bls.n	8004542 <HAL_TIM_ConfigClockSource+0x346>
 8004538:	f241 4185 	movw	r1, #5253	; 0x1485
 800453c:	4833      	ldr	r0, [pc, #204]	; (800460c <HAL_TIM_ConfigClockSource+0x410>)
 800453e:	f7fd fa6d 	bl	8001a1c <assert_failed>
 8004542:	682b      	ldr	r3, [r5, #0]
 8004544:	6866      	ldr	r6, [r4, #4]
 8004546:	6a18      	ldr	r0, [r3, #32]
 8004548:	68e4      	ldr	r4, [r4, #12]
 800454a:	f020 0010 	bic.w	r0, r0, #16
 800454e:	6218      	str	r0, [r3, #32]
 8004550:	6999      	ldr	r1, [r3, #24]
 8004552:	6a1a      	ldr	r2, [r3, #32]
 8004554:	f421 4170 	bic.w	r1, r1, #61440	; 0xf000
 8004558:	f022 02a0 	bic.w	r2, r2, #160	; 0xa0
 800455c:	ea42 1206 	orr.w	r2, r2, r6, lsl #4
 8004560:	ea41 3104 	orr.w	r1, r1, r4, lsl #12
 8004564:	6199      	str	r1, [r3, #24]
 8004566:	621a      	str	r2, [r3, #32]
 8004568:	689a      	ldr	r2, [r3, #8]
 800456a:	f022 0270 	bic.w	r2, r2, #112	; 0x70
 800456e:	f042 0267 	orr.w	r2, r2, #103	; 0x67
 8004572:	e6f0      	b.n	8004356 <HAL_TIM_ConfigClockSource+0x15a>
 8004574:	4a24      	ldr	r2, [pc, #144]	; (8004608 <HAL_TIM_ConfigClockSource+0x40c>)
 8004576:	4293      	cmp	r3, r2
 8004578:	d017      	beq.n	80045aa <HAL_TIM_ConfigClockSource+0x3ae>
 800457a:	f502 6200 	add.w	r2, r2, #2048	; 0x800
 800457e:	4293      	cmp	r3, r2
 8004580:	d013      	beq.n	80045aa <HAL_TIM_ConfigClockSource+0x3ae>
 8004582:	f1b3 4f80 	cmp.w	r3, #1073741824	; 0x40000000
 8004586:	d010      	beq.n	80045aa <HAL_TIM_ConfigClockSource+0x3ae>
 8004588:	f5a2 3298 	sub.w	r2, r2, #77824	; 0x13000
 800458c:	4293      	cmp	r3, r2
 800458e:	d00c      	beq.n	80045aa <HAL_TIM_ConfigClockSource+0x3ae>
 8004590:	f502 6280 	add.w	r2, r2, #1024	; 0x400
 8004594:	4293      	cmp	r3, r2
 8004596:	d008      	beq.n	80045aa <HAL_TIM_ConfigClockSource+0x3ae>
 8004598:	f502 6280 	add.w	r2, r2, #1024	; 0x400
 800459c:	4293      	cmp	r3, r2
 800459e:	d004      	beq.n	80045aa <HAL_TIM_ConfigClockSource+0x3ae>
 80045a0:	f241 4191 	movw	r1, #5265	; 0x1491
 80045a4:	4819      	ldr	r0, [pc, #100]	; (800460c <HAL_TIM_ConfigClockSource+0x410>)
 80045a6:	f7fd fa39 	bl	8001a1c <assert_failed>
 80045aa:	6863      	ldr	r3, [r4, #4]
 80045ac:	f5b3 4f00 	cmp.w	r3, #32768	; 0x8000
 80045b0:	d009      	beq.n	80045c6 <HAL_TIM_ConfigClockSource+0x3ca>
 80045b2:	f033 0202 	bics.w	r2, r3, #2
 80045b6:	d006      	beq.n	80045c6 <HAL_TIM_ConfigClockSource+0x3ca>
 80045b8:	2b0a      	cmp	r3, #10
 80045ba:	d004      	beq.n	80045c6 <HAL_TIM_ConfigClockSource+0x3ca>
 80045bc:	f241 4194 	movw	r1, #5268	; 0x1494
 80045c0:	4812      	ldr	r0, [pc, #72]	; (800460c <HAL_TIM_ConfigClockSource+0x410>)
 80045c2:	f7fd fa2b 	bl	8001a1c <assert_failed>
 80045c6:	68e3      	ldr	r3, [r4, #12]
 80045c8:	2b0f      	cmp	r3, #15
 80045ca:	d904      	bls.n	80045d6 <HAL_TIM_ConfigClockSource+0x3da>
 80045cc:	f241 4195 	movw	r1, #5269	; 0x1495
 80045d0:	480e      	ldr	r0, [pc, #56]	; (800460c <HAL_TIM_ConfigClockSource+0x410>)
 80045d2:	f7fd fa23 	bl	8001a1c <assert_failed>
 80045d6:	682b      	ldr	r3, [r5, #0]
 80045d8:	6861      	ldr	r1, [r4, #4]
 80045da:	6a18      	ldr	r0, [r3, #32]
 80045dc:	68e6      	ldr	r6, [r4, #12]
 80045de:	6a1c      	ldr	r4, [r3, #32]
 80045e0:	f020 000a 	bic.w	r0, r0, #10
 80045e4:	f024 0401 	bic.w	r4, r4, #1
 80045e8:	621c      	str	r4, [r3, #32]
 80045ea:	699a      	ldr	r2, [r3, #24]
 80045ec:	4301      	orrs	r1, r0
 80045ee:	f022 02f0 	bic.w	r2, r2, #240	; 0xf0
 80045f2:	ea42 1206 	orr.w	r2, r2, r6, lsl #4
 80045f6:	619a      	str	r2, [r3, #24]
 80045f8:	6219      	str	r1, [r3, #32]
 80045fa:	689a      	ldr	r2, [r3, #8]
 80045fc:	f022 0270 	bic.w	r2, r2, #112	; 0x70
 8004600:	f042 0247 	orr.w	r2, r2, #71	; 0x47
 8004604:	e6a7      	b.n	8004356 <HAL_TIM_ConfigClockSource+0x15a>
 8004606:	bf00      	nop
 8004608:	40012c00 	.word	0x40012c00
 800460c:	08009d50 	.word	0x08009d50

08004610 <TIM_CCxChannelCmd>:
 8004610:	4b1b      	ldr	r3, [pc, #108]	; (8004680 <TIM_CCxChannelCmd+0x70>)
 8004612:	b570      	push	{r4, r5, r6, lr}
 8004614:	4298      	cmp	r0, r3
 8004616:	4604      	mov	r4, r0
 8004618:	460d      	mov	r5, r1
 800461a:	4616      	mov	r6, r2
 800461c:	d017      	beq.n	800464e <TIM_CCxChannelCmd+0x3e>
 800461e:	f503 6300 	add.w	r3, r3, #2048	; 0x800
 8004622:	4298      	cmp	r0, r3
 8004624:	d013      	beq.n	800464e <TIM_CCxChannelCmd+0x3e>
 8004626:	f1b0 4f80 	cmp.w	r0, #1073741824	; 0x40000000
 800462a:	d010      	beq.n	800464e <TIM_CCxChannelCmd+0x3e>
 800462c:	f5a3 3398 	sub.w	r3, r3, #77824	; 0x13000
 8004630:	4298      	cmp	r0, r3
 8004632:	d00c      	beq.n	800464e <TIM_CCxChannelCmd+0x3e>
 8004634:	f503 6380 	add.w	r3, r3, #1024	; 0x400
 8004638:	4298      	cmp	r0, r3
 800463a:	d008      	beq.n	800464e <TIM_CCxChannelCmd+0x3e>
 800463c:	f503 6380 	add.w	r3, r3, #1024	; 0x400
 8004640:	4298      	cmp	r0, r3
 8004642:	d004      	beq.n	800464e <TIM_CCxChannelCmd+0x3e>
 8004644:	f641 5109 	movw	r1, #7433	; 0x1d09
 8004648:	480e      	ldr	r0, [pc, #56]	; (8004684 <TIM_CCxChannelCmd+0x74>)
 800464a:	f7fd f9e7 	bl	8001a1c <assert_failed>
 800464e:	f035 030c 	bics.w	r3, r5, #12
 8004652:	d006      	beq.n	8004662 <TIM_CCxChannelCmd+0x52>
 8004654:	2d3c      	cmp	r5, #60	; 0x3c
 8004656:	d004      	beq.n	8004662 <TIM_CCxChannelCmd+0x52>
 8004658:	f641 510a 	movw	r1, #7434	; 0x1d0a
 800465c:	4809      	ldr	r0, [pc, #36]	; (8004684 <TIM_CCxChannelCmd+0x74>)
 800465e:	f7fd f9dd 	bl	8001a1c <assert_failed>
 8004662:	2201      	movs	r2, #1
 8004664:	6a23      	ldr	r3, [r4, #32]
 8004666:	f005 051f 	and.w	r5, r5, #31
 800466a:	40aa      	lsls	r2, r5
 800466c:	ea23 0302 	bic.w	r3, r3, r2
 8004670:	6223      	str	r3, [r4, #32]
 8004672:	6a22      	ldr	r2, [r4, #32]
 8004674:	fa06 f505 	lsl.w	r5, r6, r5
 8004678:	4315      	orrs	r5, r2
 800467a:	6225      	str	r5, [r4, #32]
 800467c:	bd70      	pop	{r4, r5, r6, pc}
 800467e:	bf00      	nop
 8004680:	40012c00 	.word	0x40012c00
 8004684:	08009d50 	.word	0x08009d50

08004688 <HAL_TIM_PWM_Start>:
 8004688:	b538      	push	{r3, r4, r5, lr}
 800468a:	4a3e      	ldr	r2, [pc, #248]	; (8004784 <HAL_TIM_PWM_Start+0xfc>)
 800468c:	6803      	ldr	r3, [r0, #0]
 800468e:	4604      	mov	r4, r0
 8004690:	4293      	cmp	r3, r2
 8004692:	460d      	mov	r5, r1
 8004694:	d012      	beq.n	80046bc <HAL_TIM_PWM_Start+0x34>
 8004696:	f502 6200 	add.w	r2, r2, #2048	; 0x800
 800469a:	4293      	cmp	r3, r2
 800469c:	d00e      	beq.n	80046bc <HAL_TIM_PWM_Start+0x34>
 800469e:	f1b3 4f80 	cmp.w	r3, #1073741824	; 0x40000000
 80046a2:	d00b      	beq.n	80046bc <HAL_TIM_PWM_Start+0x34>
 80046a4:	f5a2 3298 	sub.w	r2, r2, #77824	; 0x13000
 80046a8:	4293      	cmp	r3, r2
 80046aa:	d007      	beq.n	80046bc <HAL_TIM_PWM_Start+0x34>
 80046ac:	f502 6280 	add.w	r2, r2, #1024	; 0x400
 80046b0:	4293      	cmp	r3, r2
 80046b2:	d003      	beq.n	80046bc <HAL_TIM_PWM_Start+0x34>
 80046b4:	f502 6280 	add.w	r2, r2, #1024	; 0x400
 80046b8:	4293      	cmp	r3, r2
 80046ba:	d11c      	bne.n	80046f6 <HAL_TIM_PWM_Start+0x6e>
 80046bc:	b92d      	cbnz	r5, 80046ca <HAL_TIM_PWM_Start+0x42>
 80046be:	f894 303e 	ldrb.w	r3, [r4, #62]	; 0x3e
 80046c2:	2b01      	cmp	r3, #1
 80046c4:	d02a      	beq.n	800471c <HAL_TIM_PWM_Start+0x94>
 80046c6:	2001      	movs	r0, #1
 80046c8:	bd38      	pop	{r3, r4, r5, pc}
 80046ca:	2d04      	cmp	r5, #4
 80046cc:	d107      	bne.n	80046de <HAL_TIM_PWM_Start+0x56>
 80046ce:	f894 303f 	ldrb.w	r3, [r4, #63]	; 0x3f
 80046d2:	2b01      	cmp	r3, #1
 80046d4:	d1f7      	bne.n	80046c6 <HAL_TIM_PWM_Start+0x3e>
 80046d6:	2302      	movs	r3, #2
 80046d8:	f884 303f 	strb.w	r3, [r4, #63]	; 0x3f
 80046dc:	e021      	b.n	8004722 <HAL_TIM_PWM_Start+0x9a>
 80046de:	2d08      	cmp	r5, #8
 80046e0:	d107      	bne.n	80046f2 <HAL_TIM_PWM_Start+0x6a>
 80046e2:	f894 3040 	ldrb.w	r3, [r4, #64]	; 0x40
 80046e6:	2b01      	cmp	r3, #1
 80046e8:	d1ed      	bne.n	80046c6 <HAL_TIM_PWM_Start+0x3e>
 80046ea:	2302      	movs	r3, #2
 80046ec:	f884 3040 	strb.w	r3, [r4, #64]	; 0x40
 80046f0:	e017      	b.n	8004722 <HAL_TIM_PWM_Start+0x9a>
 80046f2:	2d0c      	cmp	r5, #12
 80046f4:	d00a      	beq.n	800470c <HAL_TIM_PWM_Start+0x84>
 80046f6:	f240 5199 	movw	r1, #1433	; 0x599
 80046fa:	4823      	ldr	r0, [pc, #140]	; (8004788 <HAL_TIM_PWM_Start+0x100>)
 80046fc:	f7fd f98e 	bl	8001a1c <assert_failed>
 8004700:	2d00      	cmp	r5, #0
 8004702:	d0dc      	beq.n	80046be <HAL_TIM_PWM_Start+0x36>
 8004704:	2d04      	cmp	r5, #4
 8004706:	d0e2      	beq.n	80046ce <HAL_TIM_PWM_Start+0x46>
 8004708:	2d08      	cmp	r5, #8
 800470a:	d0ea      	beq.n	80046e2 <HAL_TIM_PWM_Start+0x5a>
 800470c:	f894 3041 	ldrb.w	r3, [r4, #65]	; 0x41
 8004710:	2b01      	cmp	r3, #1
 8004712:	d1d8      	bne.n	80046c6 <HAL_TIM_PWM_Start+0x3e>
 8004714:	2302      	movs	r3, #2
 8004716:	f884 3041 	strb.w	r3, [r4, #65]	; 0x41
 800471a:	e002      	b.n	8004722 <HAL_TIM_PWM_Start+0x9a>
 800471c:	2302      	movs	r3, #2
 800471e:	f884 303e 	strb.w	r3, [r4, #62]	; 0x3e
 8004722:	2201      	movs	r2, #1
 8004724:	4629      	mov	r1, r5
 8004726:	6820      	ldr	r0, [r4, #0]
 8004728:	f7ff ff72 	bl	8004610 <TIM_CCxChannelCmd>
 800472c:	6823      	ldr	r3, [r4, #0]
 800472e:	4a15      	ldr	r2, [pc, #84]	; (8004784 <HAL_TIM_PWM_Start+0xfc>)
 8004730:	4293      	cmp	r3, r2
 8004732:	d00c      	beq.n	800474e <HAL_TIM_PWM_Start+0xc6>
 8004734:	4915      	ldr	r1, [pc, #84]	; (800478c <HAL_TIM_PWM_Start+0x104>)
 8004736:	428b      	cmp	r3, r1
 8004738:	d009      	beq.n	800474e <HAL_TIM_PWM_Start+0xc6>
 800473a:	f1b3 4f80 	cmp.w	r3, #1073741824	; 0x40000000
 800473e:	d110      	bne.n	8004762 <HAL_TIM_PWM_Start+0xda>
 8004740:	689a      	ldr	r2, [r3, #8]
 8004742:	f002 0207 	and.w	r2, r2, #7
 8004746:	2a06      	cmp	r2, #6
 8004748:	d116      	bne.n	8004778 <HAL_TIM_PWM_Start+0xf0>
 800474a:	2000      	movs	r0, #0
 800474c:	e7bc      	b.n	80046c8 <HAL_TIM_PWM_Start+0x40>
 800474e:	6c59      	ldr	r1, [r3, #68]	; 0x44
 8004750:	4293      	cmp	r3, r2
 8004752:	f441 4100 	orr.w	r1, r1, #32768	; 0x8000
 8004756:	6459      	str	r1, [r3, #68]	; 0x44
 8004758:	d0f2      	beq.n	8004740 <HAL_TIM_PWM_Start+0xb8>
 800475a:	4a0c      	ldr	r2, [pc, #48]	; (800478c <HAL_TIM_PWM_Start+0x104>)
 800475c:	4293      	cmp	r3, r2
 800475e:	d0ef      	beq.n	8004740 <HAL_TIM_PWM_Start+0xb8>
 8004760:	e7eb      	b.n	800473a <HAL_TIM_PWM_Start+0xb2>
 8004762:	4a0b      	ldr	r2, [pc, #44]	; (8004790 <HAL_TIM_PWM_Start+0x108>)
 8004764:	4293      	cmp	r3, r2
 8004766:	d0eb      	beq.n	8004740 <HAL_TIM_PWM_Start+0xb8>
 8004768:	f502 6280 	add.w	r2, r2, #1024	; 0x400
 800476c:	4293      	cmp	r3, r2
 800476e:	d0e7      	beq.n	8004740 <HAL_TIM_PWM_Start+0xb8>
 8004770:	f502 6280 	add.w	r2, r2, #1024	; 0x400
 8004774:	4293      	cmp	r3, r2
 8004776:	d0e3      	beq.n	8004740 <HAL_TIM_PWM_Start+0xb8>
 8004778:	681a      	ldr	r2, [r3, #0]
 800477a:	f042 0201 	orr.w	r2, r2, #1
 800477e:	601a      	str	r2, [r3, #0]
 8004780:	e7e3      	b.n	800474a <HAL_TIM_PWM_Start+0xc2>
 8004782:	bf00      	nop
 8004784:	40012c00 	.word	0x40012c00
 8004788:	08009d50 	.word	0x08009d50
 800478c:	40013400 	.word	0x40013400
 8004790:	40000400 	.word	0x40000400

08004794 <HAL_TIM_Encoder_Start_IT>:
 8004794:	e92d 43f8 	stmdb	sp!, {r3, r4, r5, r6, r7, r8, r9, lr}
 8004798:	4a45      	ldr	r2, [pc, #276]	; (80048b0 <HAL_TIM_Encoder_Start_IT+0x11c>)
 800479a:	6803      	ldr	r3, [r0, #0]
 800479c:	f890 703e 	ldrb.w	r7, [r0, #62]	; 0x3e
 80047a0:	f890 503f 	ldrb.w	r5, [r0, #63]	; 0x3f
 80047a4:	f890 9042 	ldrb.w	r9, [r0, #66]	; 0x42
 80047a8:	f890 6043 	ldrb.w	r6, [r0, #67]	; 0x43
 80047ac:	4293      	cmp	r3, r2
 80047ae:	4604      	mov	r4, r0
 80047b0:	4688      	mov	r8, r1
 80047b2:	b2ff      	uxtb	r7, r7
 80047b4:	b2ed      	uxtb	r5, r5
 80047b6:	fa5f f989 	uxtb.w	r9, r9
 80047ba:	b2f6      	uxtb	r6, r6
 80047bc:	d017      	beq.n	80047ee <HAL_TIM_Encoder_Start_IT+0x5a>
 80047be:	f502 6200 	add.w	r2, r2, #2048	; 0x800
 80047c2:	4293      	cmp	r3, r2
 80047c4:	d013      	beq.n	80047ee <HAL_TIM_Encoder_Start_IT+0x5a>
 80047c6:	f1b3 4f80 	cmp.w	r3, #1073741824	; 0x40000000
 80047ca:	d010      	beq.n	80047ee <HAL_TIM_Encoder_Start_IT+0x5a>
 80047cc:	f5a2 3298 	sub.w	r2, r2, #77824	; 0x13000
 80047d0:	4293      	cmp	r3, r2
 80047d2:	d00c      	beq.n	80047ee <HAL_TIM_Encoder_Start_IT+0x5a>
 80047d4:	f502 6280 	add.w	r2, r2, #1024	; 0x400
 80047d8:	4293      	cmp	r3, r2
 80047da:	d008      	beq.n	80047ee <HAL_TIM_Encoder_Start_IT+0x5a>
 80047dc:	f502 6280 	add.w	r2, r2, #1024	; 0x400
 80047e0:	4293      	cmp	r3, r2
 80047e2:	d004      	beq.n	80047ee <HAL_TIM_Encoder_Start_IT+0x5a>
 80047e4:	f640 41e4 	movw	r1, #3300	; 0xce4
 80047e8:	4832      	ldr	r0, [pc, #200]	; (80048b4 <HAL_TIM_Encoder_Start_IT+0x120>)
 80047ea:	f7fd f917 	bl	8001a1c <assert_failed>
 80047ee:	f1b8 0f00 	cmp.w	r8, #0
 80047f2:	d11c      	bne.n	800482e <HAL_TIM_Encoder_Start_IT+0x9a>
 80047f4:	2f01      	cmp	r7, #1
 80047f6:	d156      	bne.n	80048a6 <HAL_TIM_Encoder_Start_IT+0x112>
 80047f8:	f1b9 0f01 	cmp.w	r9, #1
 80047fc:	d155      	bne.n	80048aa <HAL_TIM_Encoder_Start_IT+0x116>
 80047fe:	2302      	movs	r3, #2
 8004800:	464a      	mov	r2, r9
 8004802:	f884 303e 	strb.w	r3, [r4, #62]	; 0x3e
 8004806:	4641      	mov	r1, r8
 8004808:	f884 3042 	strb.w	r3, [r4, #66]	; 0x42
 800480c:	6820      	ldr	r0, [r4, #0]
 800480e:	f7ff feff 	bl	8004610 <TIM_CCxChannelCmd>
 8004812:	6822      	ldr	r2, [r4, #0]
 8004814:	68d3      	ldr	r3, [r2, #12]
 8004816:	f043 0302 	orr.w	r3, r3, #2
 800481a:	60d3      	str	r3, [r2, #12]
 800481c:	2500      	movs	r5, #0
 800481e:	6822      	ldr	r2, [r4, #0]
 8004820:	6813      	ldr	r3, [r2, #0]
 8004822:	f043 0301 	orr.w	r3, r3, #1
 8004826:	6013      	str	r3, [r2, #0]
 8004828:	4628      	mov	r0, r5
 800482a:	e8bd 83f8 	ldmia.w	sp!, {r3, r4, r5, r6, r7, r8, r9, pc}
 800482e:	f1b8 0f04 	cmp.w	r8, #4
 8004832:	d112      	bne.n	800485a <HAL_TIM_Encoder_Start_IT+0xc6>
 8004834:	2d01      	cmp	r5, #1
 8004836:	d136      	bne.n	80048a6 <HAL_TIM_Encoder_Start_IT+0x112>
 8004838:	2e01      	cmp	r6, #1
 800483a:	d1f5      	bne.n	8004828 <HAL_TIM_Encoder_Start_IT+0x94>
 800483c:	2302      	movs	r3, #2
 800483e:	4632      	mov	r2, r6
 8004840:	f884 303f 	strb.w	r3, [r4, #63]	; 0x3f
 8004844:	4641      	mov	r1, r8
 8004846:	f884 3043 	strb.w	r3, [r4, #67]	; 0x43
 800484a:	6820      	ldr	r0, [r4, #0]
 800484c:	f7ff fee0 	bl	8004610 <TIM_CCxChannelCmd>
 8004850:	6822      	ldr	r2, [r4, #0]
 8004852:	68d3      	ldr	r3, [r2, #12]
 8004854:	f043 0304 	orr.w	r3, r3, #4
 8004858:	e7df      	b.n	800481a <HAL_TIM_Encoder_Start_IT+0x86>
 800485a:	2f01      	cmp	r7, #1
 800485c:	d123      	bne.n	80048a6 <HAL_TIM_Encoder_Start_IT+0x112>
 800485e:	2d01      	cmp	r5, #1
 8004860:	d123      	bne.n	80048aa <HAL_TIM_Encoder_Start_IT+0x116>
 8004862:	f1b9 0f01 	cmp.w	r9, #1
 8004866:	d1df      	bne.n	8004828 <HAL_TIM_Encoder_Start_IT+0x94>
 8004868:	2e01      	cmp	r6, #1
 800486a:	d1dd      	bne.n	8004828 <HAL_TIM_Encoder_Start_IT+0x94>
 800486c:	2302      	movs	r3, #2
 800486e:	4632      	mov	r2, r6
 8004870:	f884 303e 	strb.w	r3, [r4, #62]	; 0x3e
 8004874:	2100      	movs	r1, #0
 8004876:	f884 303f 	strb.w	r3, [r4, #63]	; 0x3f
 800487a:	6820      	ldr	r0, [r4, #0]
 800487c:	f884 3042 	strb.w	r3, [r4, #66]	; 0x42
 8004880:	f884 3043 	strb.w	r3, [r4, #67]	; 0x43
 8004884:	f7ff fec4 	bl	8004610 <TIM_CCxChannelCmd>
 8004888:	4632      	mov	r2, r6
 800488a:	2104      	movs	r1, #4
 800488c:	6820      	ldr	r0, [r4, #0]
 800488e:	f7ff febf 	bl	8004610 <TIM_CCxChannelCmd>
 8004892:	6823      	ldr	r3, [r4, #0]
 8004894:	68da      	ldr	r2, [r3, #12]
 8004896:	f042 0202 	orr.w	r2, r2, #2
 800489a:	60da      	str	r2, [r3, #12]
 800489c:	68da      	ldr	r2, [r3, #12]
 800489e:	f042 0204 	orr.w	r2, r2, #4
 80048a2:	60da      	str	r2, [r3, #12]
 80048a4:	e7ba      	b.n	800481c <HAL_TIM_Encoder_Start_IT+0x88>
 80048a6:	2501      	movs	r5, #1
 80048a8:	e7be      	b.n	8004828 <HAL_TIM_Encoder_Start_IT+0x94>
 80048aa:	463d      	mov	r5, r7
 80048ac:	e7bc      	b.n	8004828 <HAL_TIM_Encoder_Start_IT+0x94>
 80048ae:	bf00      	nop
 80048b0:	40012c00 	.word	0x40012c00
 80048b4:	08009d50 	.word	0x08009d50

080048b8 <TIM_ResetCallback>:
 80048b8:	4b13      	ldr	r3, [pc, #76]	; (8004908 <TIM_ResetCallback+0x50>)
 80048ba:	f8c0 3080 	str.w	r3, [r0, #128]	; 0x80
 80048be:	4b13      	ldr	r3, [pc, #76]	; (800490c <TIM_ResetCallback+0x54>)
 80048c0:	f8c0 3084 	str.w	r3, [r0, #132]	; 0x84
 80048c4:	4b12      	ldr	r3, [pc, #72]	; (8004910 <TIM_ResetCallback+0x58>)
 80048c6:	f8c0 3088 	str.w	r3, [r0, #136]	; 0x88
 80048ca:	4b12      	ldr	r3, [pc, #72]	; (8004914 <TIM_ResetCallback+0x5c>)
 80048cc:	f8c0 308c 	str.w	r3, [r0, #140]	; 0x8c
 80048d0:	4b11      	ldr	r3, [pc, #68]	; (8004918 <TIM_ResetCallback+0x60>)
 80048d2:	f8c0 3090 	str.w	r3, [r0, #144]	; 0x90
 80048d6:	4b11      	ldr	r3, [pc, #68]	; (800491c <TIM_ResetCallback+0x64>)
 80048d8:	f8c0 3094 	str.w	r3, [r0, #148]	; 0x94
 80048dc:	4b10      	ldr	r3, [pc, #64]	; (8004920 <TIM_ResetCallback+0x68>)
 80048de:	f8c0 3098 	str.w	r3, [r0, #152]	; 0x98
 80048e2:	4b10      	ldr	r3, [pc, #64]	; (8004924 <TIM_ResetCallback+0x6c>)
 80048e4:	f8c0 309c 	str.w	r3, [r0, #156]	; 0x9c
 80048e8:	4b0f      	ldr	r3, [pc, #60]	; (8004928 <TIM_ResetCallback+0x70>)
 80048ea:	f8c0 30a0 	str.w	r3, [r0, #160]	; 0xa0
 80048ee:	4b0f      	ldr	r3, [pc, #60]	; (800492c <TIM_ResetCallback+0x74>)
 80048f0:	f8c0 30a4 	str.w	r3, [r0, #164]	; 0xa4
 80048f4:	4b0e      	ldr	r3, [pc, #56]	; (8004930 <TIM_ResetCallback+0x78>)
 80048f6:	f8c0 30a8 	str.w	r3, [r0, #168]	; 0xa8
 80048fa:	4b0e      	ldr	r3, [pc, #56]	; (8004934 <TIM_ResetCallback+0x7c>)
 80048fc:	f8c0 30ac 	str.w	r3, [r0, #172]	; 0xac
 8004900:	4b0d      	ldr	r3, [pc, #52]	; (8004938 <TIM_ResetCallback+0x80>)
 8004902:	f8c0 30b0 	str.w	r3, [r0, #176]	; 0xb0
 8004906:	4770      	bx	lr
 8004908:	080019e9 	.word	0x080019e9
 800490c:	08003bd3 	.word	0x08003bd3
 8004910:	08003bdd 	.word	0x08003bdd
 8004914:	08003bdf 	.word	0x08003bdf
 8004918:	080019b9 	.word	0x080019b9
 800491c:	08003bd7 	.word	0x08003bd7
 8004920:	08003bd5 	.word	0x08003bd5
 8004924:	08003bd9 	.word	0x08003bd9
 8004928:	08003bdb 	.word	0x08003bdb
 800492c:	08003be1 	.word	0x08003be1
 8004930:	08004f05 	.word	0x08004f05
 8004934:	08004f07 	.word	0x08004f07
 8004938:	08004f09 	.word	0x08004f09

0800493c <HAL_TIM_Base_Init>:
 800493c:	b510      	push	{r4, lr}
 800493e:	4604      	mov	r4, r0
 8004940:	2800      	cmp	r0, #0
 8004942:	d076      	beq.n	8004a32 <HAL_TIM_Base_Init+0xf6>
 8004944:	6803      	ldr	r3, [r0, #0]
 8004946:	4a3c      	ldr	r2, [pc, #240]	; (8004a38 <HAL_TIM_Base_Init+0xfc>)
 8004948:	4293      	cmp	r3, r2
 800494a:	d01f      	beq.n	800498c <HAL_TIM_Base_Init+0x50>
 800494c:	f502 6200 	add.w	r2, r2, #2048	; 0x800
 8004950:	4293      	cmp	r3, r2
 8004952:	d01b      	beq.n	800498c <HAL_TIM_Base_Init+0x50>
 8004954:	f1b3 4f80 	cmp.w	r3, #1073741824	; 0x40000000
 8004958:	d018      	beq.n	800498c <HAL_TIM_Base_Init+0x50>
 800495a:	f5a2 3298 	sub.w	r2, r2, #77824	; 0x13000
 800495e:	4293      	cmp	r3, r2
 8004960:	d014      	beq.n	800498c <HAL_TIM_Base_Init+0x50>
 8004962:	f502 6280 	add.w	r2, r2, #1024	; 0x400
 8004966:	4293      	cmp	r3, r2
 8004968:	d010      	beq.n	800498c <HAL_TIM_Base_Init+0x50>
 800496a:	f502 6280 	add.w	r2, r2, #1024	; 0x400
 800496e:	4293      	cmp	r3, r2
 8004970:	d00c      	beq.n	800498c <HAL_TIM_Base_Init+0x50>
 8004972:	f502 6280 	add.w	r2, r2, #1024	; 0x400
 8004976:	4293      	cmp	r3, r2
 8004978:	d008      	beq.n	800498c <HAL_TIM_Base_Init+0x50>
 800497a:	f502 6280 	add.w	r2, r2, #1024	; 0x400
 800497e:	4293      	cmp	r3, r2
 8004980:	d004      	beq.n	800498c <HAL_TIM_Base_Init+0x50>
 8004982:	f240 1113 	movw	r1, #275	; 0x113
 8004986:	482d      	ldr	r0, [pc, #180]	; (8004a3c <HAL_TIM_Base_Init+0x100>)
 8004988:	f7fd f848 	bl	8001a1c <assert_failed>
 800498c:	68a3      	ldr	r3, [r4, #8]
 800498e:	f033 0210 	bics.w	r2, r3, #16
 8004992:	d00a      	beq.n	80049aa <HAL_TIM_Base_Init+0x6e>
 8004994:	f023 0240 	bic.w	r2, r3, #64	; 0x40
 8004998:	2a20      	cmp	r2, #32
 800499a:	d006      	beq.n	80049aa <HAL_TIM_Base_Init+0x6e>
 800499c:	2b40      	cmp	r3, #64	; 0x40
 800499e:	d004      	beq.n	80049aa <HAL_TIM_Base_Init+0x6e>
 80049a0:	f44f 718a 	mov.w	r1, #276	; 0x114
 80049a4:	4825      	ldr	r0, [pc, #148]	; (8004a3c <HAL_TIM_Base_Init+0x100>)
 80049a6:	f7fd f839 	bl	8001a1c <assert_failed>
 80049aa:	6923      	ldr	r3, [r4, #16]
 80049ac:	f433 7280 	bics.w	r2, r3, #256	; 0x100
 80049b0:	d007      	beq.n	80049c2 <HAL_TIM_Base_Init+0x86>
 80049b2:	f5b3 7f00 	cmp.w	r3, #512	; 0x200
 80049b6:	d004      	beq.n	80049c2 <HAL_TIM_Base_Init+0x86>
 80049b8:	f240 1115 	movw	r1, #277	; 0x115
 80049bc:	481f      	ldr	r0, [pc, #124]	; (8004a3c <HAL_TIM_Base_Init+0x100>)
 80049be:	f7fd f82d 	bl	8001a1c <assert_failed>
 80049c2:	69a3      	ldr	r3, [r4, #24]
 80049c4:	f033 0380 	bics.w	r3, r3, #128	; 0x80
 80049c8:	d004      	beq.n	80049d4 <HAL_TIM_Base_Init+0x98>
 80049ca:	f44f 718b 	mov.w	r1, #278	; 0x116
 80049ce:	481b      	ldr	r0, [pc, #108]	; (8004a3c <HAL_TIM_Base_Init+0x100>)
 80049d0:	f7fd f824 	bl	8001a1c <assert_failed>
 80049d4:	f894 303d 	ldrb.w	r3, [r4, #61]	; 0x3d
 80049d8:	f003 02ff 	and.w	r2, r3, #255	; 0xff
 80049dc:	b95b      	cbnz	r3, 80049f6 <HAL_TIM_Base_Init+0xba>
 80049de:	4620      	mov	r0, r4
 80049e0:	f884 203c 	strb.w	r2, [r4, #60]	; 0x3c
 80049e4:	f7ff ff68 	bl	80048b8 <TIM_ResetCallback>
 80049e8:	6ca3      	ldr	r3, [r4, #72]	; 0x48
 80049ea:	b90b      	cbnz	r3, 80049f0 <HAL_TIM_Base_Init+0xb4>
 80049ec:	4b14      	ldr	r3, [pc, #80]	; (8004a40 <HAL_TIM_Base_Init+0x104>)
 80049ee:	64a3      	str	r3, [r4, #72]	; 0x48
 80049f0:	4620      	mov	r0, r4
 80049f2:	6ca3      	ldr	r3, [r4, #72]	; 0x48
 80049f4:	4798      	blx	r3
 80049f6:	2302      	movs	r3, #2
 80049f8:	6820      	ldr	r0, [r4, #0]
 80049fa:	f884 303d 	strb.w	r3, [r4, #61]	; 0x3d
 80049fe:	1d21      	adds	r1, r4, #4
 8004a00:	f7ff fa4e 	bl	8003ea0 <TIM_Base_SetConfig>
 8004a04:	2301      	movs	r3, #1
 8004a06:	2000      	movs	r0, #0
 8004a08:	f884 3046 	strb.w	r3, [r4, #70]	; 0x46
 8004a0c:	f884 303e 	strb.w	r3, [r4, #62]	; 0x3e
 8004a10:	f884 303f 	strb.w	r3, [r4, #63]	; 0x3f
 8004a14:	f884 3040 	strb.w	r3, [r4, #64]	; 0x40
 8004a18:	f884 3041 	strb.w	r3, [r4, #65]	; 0x41
 8004a1c:	f884 3042 	strb.w	r3, [r4, #66]	; 0x42
 8004a20:	f884 3043 	strb.w	r3, [r4, #67]	; 0x43
 8004a24:	f884 3044 	strb.w	r3, [r4, #68]	; 0x44
 8004a28:	f884 3045 	strb.w	r3, [r4, #69]	; 0x45
 8004a2c:	f884 303d 	strb.w	r3, [r4, #61]	; 0x3d
 8004a30:	bd10      	pop	{r4, pc}
 8004a32:	2001      	movs	r0, #1
 8004a34:	e7fc      	b.n	8004a30 <HAL_TIM_Base_Init+0xf4>
 8004a36:	bf00      	nop
 8004a38:	40012c00 	.word	0x40012c00
 8004a3c:	08009d50 	.word	0x08009d50
 8004a40:	08001afd 	.word	0x08001afd

08004a44 <HAL_TIM_PWM_Init>:
 8004a44:	b510      	push	{r4, lr}
 8004a46:	4604      	mov	r4, r0
 8004a48:	2800      	cmp	r0, #0
 8004a4a:	d076      	beq.n	8004b3a <HAL_TIM_PWM_Init+0xf6>
 8004a4c:	6803      	ldr	r3, [r0, #0]
 8004a4e:	4a3c      	ldr	r2, [pc, #240]	; (8004b40 <HAL_TIM_PWM_Init+0xfc>)
 8004a50:	4293      	cmp	r3, r2
 8004a52:	d01f      	beq.n	8004a94 <HAL_TIM_PWM_Init+0x50>
 8004a54:	f502 6200 	add.w	r2, r2, #2048	; 0x800
 8004a58:	4293      	cmp	r3, r2
 8004a5a:	d01b      	beq.n	8004a94 <HAL_TIM_PWM_Init+0x50>
 8004a5c:	f1b3 4f80 	cmp.w	r3, #1073741824	; 0x40000000
 8004a60:	d018      	beq.n	8004a94 <HAL_TIM_PWM_Init+0x50>
 8004a62:	f5a2 3298 	sub.w	r2, r2, #77824	; 0x13000
 8004a66:	4293      	cmp	r3, r2
 8004a68:	d014      	beq.n	8004a94 <HAL_TIM_PWM_Init+0x50>
 8004a6a:	f502 6280 	add.w	r2, r2, #1024	; 0x400
 8004a6e:	4293      	cmp	r3, r2
 8004a70:	d010      	beq.n	8004a94 <HAL_TIM_PWM_Init+0x50>
 8004a72:	f502 6280 	add.w	r2, r2, #1024	; 0x400
 8004a76:	4293      	cmp	r3, r2
 8004a78:	d00c      	beq.n	8004a94 <HAL_TIM_PWM_Init+0x50>
 8004a7a:	f502 6280 	add.w	r2, r2, #1024	; 0x400
 8004a7e:	4293      	cmp	r3, r2
 8004a80:	d008      	beq.n	8004a94 <HAL_TIM_PWM_Init+0x50>
 8004a82:	f502 6280 	add.w	r2, r2, #1024	; 0x400
 8004a86:	4293      	cmp	r3, r2
 8004a88:	d004      	beq.n	8004a94 <HAL_TIM_PWM_Init+0x50>
 8004a8a:	f240 5113 	movw	r1, #1299	; 0x513
 8004a8e:	482d      	ldr	r0, [pc, #180]	; (8004b44 <HAL_TIM_PWM_Init+0x100>)
 8004a90:	f7fc ffc4 	bl	8001a1c <assert_failed>
 8004a94:	68a3      	ldr	r3, [r4, #8]
 8004a96:	f033 0210 	bics.w	r2, r3, #16
 8004a9a:	d00a      	beq.n	8004ab2 <HAL_TIM_PWM_Init+0x6e>
 8004a9c:	f023 0240 	bic.w	r2, r3, #64	; 0x40
 8004aa0:	2a20      	cmp	r2, #32
 8004aa2:	d006      	beq.n	8004ab2 <HAL_TIM_PWM_Init+0x6e>
 8004aa4:	2b40      	cmp	r3, #64	; 0x40
 8004aa6:	d004      	beq.n	8004ab2 <HAL_TIM_PWM_Init+0x6e>
 8004aa8:	f240 5114 	movw	r1, #1300	; 0x514
 8004aac:	4825      	ldr	r0, [pc, #148]	; (8004b44 <HAL_TIM_PWM_Init+0x100>)
 8004aae:	f7fc ffb5 	bl	8001a1c <assert_failed>
 8004ab2:	6923      	ldr	r3, [r4, #16]
 8004ab4:	f433 7280 	bics.w	r2, r3, #256	; 0x100
 8004ab8:	d007      	beq.n	8004aca <HAL_TIM_PWM_Init+0x86>
 8004aba:	f5b3 7f00 	cmp.w	r3, #512	; 0x200
 8004abe:	d004      	beq.n	8004aca <HAL_TIM_PWM_Init+0x86>
 8004ac0:	f240 5115 	movw	r1, #1301	; 0x515
 8004ac4:	481f      	ldr	r0, [pc, #124]	; (8004b44 <HAL_TIM_PWM_Init+0x100>)
 8004ac6:	f7fc ffa9 	bl	8001a1c <assert_failed>
 8004aca:	69a3      	ldr	r3, [r4, #24]
 8004acc:	f033 0380 	bics.w	r3, r3, #128	; 0x80
 8004ad0:	d004      	beq.n	8004adc <HAL_TIM_PWM_Init+0x98>
 8004ad2:	f240 5116 	movw	r1, #1302	; 0x516
 8004ad6:	481b      	ldr	r0, [pc, #108]	; (8004b44 <HAL_TIM_PWM_Init+0x100>)
 8004ad8:	f7fc ffa0 	bl	8001a1c <assert_failed>
 8004adc:	f894 303d 	ldrb.w	r3, [r4, #61]	; 0x3d
 8004ae0:	f003 02ff 	and.w	r2, r3, #255	; 0xff
 8004ae4:	b95b      	cbnz	r3, 8004afe <HAL_TIM_PWM_Init+0xba>
 8004ae6:	4620      	mov	r0, r4
 8004ae8:	f884 203c 	strb.w	r2, [r4, #60]	; 0x3c
 8004aec:	f7ff fee4 	bl	80048b8 <TIM_ResetCallback>
 8004af0:	6e23      	ldr	r3, [r4, #96]	; 0x60
 8004af2:	b90b      	cbnz	r3, 8004af8 <HAL_TIM_PWM_Init+0xb4>
 8004af4:	4b14      	ldr	r3, [pc, #80]	; (8004b48 <HAL_TIM_PWM_Init+0x104>)
 8004af6:	6623      	str	r3, [r4, #96]	; 0x60
 8004af8:	4620      	mov	r0, r4
 8004afa:	6e23      	ldr	r3, [r4, #96]	; 0x60
 8004afc:	4798      	blx	r3
 8004afe:	2302      	movs	r3, #2
 8004b00:	6820      	ldr	r0, [r4, #0]
 8004b02:	f884 303d 	strb.w	r3, [r4, #61]	; 0x3d
 8004b06:	1d21      	adds	r1, r4, #4
 8004b08:	f7ff f9ca 	bl	8003ea0 <TIM_Base_SetConfig>
 8004b0c:	2301      	movs	r3, #1
 8004b0e:	2000      	movs	r0, #0
 8004b10:	f884 3046 	strb.w	r3, [r4, #70]	; 0x46
 8004b14:	f884 303e 	strb.w	r3, [r4, #62]	; 0x3e
 8004b18:	f884 303f 	strb.w	r3, [r4, #63]	; 0x3f
 8004b1c:	f884 3040 	strb.w	r3, [r4, #64]	; 0x40
 8004b20:	f884 3041 	strb.w	r3, [r4, #65]	; 0x41
 8004b24:	f884 3042 	strb.w	r3, [r4, #66]	; 0x42
 8004b28:	f884 3043 	strb.w	r3, [r4, #67]	; 0x43
 8004b2c:	f884 3044 	strb.w	r3, [r4, #68]	; 0x44
 8004b30:	f884 3045 	strb.w	r3, [r4, #69]	; 0x45
 8004b34:	f884 303d 	strb.w	r3, [r4, #61]	; 0x3d
 8004b38:	bd10      	pop	{r4, pc}
 8004b3a:	2001      	movs	r0, #1
 8004b3c:	e7fc      	b.n	8004b38 <HAL_TIM_PWM_Init+0xf4>
 8004b3e:	bf00      	nop
 8004b40:	40012c00 	.word	0x40012c00
 8004b44:	08009d50 	.word	0x08009d50
 8004b48:	08003bd1 	.word	0x08003bd1

08004b4c <HAL_TIM_Encoder_Init>:
 8004b4c:	b5f8      	push	{r3, r4, r5, r6, r7, lr}
 8004b4e:	460d      	mov	r5, r1
 8004b50:	4604      	mov	r4, r0
 8004b52:	2800      	cmp	r0, #0
 8004b54:	f000 80e5 	beq.w	8004d22 <HAL_TIM_Encoder_Init+0x1d6>
 8004b58:	6803      	ldr	r3, [r0, #0]
 8004b5a:	4a73      	ldr	r2, [pc, #460]	; (8004d28 <HAL_TIM_Encoder_Init+0x1dc>)
 8004b5c:	4293      	cmp	r3, r2
 8004b5e:	d017      	beq.n	8004b90 <HAL_TIM_Encoder_Init+0x44>
 8004b60:	f502 6200 	add.w	r2, r2, #2048	; 0x800
 8004b64:	4293      	cmp	r3, r2
 8004b66:	d013      	beq.n	8004b90 <HAL_TIM_Encoder_Init+0x44>
 8004b68:	f1b3 4f80 	cmp.w	r3, #1073741824	; 0x40000000
 8004b6c:	d010      	beq.n	8004b90 <HAL_TIM_Encoder_Init+0x44>
 8004b6e:	f5a2 3298 	sub.w	r2, r2, #77824	; 0x13000
 8004b72:	4293      	cmp	r3, r2
 8004b74:	d00c      	beq.n	8004b90 <HAL_TIM_Encoder_Init+0x44>
 8004b76:	f502 6280 	add.w	r2, r2, #1024	; 0x400
 8004b7a:	4293      	cmp	r3, r2
 8004b7c:	d008      	beq.n	8004b90 <HAL_TIM_Encoder_Init+0x44>
 8004b7e:	f502 6280 	add.w	r2, r2, #1024	; 0x400
 8004b82:	4293      	cmp	r3, r2
 8004b84:	d004      	beq.n	8004b90 <HAL_TIM_Encoder_Init+0x44>
 8004b86:	f640 318e 	movw	r1, #2958	; 0xb8e
 8004b8a:	4868      	ldr	r0, [pc, #416]	; (8004d2c <HAL_TIM_Encoder_Init+0x1e0>)
 8004b8c:	f7fc ff46 	bl	8001a1c <assert_failed>
 8004b90:	68a3      	ldr	r3, [r4, #8]
 8004b92:	f033 0210 	bics.w	r2, r3, #16
 8004b96:	d00a      	beq.n	8004bae <HAL_TIM_Encoder_Init+0x62>
 8004b98:	f023 0240 	bic.w	r2, r3, #64	; 0x40
 8004b9c:	2a20      	cmp	r2, #32
 8004b9e:	d006      	beq.n	8004bae <HAL_TIM_Encoder_Init+0x62>
 8004ba0:	2b40      	cmp	r3, #64	; 0x40
 8004ba2:	d004      	beq.n	8004bae <HAL_TIM_Encoder_Init+0x62>
 8004ba4:	f640 318f 	movw	r1, #2959	; 0xb8f
 8004ba8:	4860      	ldr	r0, [pc, #384]	; (8004d2c <HAL_TIM_Encoder_Init+0x1e0>)
 8004baa:	f7fc ff37 	bl	8001a1c <assert_failed>
 8004bae:	6923      	ldr	r3, [r4, #16]
 8004bb0:	f433 7280 	bics.w	r2, r3, #256	; 0x100
 8004bb4:	d007      	beq.n	8004bc6 <HAL_TIM_Encoder_Init+0x7a>
 8004bb6:	f5b3 7f00 	cmp.w	r3, #512	; 0x200
 8004bba:	d004      	beq.n	8004bc6 <HAL_TIM_Encoder_Init+0x7a>
 8004bbc:	f44f 6139 	mov.w	r1, #2960	; 0xb90
 8004bc0:	485a      	ldr	r0, [pc, #360]	; (8004d2c <HAL_TIM_Encoder_Init+0x1e0>)
 8004bc2:	f7fc ff2b 	bl	8001a1c <assert_failed>
 8004bc6:	69a3      	ldr	r3, [r4, #24]
 8004bc8:	f033 0380 	bics.w	r3, r3, #128	; 0x80
 8004bcc:	d004      	beq.n	8004bd8 <HAL_TIM_Encoder_Init+0x8c>
 8004bce:	f640 3191 	movw	r1, #2961	; 0xb91
 8004bd2:	4856      	ldr	r0, [pc, #344]	; (8004d2c <HAL_TIM_Encoder_Init+0x1e0>)
 8004bd4:	f7fc ff22 	bl	8001a1c <assert_failed>
 8004bd8:	682b      	ldr	r3, [r5, #0]
 8004bda:	3b01      	subs	r3, #1
 8004bdc:	2b02      	cmp	r3, #2
 8004bde:	d904      	bls.n	8004bea <HAL_TIM_Encoder_Init+0x9e>
 8004be0:	f640 3192 	movw	r1, #2962	; 0xb92
 8004be4:	4851      	ldr	r0, [pc, #324]	; (8004d2c <HAL_TIM_Encoder_Init+0x1e0>)
 8004be6:	f7fc ff19 	bl	8001a1c <assert_failed>
 8004bea:	68ab      	ldr	r3, [r5, #8]
 8004bec:	3b01      	subs	r3, #1
 8004bee:	2b02      	cmp	r3, #2
 8004bf0:	d904      	bls.n	8004bfc <HAL_TIM_Encoder_Init+0xb0>
 8004bf2:	f640 3193 	movw	r1, #2963	; 0xb93
 8004bf6:	484d      	ldr	r0, [pc, #308]	; (8004d2c <HAL_TIM_Encoder_Init+0x1e0>)
 8004bf8:	f7fc ff10 	bl	8001a1c <assert_failed>
 8004bfc:	69ab      	ldr	r3, [r5, #24]
 8004bfe:	3b01      	subs	r3, #1
 8004c00:	2b02      	cmp	r3, #2
 8004c02:	d904      	bls.n	8004c0e <HAL_TIM_Encoder_Init+0xc2>
 8004c04:	f640 3194 	movw	r1, #2964	; 0xb94
 8004c08:	4848      	ldr	r0, [pc, #288]	; (8004d2c <HAL_TIM_Encoder_Init+0x1e0>)
 8004c0a:	f7fc ff07 	bl	8001a1c <assert_failed>
 8004c0e:	686b      	ldr	r3, [r5, #4]
 8004c10:	f033 0302 	bics.w	r3, r3, #2
 8004c14:	d004      	beq.n	8004c20 <HAL_TIM_Encoder_Init+0xd4>
 8004c16:	f640 3195 	movw	r1, #2965	; 0xb95
 8004c1a:	4844      	ldr	r0, [pc, #272]	; (8004d2c <HAL_TIM_Encoder_Init+0x1e0>)
 8004c1c:	f7fc fefe 	bl	8001a1c <assert_failed>
 8004c20:	696b      	ldr	r3, [r5, #20]
 8004c22:	f033 0302 	bics.w	r3, r3, #2
 8004c26:	d004      	beq.n	8004c32 <HAL_TIM_Encoder_Init+0xe6>
 8004c28:	f640 3196 	movw	r1, #2966	; 0xb96
 8004c2c:	483f      	ldr	r0, [pc, #252]	; (8004d2c <HAL_TIM_Encoder_Init+0x1e0>)
 8004c2e:	f7fc fef5 	bl	8001a1c <assert_failed>
 8004c32:	68eb      	ldr	r3, [r5, #12]
 8004c34:	f033 030c 	bics.w	r3, r3, #12
 8004c38:	d004      	beq.n	8004c44 <HAL_TIM_Encoder_Init+0xf8>
 8004c3a:	f640 3197 	movw	r1, #2967	; 0xb97
 8004c3e:	483b      	ldr	r0, [pc, #236]	; (8004d2c <HAL_TIM_Encoder_Init+0x1e0>)
 8004c40:	f7fc feec 	bl	8001a1c <assert_failed>
 8004c44:	69eb      	ldr	r3, [r5, #28]
 8004c46:	f033 030c 	bics.w	r3, r3, #12
 8004c4a:	d004      	beq.n	8004c56 <HAL_TIM_Encoder_Init+0x10a>
 8004c4c:	f640 3198 	movw	r1, #2968	; 0xb98
 8004c50:	4836      	ldr	r0, [pc, #216]	; (8004d2c <HAL_TIM_Encoder_Init+0x1e0>)
 8004c52:	f7fc fee3 	bl	8001a1c <assert_failed>
 8004c56:	692b      	ldr	r3, [r5, #16]
 8004c58:	2b0f      	cmp	r3, #15
 8004c5a:	d904      	bls.n	8004c66 <HAL_TIM_Encoder_Init+0x11a>
 8004c5c:	f640 3199 	movw	r1, #2969	; 0xb99
 8004c60:	4832      	ldr	r0, [pc, #200]	; (8004d2c <HAL_TIM_Encoder_Init+0x1e0>)
 8004c62:	f7fc fedb 	bl	8001a1c <assert_failed>
 8004c66:	6a2b      	ldr	r3, [r5, #32]
 8004c68:	2b0f      	cmp	r3, #15
 8004c6a:	d904      	bls.n	8004c76 <HAL_TIM_Encoder_Init+0x12a>
 8004c6c:	f640 319a 	movw	r1, #2970	; 0xb9a
 8004c70:	482e      	ldr	r0, [pc, #184]	; (8004d2c <HAL_TIM_Encoder_Init+0x1e0>)
 8004c72:	f7fc fed3 	bl	8001a1c <assert_failed>
 8004c76:	f894 303d 	ldrb.w	r3, [r4, #61]	; 0x3d
 8004c7a:	f003 02ff 	and.w	r2, r3, #255	; 0xff
 8004c7e:	b95b      	cbnz	r3, 8004c98 <HAL_TIM_Encoder_Init+0x14c>
 8004c80:	4620      	mov	r0, r4
 8004c82:	f884 203c 	strb.w	r2, [r4, #60]	; 0x3c
 8004c86:	f7ff fe17 	bl	80048b8 <TIM_ResetCallback>
 8004c8a:	6f23      	ldr	r3, [r4, #112]	; 0x70
 8004c8c:	b90b      	cbnz	r3, 8004c92 <HAL_TIM_Encoder_Init+0x146>
 8004c8e:	4b28      	ldr	r3, [pc, #160]	; (8004d30 <HAL_TIM_Encoder_Init+0x1e4>)
 8004c90:	6723      	str	r3, [r4, #112]	; 0x70
 8004c92:	4620      	mov	r0, r4
 8004c94:	6f23      	ldr	r3, [r4, #112]	; 0x70
 8004c96:	4798      	blx	r3
 8004c98:	2302      	movs	r3, #2
 8004c9a:	4621      	mov	r1, r4
 8004c9c:	f884 303d 	strb.w	r3, [r4, #61]	; 0x3d
 8004ca0:	f851 0b04 	ldr.w	r0, [r1], #4
 8004ca4:	6883      	ldr	r3, [r0, #8]
 8004ca6:	f423 4380 	bic.w	r3, r3, #16384	; 0x4000
 8004caa:	f023 0307 	bic.w	r3, r3, #7
 8004cae:	6083      	str	r3, [r0, #8]
 8004cb0:	f7ff f8f6 	bl	8003ea0 <TIM_Base_SetConfig>
 8004cb4:	6820      	ldr	r0, [r4, #0]
 8004cb6:	682b      	ldr	r3, [r5, #0]
 8004cb8:	6886      	ldr	r6, [r0, #8]
 8004cba:	6982      	ldr	r2, [r0, #24]
 8004cbc:	68a9      	ldr	r1, [r5, #8]
 8004cbe:	431e      	orrs	r6, r3
 8004cc0:	69ab      	ldr	r3, [r5, #24]
 8004cc2:	f422 7240 	bic.w	r2, r2, #768	; 0x300
 8004cc6:	f022 0203 	bic.w	r2, r2, #3
 8004cca:	ea41 2303 	orr.w	r3, r1, r3, lsl #8
 8004cce:	4313      	orrs	r3, r2
 8004cd0:	f423 427c 	bic.w	r2, r3, #64512	; 0xfc00
 8004cd4:	692b      	ldr	r3, [r5, #16]
 8004cd6:	69e9      	ldr	r1, [r5, #28]
 8004cd8:	011b      	lsls	r3, r3, #4
 8004cda:	ea43 2301 	orr.w	r3, r3, r1, lsl #8
 8004cde:	68e9      	ldr	r1, [r5, #12]
 8004ce0:	6a07      	ldr	r7, [r0, #32]
 8004ce2:	430b      	orrs	r3, r1
 8004ce4:	6a29      	ldr	r1, [r5, #32]
 8004ce6:	f022 02fc 	bic.w	r2, r2, #252	; 0xfc
 8004cea:	ea43 3301 	orr.w	r3, r3, r1, lsl #12
 8004cee:	4313      	orrs	r3, r2
 8004cf0:	6969      	ldr	r1, [r5, #20]
 8004cf2:	f027 0222 	bic.w	r2, r7, #34	; 0x22
 8004cf6:	686f      	ldr	r7, [r5, #4]
 8004cf8:	6086      	str	r6, [r0, #8]
 8004cfa:	ea47 1701 	orr.w	r7, r7, r1, lsl #4
 8004cfe:	6183      	str	r3, [r0, #24]
 8004d00:	4317      	orrs	r7, r2
 8004d02:	2301      	movs	r3, #1
 8004d04:	6207      	str	r7, [r0, #32]
 8004d06:	2000      	movs	r0, #0
 8004d08:	f884 3046 	strb.w	r3, [r4, #70]	; 0x46
 8004d0c:	f884 303e 	strb.w	r3, [r4, #62]	; 0x3e
 8004d10:	f884 303f 	strb.w	r3, [r4, #63]	; 0x3f
 8004d14:	f884 3042 	strb.w	r3, [r4, #66]	; 0x42
 8004d18:	f884 3043 	strb.w	r3, [r4, #67]	; 0x43
 8004d1c:	f884 303d 	strb.w	r3, [r4, #61]	; 0x3d
 8004d20:	bdf8      	pop	{r3, r4, r5, r6, r7, pc}
 8004d22:	2001      	movs	r0, #1
 8004d24:	e7fc      	b.n	8004d20 <HAL_TIM_Encoder_Init+0x1d4>
 8004d26:	bf00      	nop
 8004d28:	40012c00 	.word	0x40012c00
 8004d2c:	08009d50 	.word	0x08009d50
 8004d30:	08001b9d 	.word	0x08001b9d

08004d34 <HAL_TIMEx_MasterConfigSynchronization>:
 8004d34:	b538      	push	{r3, r4, r5, lr}
 8004d36:	4a35      	ldr	r2, [pc, #212]	; (8004e0c <HAL_TIMEx_MasterConfigSynchronization+0xd8>)
 8004d38:	6803      	ldr	r3, [r0, #0]
 8004d3a:	4604      	mov	r4, r0
 8004d3c:	4293      	cmp	r3, r2
 8004d3e:	460d      	mov	r5, r1
 8004d40:	d01f      	beq.n	8004d82 <HAL_TIMEx_MasterConfigSynchronization+0x4e>
 8004d42:	f502 6200 	add.w	r2, r2, #2048	; 0x800
 8004d46:	4293      	cmp	r3, r2
 8004d48:	d01b      	beq.n	8004d82 <HAL_TIMEx_MasterConfigSynchronization+0x4e>
 8004d4a:	f1b3 4f80 	cmp.w	r3, #1073741824	; 0x40000000
 8004d4e:	d018      	beq.n	8004d82 <HAL_TIMEx_MasterConfigSynchronization+0x4e>
 8004d50:	f5a2 3298 	sub.w	r2, r2, #77824	; 0x13000
 8004d54:	4293      	cmp	r3, r2
 8004d56:	d014      	beq.n	8004d82 <HAL_TIMEx_MasterConfigSynchronization+0x4e>
 8004d58:	f502 6280 	add.w	r2, r2, #1024	; 0x400
 8004d5c:	4293      	cmp	r3, r2
 8004d5e:	d010      	beq.n	8004d82 <HAL_TIMEx_MasterConfigSynchronization+0x4e>
 8004d60:	f502 6280 	add.w	r2, r2, #1024	; 0x400
 8004d64:	4293      	cmp	r3, r2
 8004d66:	d00c      	beq.n	8004d82 <HAL_TIMEx_MasterConfigSynchronization+0x4e>
 8004d68:	f502 6280 	add.w	r2, r2, #1024	; 0x400
 8004d6c:	4293      	cmp	r3, r2
 8004d6e:	d008      	beq.n	8004d82 <HAL_TIMEx_MasterConfigSynchronization+0x4e>
 8004d70:	f502 6280 	add.w	r2, r2, #1024	; 0x400
 8004d74:	4293      	cmp	r3, r2
 8004d76:	d004      	beq.n	8004d82 <HAL_TIMEx_MasterConfigSynchronization+0x4e>
 8004d78:	f240 7186 	movw	r1, #1926	; 0x786
 8004d7c:	4824      	ldr	r0, [pc, #144]	; (8004e10 <HAL_TIMEx_MasterConfigSynchronization+0xdc>)
 8004d7e:	f7fc fe4d 	bl	8001a1c <assert_failed>
 8004d82:	682b      	ldr	r3, [r5, #0]
 8004d84:	f033 0330 	bics.w	r3, r3, #48	; 0x30
 8004d88:	d006      	beq.n	8004d98 <HAL_TIMEx_MasterConfigSynchronization+0x64>
 8004d8a:	2b40      	cmp	r3, #64	; 0x40
 8004d8c:	d004      	beq.n	8004d98 <HAL_TIMEx_MasterConfigSynchronization+0x64>
 8004d8e:	f240 7187 	movw	r1, #1927	; 0x787
 8004d92:	481f      	ldr	r0, [pc, #124]	; (8004e10 <HAL_TIMEx_MasterConfigSynchronization+0xdc>)
 8004d94:	f7fc fe42 	bl	8001a1c <assert_failed>
 8004d98:	686b      	ldr	r3, [r5, #4]
 8004d9a:	f033 0380 	bics.w	r3, r3, #128	; 0x80
 8004d9e:	d004      	beq.n	8004daa <HAL_TIMEx_MasterConfigSynchronization+0x76>
 8004da0:	f44f 61f1 	mov.w	r1, #1928	; 0x788
 8004da4:	481a      	ldr	r0, [pc, #104]	; (8004e10 <HAL_TIMEx_MasterConfigSynchronization+0xdc>)
 8004da6:	f7fc fe39 	bl	8001a1c <assert_failed>
 8004daa:	f894 303c 	ldrb.w	r3, [r4, #60]	; 0x3c
 8004dae:	2002      	movs	r0, #2
 8004db0:	2b01      	cmp	r3, #1
 8004db2:	d02a      	beq.n	8004e0a <HAL_TIMEx_MasterConfigSynchronization+0xd6>
 8004db4:	6823      	ldr	r3, [r4, #0]
 8004db6:	f884 003d 	strb.w	r0, [r4, #61]	; 0x3d
 8004dba:	6859      	ldr	r1, [r3, #4]
 8004dbc:	6828      	ldr	r0, [r5, #0]
 8004dbe:	f021 0170 	bic.w	r1, r1, #112	; 0x70
 8004dc2:	4301      	orrs	r1, r0
 8004dc4:	689a      	ldr	r2, [r3, #8]
 8004dc6:	6059      	str	r1, [r3, #4]
 8004dc8:	4910      	ldr	r1, [pc, #64]	; (8004e0c <HAL_TIMEx_MasterConfigSynchronization+0xd8>)
 8004dca:	428b      	cmp	r3, r1
 8004dcc:	d012      	beq.n	8004df4 <HAL_TIMEx_MasterConfigSynchronization+0xc0>
 8004dce:	f501 6100 	add.w	r1, r1, #2048	; 0x800
 8004dd2:	428b      	cmp	r3, r1
 8004dd4:	d00e      	beq.n	8004df4 <HAL_TIMEx_MasterConfigSynchronization+0xc0>
 8004dd6:	f1b3 4f80 	cmp.w	r3, #1073741824	; 0x40000000
 8004dda:	d00b      	beq.n	8004df4 <HAL_TIMEx_MasterConfigSynchronization+0xc0>
 8004ddc:	f5a1 3198 	sub.w	r1, r1, #77824	; 0x13000
 8004de0:	428b      	cmp	r3, r1
 8004de2:	d007      	beq.n	8004df4 <HAL_TIMEx_MasterConfigSynchronization+0xc0>
 8004de4:	f501 6180 	add.w	r1, r1, #1024	; 0x400
 8004de8:	428b      	cmp	r3, r1
 8004dea:	d003      	beq.n	8004df4 <HAL_TIMEx_MasterConfigSynchronization+0xc0>
 8004dec:	f501 6180 	add.w	r1, r1, #1024	; 0x400
 8004df0:	428b      	cmp	r3, r1
 8004df2:	d104      	bne.n	8004dfe <HAL_TIMEx_MasterConfigSynchronization+0xca>
 8004df4:	6869      	ldr	r1, [r5, #4]
 8004df6:	f022 0280 	bic.w	r2, r2, #128	; 0x80
 8004dfa:	430a      	orrs	r2, r1
 8004dfc:	609a      	str	r2, [r3, #8]
 8004dfe:	2301      	movs	r3, #1
 8004e00:	2000      	movs	r0, #0
 8004e02:	f884 303d 	strb.w	r3, [r4, #61]	; 0x3d
 8004e06:	f884 003c 	strb.w	r0, [r4, #60]	; 0x3c
 8004e0a:	bd38      	pop	{r3, r4, r5, pc}
 8004e0c:	40012c00 	.word	0x40012c00
 8004e10:	08009d88 	.word	0x08009d88

08004e14 <HAL_TIMEx_ConfigBreakDeadTime>:
 8004e14:	b538      	push	{r3, r4, r5, lr}
 8004e16:	4a39      	ldr	r2, [pc, #228]	; (8004efc <HAL_TIMEx_ConfigBreakDeadTime+0xe8>)
 8004e18:	6803      	ldr	r3, [r0, #0]
 8004e1a:	4604      	mov	r4, r0
 8004e1c:	4293      	cmp	r3, r2
 8004e1e:	460d      	mov	r5, r1
 8004e20:	d008      	beq.n	8004e34 <HAL_TIMEx_ConfigBreakDeadTime+0x20>
 8004e22:	f502 6200 	add.w	r2, r2, #2048	; 0x800
 8004e26:	4293      	cmp	r3, r2
 8004e28:	d004      	beq.n	8004e34 <HAL_TIMEx_ConfigBreakDeadTime+0x20>
 8004e2a:	f240 71c3 	movw	r1, #1987	; 0x7c3
 8004e2e:	4834      	ldr	r0, [pc, #208]	; (8004f00 <HAL_TIMEx_ConfigBreakDeadTime+0xec>)
 8004e30:	f7fc fdf4 	bl	8001a1c <assert_failed>
 8004e34:	682b      	ldr	r3, [r5, #0]
 8004e36:	f433 6300 	bics.w	r3, r3, #2048	; 0x800
 8004e3a:	d004      	beq.n	8004e46 <HAL_TIMEx_ConfigBreakDeadTime+0x32>
 8004e3c:	f240 71c4 	movw	r1, #1988	; 0x7c4
 8004e40:	482f      	ldr	r0, [pc, #188]	; (8004f00 <HAL_TIMEx_ConfigBreakDeadTime+0xec>)
 8004e42:	f7fc fdeb 	bl	8001a1c <assert_failed>
 8004e46:	686b      	ldr	r3, [r5, #4]
 8004e48:	f433 6380 	bics.w	r3, r3, #1024	; 0x400
 8004e4c:	d004      	beq.n	8004e58 <HAL_TIMEx_ConfigBreakDeadTime+0x44>
 8004e4e:	f240 71c5 	movw	r1, #1989	; 0x7c5
 8004e52:	482b      	ldr	r0, [pc, #172]	; (8004f00 <HAL_TIMEx_ConfigBreakDeadTime+0xec>)
 8004e54:	f7fc fde2 	bl	8001a1c <assert_failed>
 8004e58:	68ab      	ldr	r3, [r5, #8]
 8004e5a:	f433 7340 	bics.w	r3, r3, #768	; 0x300
 8004e5e:	d004      	beq.n	8004e6a <HAL_TIMEx_ConfigBreakDeadTime+0x56>
 8004e60:	f240 71c6 	movw	r1, #1990	; 0x7c6
 8004e64:	4826      	ldr	r0, [pc, #152]	; (8004f00 <HAL_TIMEx_ConfigBreakDeadTime+0xec>)
 8004e66:	f7fc fdd9 	bl	8001a1c <assert_failed>
 8004e6a:	68eb      	ldr	r3, [r5, #12]
 8004e6c:	2bff      	cmp	r3, #255	; 0xff
 8004e6e:	d904      	bls.n	8004e7a <HAL_TIMEx_ConfigBreakDeadTime+0x66>
 8004e70:	f240 71c7 	movw	r1, #1991	; 0x7c7
 8004e74:	4822      	ldr	r0, [pc, #136]	; (8004f00 <HAL_TIMEx_ConfigBreakDeadTime+0xec>)
 8004e76:	f7fc fdd1 	bl	8001a1c <assert_failed>
 8004e7a:	692b      	ldr	r3, [r5, #16]
 8004e7c:	f433 5380 	bics.w	r3, r3, #4096	; 0x1000
 8004e80:	d004      	beq.n	8004e8c <HAL_TIMEx_ConfigBreakDeadTime+0x78>
 8004e82:	f44f 61f9 	mov.w	r1, #1992	; 0x7c8
 8004e86:	481e      	ldr	r0, [pc, #120]	; (8004f00 <HAL_TIMEx_ConfigBreakDeadTime+0xec>)
 8004e88:	f7fc fdc8 	bl	8001a1c <assert_failed>
 8004e8c:	696b      	ldr	r3, [r5, #20]
 8004e8e:	f433 5300 	bics.w	r3, r3, #8192	; 0x2000
 8004e92:	d004      	beq.n	8004e9e <HAL_TIMEx_ConfigBreakDeadTime+0x8a>
 8004e94:	f240 71c9 	movw	r1, #1993	; 0x7c9
 8004e98:	4819      	ldr	r0, [pc, #100]	; (8004f00 <HAL_TIMEx_ConfigBreakDeadTime+0xec>)
 8004e9a:	f7fc fdbf 	bl	8001a1c <assert_failed>
 8004e9e:	69eb      	ldr	r3, [r5, #28]
 8004ea0:	f433 4380 	bics.w	r3, r3, #16384	; 0x4000
 8004ea4:	d004      	beq.n	8004eb0 <HAL_TIMEx_ConfigBreakDeadTime+0x9c>
 8004ea6:	f240 71ca 	movw	r1, #1994	; 0x7ca
 8004eaa:	4815      	ldr	r0, [pc, #84]	; (8004f00 <HAL_TIMEx_ConfigBreakDeadTime+0xec>)
 8004eac:	f7fc fdb6 	bl	8001a1c <assert_failed>
 8004eb0:	f894 303c 	ldrb.w	r3, [r4, #60]	; 0x3c
 8004eb4:	2b01      	cmp	r3, #1
 8004eb6:	d01e      	beq.n	8004ef6 <HAL_TIMEx_ConfigBreakDeadTime+0xe2>
 8004eb8:	2000      	movs	r0, #0
 8004eba:	68eb      	ldr	r3, [r5, #12]
 8004ebc:	68aa      	ldr	r2, [r5, #8]
 8004ebe:	f423 7340 	bic.w	r3, r3, #768	; 0x300
 8004ec2:	4313      	orrs	r3, r2
 8004ec4:	686a      	ldr	r2, [r5, #4]
 8004ec6:	f423 6380 	bic.w	r3, r3, #1024	; 0x400
 8004eca:	4313      	orrs	r3, r2
 8004ecc:	682a      	ldr	r2, [r5, #0]
 8004ece:	f423 6300 	bic.w	r3, r3, #2048	; 0x800
 8004ed2:	4313      	orrs	r3, r2
 8004ed4:	692a      	ldr	r2, [r5, #16]
 8004ed6:	f423 5380 	bic.w	r3, r3, #4096	; 0x1000
 8004eda:	4313      	orrs	r3, r2
 8004edc:	696a      	ldr	r2, [r5, #20]
 8004ede:	f423 5300 	bic.w	r3, r3, #8192	; 0x2000
 8004ee2:	4313      	orrs	r3, r2
 8004ee4:	69ea      	ldr	r2, [r5, #28]
 8004ee6:	f423 4380 	bic.w	r3, r3, #16384	; 0x4000
 8004eea:	4313      	orrs	r3, r2
 8004eec:	6822      	ldr	r2, [r4, #0]
 8004eee:	6453      	str	r3, [r2, #68]	; 0x44
 8004ef0:	f884 003c 	strb.w	r0, [r4, #60]	; 0x3c
 8004ef4:	bd38      	pop	{r3, r4, r5, pc}
 8004ef6:	2002      	movs	r0, #2
 8004ef8:	e7fc      	b.n	8004ef4 <HAL_TIMEx_ConfigBreakDeadTime+0xe0>
 8004efa:	bf00      	nop
 8004efc:	40012c00 	.word	0x40012c00
 8004f00:	08009d88 	.word	0x08009d88

08004f04 <HAL_TIMEx_CommutCallback>:
 8004f04:	4770      	bx	lr

08004f06 <HAL_TIMEx_CommutHalfCpltCallback>:
 8004f06:	4770      	bx	lr

08004f08 <HAL_TIMEx_BreakCallback>:
 8004f08:	4770      	bx	lr

08004f0a <HAL_UARTEx_RxEventCallback>:
 8004f0a:	4770      	bx	lr

08004f0c <UART_EndRxTransfer>:
 8004f0c:	6803      	ldr	r3, [r0, #0]
 8004f0e:	68da      	ldr	r2, [r3, #12]
 8004f10:	f422 7290 	bic.w	r2, r2, #288	; 0x120
 8004f14:	60da      	str	r2, [r3, #12]
 8004f16:	695a      	ldr	r2, [r3, #20]
 8004f18:	f022 0201 	bic.w	r2, r2, #1
 8004f1c:	615a      	str	r2, [r3, #20]
 8004f1e:	6b02      	ldr	r2, [r0, #48]	; 0x30
 8004f20:	2a01      	cmp	r2, #1
 8004f22:	bf02      	ittt	eq
 8004f24:	68da      	ldreq	r2, [r3, #12]
 8004f26:	f022 0210 	biceq.w	r2, r2, #16
 8004f2a:	60da      	streq	r2, [r3, #12]
 8004f2c:	2320      	movs	r3, #32
 8004f2e:	f880 303e 	strb.w	r3, [r0, #62]	; 0x3e
 8004f32:	2300      	movs	r3, #0
 8004f34:	6303      	str	r3, [r0, #48]	; 0x30
 8004f36:	4770      	bx	lr

08004f38 <UART_DMAAbortOnError>:
 8004f38:	2300      	movs	r3, #0
 8004f3a:	6a40      	ldr	r0, [r0, #36]	; 0x24
 8004f3c:	85c3      	strh	r3, [r0, #46]	; 0x2e
 8004f3e:	84c3      	strh	r3, [r0, #38]	; 0x26
 8004f40:	6d43      	ldr	r3, [r0, #84]	; 0x54
 8004f42:	4718      	bx	r3

08004f44 <UART_SetConfig>:
 8004f44:	6842      	ldr	r2, [r0, #4]
 8004f46:	4b2f      	ldr	r3, [pc, #188]	; (8005004 <UART_SetConfig+0xc0>)
 8004f48:	b510      	push	{r4, lr}
 8004f4a:	429a      	cmp	r2, r3
 8004f4c:	4604      	mov	r4, r0
 8004f4e:	d904      	bls.n	8004f5a <UART_SetConfig+0x16>
 8004f50:	f640 6153 	movw	r1, #3667	; 0xe53
 8004f54:	482c      	ldr	r0, [pc, #176]	; (8005008 <UART_SetConfig+0xc4>)
 8004f56:	f7fc fd61 	bl	8001a1c <assert_failed>
 8004f5a:	68e3      	ldr	r3, [r4, #12]
 8004f5c:	f433 5300 	bics.w	r3, r3, #8192	; 0x2000
 8004f60:	d004      	beq.n	8004f6c <UART_SetConfig+0x28>
 8004f62:	f640 6154 	movw	r1, #3668	; 0xe54
 8004f66:	4828      	ldr	r0, [pc, #160]	; (8005008 <UART_SetConfig+0xc4>)
 8004f68:	f7fc fd58 	bl	8001a1c <assert_failed>
 8004f6c:	6923      	ldr	r3, [r4, #16]
 8004f6e:	f433 6280 	bics.w	r2, r3, #1024	; 0x400
 8004f72:	d007      	beq.n	8004f84 <UART_SetConfig+0x40>
 8004f74:	f5b3 6fc0 	cmp.w	r3, #1536	; 0x600
 8004f78:	d004      	beq.n	8004f84 <UART_SetConfig+0x40>
 8004f7a:	f640 6155 	movw	r1, #3669	; 0xe55
 8004f7e:	4822      	ldr	r0, [pc, #136]	; (8005008 <UART_SetConfig+0xc4>)
 8004f80:	f7fc fd4c 	bl	8001a1c <assert_failed>
 8004f84:	f64f 72f3 	movw	r2, #65523	; 0xfff3
 8004f88:	6963      	ldr	r3, [r4, #20]
 8004f8a:	4213      	tst	r3, r2
 8004f8c:	d100      	bne.n	8004f90 <UART_SetConfig+0x4c>
 8004f8e:	b923      	cbnz	r3, 8004f9a <UART_SetConfig+0x56>
 8004f90:	f640 6156 	movw	r1, #3670	; 0xe56
 8004f94:	481c      	ldr	r0, [pc, #112]	; (8005008 <UART_SetConfig+0xc4>)
 8004f96:	f7fc fd41 	bl	8001a1c <assert_failed>
 8004f9a:	6823      	ldr	r3, [r4, #0]
 8004f9c:	68e1      	ldr	r1, [r4, #12]
 8004f9e:	691a      	ldr	r2, [r3, #16]
 8004fa0:	6920      	ldr	r0, [r4, #16]
 8004fa2:	f422 5240 	bic.w	r2, r2, #12288	; 0x3000
 8004fa6:	430a      	orrs	r2, r1
 8004fa8:	611a      	str	r2, [r3, #16]
 8004faa:	68a2      	ldr	r2, [r4, #8]
 8004fac:	68d9      	ldr	r1, [r3, #12]
 8004fae:	4302      	orrs	r2, r0
 8004fb0:	6960      	ldr	r0, [r4, #20]
 8004fb2:	f421 51b0 	bic.w	r1, r1, #5632	; 0x1600
 8004fb6:	f021 010c 	bic.w	r1, r1, #12
 8004fba:	4302      	orrs	r2, r0
 8004fbc:	430a      	orrs	r2, r1
 8004fbe:	60da      	str	r2, [r3, #12]
 8004fc0:	695a      	ldr	r2, [r3, #20]
 8004fc2:	69a1      	ldr	r1, [r4, #24]
 8004fc4:	f422 7240 	bic.w	r2, r2, #768	; 0x300
 8004fc8:	430a      	orrs	r2, r1
 8004fca:	615a      	str	r2, [r3, #20]
 8004fcc:	4a0f      	ldr	r2, [pc, #60]	; (800500c <UART_SetConfig+0xc8>)
 8004fce:	4293      	cmp	r3, r2
 8004fd0:	d115      	bne.n	8004ffe <UART_SetConfig+0xba>
 8004fd2:	f7fe f867 	bl	80030a4 <HAL_RCC_GetPCLK2Freq>
 8004fd6:	2319      	movs	r3, #25
 8004fd8:	4343      	muls	r3, r0
 8004fda:	6862      	ldr	r2, [r4, #4]
 8004fdc:	6820      	ldr	r0, [r4, #0]
 8004fde:	0092      	lsls	r2, r2, #2
 8004fe0:	fbb3 f3f2 	udiv	r3, r3, r2
 8004fe4:	2264      	movs	r2, #100	; 0x64
 8004fe6:	fbb3 f1f2 	udiv	r1, r3, r2
 8004fea:	fb02 3311 	mls	r3, r2, r1, r3
 8004fee:	011b      	lsls	r3, r3, #4
 8004ff0:	3332      	adds	r3, #50	; 0x32
 8004ff2:	fbb3 f3f2 	udiv	r3, r3, r2
 8004ff6:	eb03 1301 	add.w	r3, r3, r1, lsl #4
 8004ffa:	6083      	str	r3, [r0, #8]
 8004ffc:	bd10      	pop	{r4, pc}
 8004ffe:	f7fe f841 	bl	8003084 <HAL_RCC_GetPCLK1Freq>
 8005002:	e7e8      	b.n	8004fd6 <UART_SetConfig+0x92>
 8005004:	0044aa20 	.word	0x0044aa20
 8005008:	08009dc3 	.word	0x08009dc3
 800500c:	40013800 	.word	0x40013800

08005010 <UART_Receive_IT>:
 8005010:	b513      	push	{r0, r1, r4, lr}
 8005012:	f890 303e 	ldrb.w	r3, [r0, #62]	; 0x3e
 8005016:	2b22      	cmp	r3, #34	; 0x22
 8005018:	d149      	bne.n	80050ae <UART_Receive_IT+0x9e>
 800501a:	6881      	ldr	r1, [r0, #8]
 800501c:	6a83      	ldr	r3, [r0, #40]	; 0x28
 800501e:	f5b1 5f80 	cmp.w	r1, #4096	; 0x1000
 8005022:	6802      	ldr	r2, [r0, #0]
 8005024:	d133      	bne.n	800508e <UART_Receive_IT+0x7e>
 8005026:	6901      	ldr	r1, [r0, #16]
 8005028:	2900      	cmp	r1, #0
 800502a:	d133      	bne.n	8005094 <UART_Receive_IT+0x84>
 800502c:	6852      	ldr	r2, [r2, #4]
 800502e:	f3c2 0208 	ubfx	r2, r2, #0, #9
 8005032:	f823 2b02 	strh.w	r2, [r3], #2
 8005036:	8dc4      	ldrh	r4, [r0, #46]	; 0x2e
 8005038:	6283      	str	r3, [r0, #40]	; 0x28
 800503a:	3c01      	subs	r4, #1
 800503c:	b2a4      	uxth	r4, r4
 800503e:	85c4      	strh	r4, [r0, #46]	; 0x2e
 8005040:	bb1c      	cbnz	r4, 800508a <UART_Receive_IT+0x7a>
 8005042:	6803      	ldr	r3, [r0, #0]
 8005044:	68da      	ldr	r2, [r3, #12]
 8005046:	f022 0220 	bic.w	r2, r2, #32
 800504a:	60da      	str	r2, [r3, #12]
 800504c:	68da      	ldr	r2, [r3, #12]
 800504e:	f422 7280 	bic.w	r2, r2, #256	; 0x100
 8005052:	60da      	str	r2, [r3, #12]
 8005054:	695a      	ldr	r2, [r3, #20]
 8005056:	f022 0201 	bic.w	r2, r2, #1
 800505a:	615a      	str	r2, [r3, #20]
 800505c:	2220      	movs	r2, #32
 800505e:	f880 203e 	strb.w	r2, [r0, #62]	; 0x3e
 8005062:	6b02      	ldr	r2, [r0, #48]	; 0x30
 8005064:	2a01      	cmp	r2, #1
 8005066:	d11f      	bne.n	80050a8 <UART_Receive_IT+0x98>
 8005068:	6304      	str	r4, [r0, #48]	; 0x30
 800506a:	68da      	ldr	r2, [r3, #12]
 800506c:	f022 0210 	bic.w	r2, r2, #16
 8005070:	60da      	str	r2, [r3, #12]
 8005072:	681a      	ldr	r2, [r3, #0]
 8005074:	06d2      	lsls	r2, r2, #27
 8005076:	d505      	bpl.n	8005084 <UART_Receive_IT+0x74>
 8005078:	9401      	str	r4, [sp, #4]
 800507a:	681a      	ldr	r2, [r3, #0]
 800507c:	9201      	str	r2, [sp, #4]
 800507e:	685b      	ldr	r3, [r3, #4]
 8005080:	9301      	str	r3, [sp, #4]
 8005082:	9b01      	ldr	r3, [sp, #4]
 8005084:	6e83      	ldr	r3, [r0, #104]	; 0x68
 8005086:	8d81      	ldrh	r1, [r0, #44]	; 0x2c
 8005088:	4798      	blx	r3
 800508a:	2000      	movs	r0, #0
 800508c:	e010      	b.n	80050b0 <UART_Receive_IT+0xa0>
 800508e:	b939      	cbnz	r1, 80050a0 <UART_Receive_IT+0x90>
 8005090:	6901      	ldr	r1, [r0, #16]
 8005092:	b929      	cbnz	r1, 80050a0 <UART_Receive_IT+0x90>
 8005094:	6852      	ldr	r2, [r2, #4]
 8005096:	b2d2      	uxtb	r2, r2
 8005098:	701a      	strb	r2, [r3, #0]
 800509a:	6a83      	ldr	r3, [r0, #40]	; 0x28
 800509c:	3301      	adds	r3, #1
 800509e:	e7ca      	b.n	8005036 <UART_Receive_IT+0x26>
 80050a0:	6852      	ldr	r2, [r2, #4]
 80050a2:	f002 027f 	and.w	r2, r2, #127	; 0x7f
 80050a6:	e7f7      	b.n	8005098 <UART_Receive_IT+0x88>
 80050a8:	6d03      	ldr	r3, [r0, #80]	; 0x50
 80050aa:	4798      	blx	r3
 80050ac:	e7ed      	b.n	800508a <UART_Receive_IT+0x7a>
 80050ae:	2002      	movs	r0, #2
 80050b0:	b002      	add	sp, #8
 80050b2:	bd10      	pop	{r4, pc}

080050b4 <UART_WaitOnFlagUntilTimeout.constprop.0>:
 80050b4:	b5f8      	push	{r3, r4, r5, r6, r7, lr}
 80050b6:	4604      	mov	r4, r0
 80050b8:	460e      	mov	r6, r1
 80050ba:	4617      	mov	r7, r2
 80050bc:	461d      	mov	r5, r3
 80050be:	6822      	ldr	r2, [r4, #0]
 80050c0:	6813      	ldr	r3, [r2, #0]
 80050c2:	ea36 0303 	bics.w	r3, r6, r3
 80050c6:	d101      	bne.n	80050cc <UART_WaitOnFlagUntilTimeout.constprop.0+0x18>
 80050c8:	2000      	movs	r0, #0
 80050ca:	e014      	b.n	80050f6 <UART_WaitOnFlagUntilTimeout.constprop.0+0x42>
 80050cc:	1c6b      	adds	r3, r5, #1
 80050ce:	d0f7      	beq.n	80050c0 <UART_WaitOnFlagUntilTimeout.constprop.0+0xc>
 80050d0:	b995      	cbnz	r5, 80050f8 <UART_WaitOnFlagUntilTimeout.constprop.0+0x44>
 80050d2:	6823      	ldr	r3, [r4, #0]
 80050d4:	2003      	movs	r0, #3
 80050d6:	68da      	ldr	r2, [r3, #12]
 80050d8:	f422 72d0 	bic.w	r2, r2, #416	; 0x1a0
 80050dc:	60da      	str	r2, [r3, #12]
 80050de:	695a      	ldr	r2, [r3, #20]
 80050e0:	f022 0201 	bic.w	r2, r2, #1
 80050e4:	615a      	str	r2, [r3, #20]
 80050e6:	2320      	movs	r3, #32
 80050e8:	f884 303d 	strb.w	r3, [r4, #61]	; 0x3d
 80050ec:	f884 303e 	strb.w	r3, [r4, #62]	; 0x3e
 80050f0:	2300      	movs	r3, #0
 80050f2:	f884 303c 	strb.w	r3, [r4, #60]	; 0x3c
 80050f6:	bdf8      	pop	{r3, r4, r5, r6, r7, pc}
 80050f8:	f7fc ffc6 	bl	8002088 <HAL_GetTick>
 80050fc:	1bc0      	subs	r0, r0, r7
 80050fe:	4285      	cmp	r5, r0
 8005100:	d2dd      	bcs.n	80050be <UART_WaitOnFlagUntilTimeout.constprop.0+0xa>
 8005102:	e7e6      	b.n	80050d2 <UART_WaitOnFlagUntilTimeout.constprop.0+0x1e>

08005104 <HAL_UART_AbortReceiveCpltCallback>:
 8005104:	4770      	bx	lr

08005106 <HAL_UART_TxHalfCpltCallback>:
 8005106:	4770      	bx	lr

08005108 <HAL_UART_RxHalfCpltCallback>:
 8005108:	4770      	bx	lr

0800510a <HAL_UART_ErrorCallback>:
 800510a:	4770      	bx	lr

0800510c <HAL_UART_AbortCpltCallback>:
 800510c:	4770      	bx	lr

0800510e <HAL_UART_AbortTransmitCpltCallback>:
 800510e:	4770      	bx	lr

08005110 <HAL_UART_Transmit>:
 8005110:	e92d 43f8 	stmdb	sp!, {r3, r4, r5, r6, r7, r8, r9, lr}
 8005114:	4699      	mov	r9, r3
 8005116:	f890 303d 	ldrb.w	r3, [r0, #61]	; 0x3d
 800511a:	4604      	mov	r4, r0
 800511c:	2b20      	cmp	r3, #32
 800511e:	460e      	mov	r6, r1
 8005120:	4617      	mov	r7, r2
 8005122:	d148      	bne.n	80051b6 <HAL_UART_Transmit+0xa6>
 8005124:	2900      	cmp	r1, #0
 8005126:	d044      	beq.n	80051b2 <HAL_UART_Transmit+0xa2>
 8005128:	2a00      	cmp	r2, #0
 800512a:	d042      	beq.n	80051b2 <HAL_UART_Transmit+0xa2>
 800512c:	f890 303c 	ldrb.w	r3, [r0, #60]	; 0x3c
 8005130:	2b01      	cmp	r3, #1
 8005132:	d040      	beq.n	80051b6 <HAL_UART_Transmit+0xa6>
 8005134:	2301      	movs	r3, #1
 8005136:	2500      	movs	r5, #0
 8005138:	f880 303c 	strb.w	r3, [r0, #60]	; 0x3c
 800513c:	2321      	movs	r3, #33	; 0x21
 800513e:	6405      	str	r5, [r0, #64]	; 0x40
 8005140:	f880 303d 	strb.w	r3, [r0, #61]	; 0x3d
 8005144:	f7fc ffa0 	bl	8002088 <HAL_GetTick>
 8005148:	68a3      	ldr	r3, [r4, #8]
 800514a:	4680      	mov	r8, r0
 800514c:	f5b3 5f80 	cmp.w	r3, #4096	; 0x1000
 8005150:	84a7      	strh	r7, [r4, #36]	; 0x24
 8005152:	84e7      	strh	r7, [r4, #38]	; 0x26
 8005154:	d103      	bne.n	800515e <HAL_UART_Transmit+0x4e>
 8005156:	6923      	ldr	r3, [r4, #16]
 8005158:	b90b      	cbnz	r3, 800515e <HAL_UART_Transmit+0x4e>
 800515a:	4635      	mov	r5, r6
 800515c:	461e      	mov	r6, r3
 800515e:	2300      	movs	r3, #0
 8005160:	f884 303c 	strb.w	r3, [r4, #60]	; 0x3c
 8005164:	8ce3      	ldrh	r3, [r4, #38]	; 0x26
 8005166:	b29b      	uxth	r3, r3
 8005168:	b953      	cbnz	r3, 8005180 <HAL_UART_Transmit+0x70>
 800516a:	464b      	mov	r3, r9
 800516c:	4642      	mov	r2, r8
 800516e:	2140      	movs	r1, #64	; 0x40
 8005170:	4620      	mov	r0, r4
 8005172:	f7ff ff9f 	bl	80050b4 <UART_WaitOnFlagUntilTimeout.constprop.0>
 8005176:	b950      	cbnz	r0, 800518e <HAL_UART_Transmit+0x7e>
 8005178:	2320      	movs	r3, #32
 800517a:	f884 303d 	strb.w	r3, [r4, #61]	; 0x3d
 800517e:	e007      	b.n	8005190 <HAL_UART_Transmit+0x80>
 8005180:	464b      	mov	r3, r9
 8005182:	4642      	mov	r2, r8
 8005184:	2180      	movs	r1, #128	; 0x80
 8005186:	4620      	mov	r0, r4
 8005188:	f7ff ff94 	bl	80050b4 <UART_WaitOnFlagUntilTimeout.constprop.0>
 800518c:	b110      	cbz	r0, 8005194 <HAL_UART_Transmit+0x84>
 800518e:	2003      	movs	r0, #3
 8005190:	e8bd 83f8 	ldmia.w	sp!, {r3, r4, r5, r6, r7, r8, r9, pc}
 8005194:	6822      	ldr	r2, [r4, #0]
 8005196:	b94e      	cbnz	r6, 80051ac <HAL_UART_Transmit+0x9c>
 8005198:	f835 3b02 	ldrh.w	r3, [r5], #2
 800519c:	f3c3 0308 	ubfx	r3, r3, #0, #9
 80051a0:	6053      	str	r3, [r2, #4]
 80051a2:	8ce1      	ldrh	r1, [r4, #38]	; 0x26
 80051a4:	3901      	subs	r1, #1
 80051a6:	b289      	uxth	r1, r1
 80051a8:	84e1      	strh	r1, [r4, #38]	; 0x26
 80051aa:	e7db      	b.n	8005164 <HAL_UART_Transmit+0x54>
 80051ac:	f816 3b01 	ldrb.w	r3, [r6], #1
 80051b0:	e7f6      	b.n	80051a0 <HAL_UART_Transmit+0x90>
 80051b2:	2001      	movs	r0, #1
 80051b4:	e7ec      	b.n	8005190 <HAL_UART_Transmit+0x80>
 80051b6:	2002      	movs	r0, #2
 80051b8:	e7ea      	b.n	8005190 <HAL_UART_Transmit+0x80>
	...

080051bc <HAL_UART_IRQHandler>:
 80051bc:	6803      	ldr	r3, [r0, #0]
 80051be:	b537      	push	{r0, r1, r2, r4, r5, lr}
 80051c0:	681a      	ldr	r2, [r3, #0]
 80051c2:	4604      	mov	r4, r0
 80051c4:	f012 0f0f 	tst.w	r2, #15
 80051c8:	68d9      	ldr	r1, [r3, #12]
 80051ca:	695d      	ldr	r5, [r3, #20]
 80051cc:	d108      	bne.n	80051e0 <HAL_UART_IRQHandler+0x24>
 80051ce:	0695      	lsls	r5, r2, #26
 80051d0:	d560      	bpl.n	8005294 <HAL_UART_IRQHandler+0xd8>
 80051d2:	068d      	lsls	r5, r1, #26
 80051d4:	d55e      	bpl.n	8005294 <HAL_UART_IRQHandler+0xd8>
 80051d6:	b003      	add	sp, #12
 80051d8:	e8bd 4030 	ldmia.w	sp!, {r4, r5, lr}
 80051dc:	f7ff bf18 	b.w	8005010 <UART_Receive_IT>
 80051e0:	f005 0001 	and.w	r0, r5, #1
 80051e4:	f401 7590 	and.w	r5, r1, #288	; 0x120
 80051e8:	4305      	orrs	r5, r0
 80051ea:	d053      	beq.n	8005294 <HAL_UART_IRQHandler+0xd8>
 80051ec:	07d5      	lsls	r5, r2, #31
 80051ee:	d505      	bpl.n	80051fc <HAL_UART_IRQHandler+0x40>
 80051f0:	05cb      	lsls	r3, r1, #23
 80051f2:	bf42      	ittt	mi
 80051f4:	6c23      	ldrmi	r3, [r4, #64]	; 0x40
 80051f6:	f043 0301 	orrmi.w	r3, r3, #1
 80051fa:	6423      	strmi	r3, [r4, #64]	; 0x40
 80051fc:	0755      	lsls	r5, r2, #29
 80051fe:	d504      	bpl.n	800520a <HAL_UART_IRQHandler+0x4e>
 8005200:	b118      	cbz	r0, 800520a <HAL_UART_IRQHandler+0x4e>
 8005202:	6c23      	ldr	r3, [r4, #64]	; 0x40
 8005204:	f043 0302 	orr.w	r3, r3, #2
 8005208:	6423      	str	r3, [r4, #64]	; 0x40
 800520a:	0793      	lsls	r3, r2, #30
 800520c:	d504      	bpl.n	8005218 <HAL_UART_IRQHandler+0x5c>
 800520e:	b118      	cbz	r0, 8005218 <HAL_UART_IRQHandler+0x5c>
 8005210:	6c23      	ldr	r3, [r4, #64]	; 0x40
 8005212:	f043 0304 	orr.w	r3, r3, #4
 8005216:	6423      	str	r3, [r4, #64]	; 0x40
 8005218:	0715      	lsls	r5, r2, #28
 800521a:	d507      	bpl.n	800522c <HAL_UART_IRQHandler+0x70>
 800521c:	f001 0320 	and.w	r3, r1, #32
 8005220:	4303      	orrs	r3, r0
 8005222:	bf1e      	ittt	ne
 8005224:	6c23      	ldrne	r3, [r4, #64]	; 0x40
 8005226:	f043 0308 	orrne.w	r3, r3, #8
 800522a:	6423      	strne	r3, [r4, #64]	; 0x40
 800522c:	6c23      	ldr	r3, [r4, #64]	; 0x40
 800522e:	2b00      	cmp	r3, #0
 8005230:	d02e      	beq.n	8005290 <HAL_UART_IRQHandler+0xd4>
 8005232:	0692      	lsls	r2, r2, #26
 8005234:	d504      	bpl.n	8005240 <HAL_UART_IRQHandler+0x84>
 8005236:	068b      	lsls	r3, r1, #26
 8005238:	d502      	bpl.n	8005240 <HAL_UART_IRQHandler+0x84>
 800523a:	4620      	mov	r0, r4
 800523c:	f7ff fee8 	bl	8005010 <UART_Receive_IT>
 8005240:	6823      	ldr	r3, [r4, #0]
 8005242:	695b      	ldr	r3, [r3, #20]
 8005244:	6c25      	ldr	r5, [r4, #64]	; 0x40
 8005246:	f003 0340 	and.w	r3, r3, #64	; 0x40
 800524a:	f005 0508 	and.w	r5, r5, #8
 800524e:	431d      	orrs	r5, r3
 8005250:	d01a      	beq.n	8005288 <HAL_UART_IRQHandler+0xcc>
 8005252:	4620      	mov	r0, r4
 8005254:	f7ff fe5a 	bl	8004f0c <UART_EndRxTransfer>
 8005258:	6823      	ldr	r3, [r4, #0]
 800525a:	695a      	ldr	r2, [r3, #20]
 800525c:	0655      	lsls	r5, r2, #25
 800525e:	d510      	bpl.n	8005282 <HAL_UART_IRQHandler+0xc6>
 8005260:	695a      	ldr	r2, [r3, #20]
 8005262:	6ba0      	ldr	r0, [r4, #56]	; 0x38
 8005264:	f022 0240 	bic.w	r2, r2, #64	; 0x40
 8005268:	615a      	str	r2, [r3, #20]
 800526a:	b150      	cbz	r0, 8005282 <HAL_UART_IRQHandler+0xc6>
 800526c:	4b53      	ldr	r3, [pc, #332]	; (80053bc <HAL_UART_IRQHandler+0x200>)
 800526e:	6343      	str	r3, [r0, #52]	; 0x34
 8005270:	f7fd f97e 	bl	8002570 <HAL_DMA_Abort_IT>
 8005274:	b160      	cbz	r0, 8005290 <HAL_UART_IRQHandler+0xd4>
 8005276:	6ba0      	ldr	r0, [r4, #56]	; 0x38
 8005278:	6b43      	ldr	r3, [r0, #52]	; 0x34
 800527a:	b003      	add	sp, #12
 800527c:	e8bd 4030 	ldmia.w	sp!, {r4, r5, lr}
 8005280:	4718      	bx	r3
 8005282:	6d63      	ldr	r3, [r4, #84]	; 0x54
 8005284:	4620      	mov	r0, r4
 8005286:	e7f8      	b.n	800527a <HAL_UART_IRQHandler+0xbe>
 8005288:	4620      	mov	r0, r4
 800528a:	6d63      	ldr	r3, [r4, #84]	; 0x54
 800528c:	4798      	blx	r3
 800528e:	6425      	str	r5, [r4, #64]	; 0x40
 8005290:	b003      	add	sp, #12
 8005292:	bd30      	pop	{r4, r5, pc}
 8005294:	6b20      	ldr	r0, [r4, #48]	; 0x30
 8005296:	2801      	cmp	r0, #1
 8005298:	d158      	bne.n	800534c <HAL_UART_IRQHandler+0x190>
 800529a:	06d0      	lsls	r0, r2, #27
 800529c:	d556      	bpl.n	800534c <HAL_UART_IRQHandler+0x190>
 800529e:	06cd      	lsls	r5, r1, #27
 80052a0:	d554      	bpl.n	800534c <HAL_UART_IRQHandler+0x190>
 80052a2:	2100      	movs	r1, #0
 80052a4:	9101      	str	r1, [sp, #4]
 80052a6:	681a      	ldr	r2, [r3, #0]
 80052a8:	9201      	str	r2, [sp, #4]
 80052aa:	685a      	ldr	r2, [r3, #4]
 80052ac:	9201      	str	r2, [sp, #4]
 80052ae:	9a01      	ldr	r2, [sp, #4]
 80052b0:	695a      	ldr	r2, [r3, #20]
 80052b2:	f012 0240 	ands.w	r2, r2, #64	; 0x40
 80052b6:	d02c      	beq.n	8005312 <HAL_UART_IRQHandler+0x156>
 80052b8:	6ba0      	ldr	r0, [r4, #56]	; 0x38
 80052ba:	6802      	ldr	r2, [r0, #0]
 80052bc:	6852      	ldr	r2, [r2, #4]
 80052be:	b292      	uxth	r2, r2
 80052c0:	2a00      	cmp	r2, #0
 80052c2:	d0e5      	beq.n	8005290 <HAL_UART_IRQHandler+0xd4>
 80052c4:	8da5      	ldrh	r5, [r4, #44]	; 0x2c
 80052c6:	4295      	cmp	r5, r2
 80052c8:	d9e2      	bls.n	8005290 <HAL_UART_IRQHandler+0xd4>
 80052ca:	85e2      	strh	r2, [r4, #46]	; 0x2e
 80052cc:	6982      	ldr	r2, [r0, #24]
 80052ce:	2a20      	cmp	r2, #32
 80052d0:	d015      	beq.n	80052fe <HAL_UART_IRQHandler+0x142>
 80052d2:	68da      	ldr	r2, [r3, #12]
 80052d4:	f422 7280 	bic.w	r2, r2, #256	; 0x100
 80052d8:	60da      	str	r2, [r3, #12]
 80052da:	695a      	ldr	r2, [r3, #20]
 80052dc:	f022 0201 	bic.w	r2, r2, #1
 80052e0:	615a      	str	r2, [r3, #20]
 80052e2:	695a      	ldr	r2, [r3, #20]
 80052e4:	f022 0240 	bic.w	r2, r2, #64	; 0x40
 80052e8:	615a      	str	r2, [r3, #20]
 80052ea:	2220      	movs	r2, #32
 80052ec:	f884 203e 	strb.w	r2, [r4, #62]	; 0x3e
 80052f0:	6321      	str	r1, [r4, #48]	; 0x30
 80052f2:	68da      	ldr	r2, [r3, #12]
 80052f4:	f022 0210 	bic.w	r2, r2, #16
 80052f8:	60da      	str	r2, [r3, #12]
 80052fa:	f7fd f91b 	bl	8002534 <HAL_DMA_Abort>
 80052fe:	8de3      	ldrh	r3, [r4, #46]	; 0x2e
 8005300:	8da1      	ldrh	r1, [r4, #44]	; 0x2c
 8005302:	1ac9      	subs	r1, r1, r3
 8005304:	6ea3      	ldr	r3, [r4, #104]	; 0x68
 8005306:	b289      	uxth	r1, r1
 8005308:	4620      	mov	r0, r4
 800530a:	b003      	add	sp, #12
 800530c:	e8bd 4030 	ldmia.w	sp!, {r4, r5, lr}
 8005310:	4718      	bx	r3
 8005312:	8de1      	ldrh	r1, [r4, #46]	; 0x2e
 8005314:	b288      	uxth	r0, r1
 8005316:	8de1      	ldrh	r1, [r4, #46]	; 0x2e
 8005318:	b289      	uxth	r1, r1
 800531a:	2900      	cmp	r1, #0
 800531c:	d0b8      	beq.n	8005290 <HAL_UART_IRQHandler+0xd4>
 800531e:	8da1      	ldrh	r1, [r4, #44]	; 0x2c
 8005320:	1a09      	subs	r1, r1, r0
 8005322:	b289      	uxth	r1, r1
 8005324:	2900      	cmp	r1, #0
 8005326:	d0b3      	beq.n	8005290 <HAL_UART_IRQHandler+0xd4>
 8005328:	68d8      	ldr	r0, [r3, #12]
 800532a:	f420 7090 	bic.w	r0, r0, #288	; 0x120
 800532e:	60d8      	str	r0, [r3, #12]
 8005330:	6958      	ldr	r0, [r3, #20]
 8005332:	f020 0001 	bic.w	r0, r0, #1
 8005336:	6158      	str	r0, [r3, #20]
 8005338:	2020      	movs	r0, #32
 800533a:	f884 003e 	strb.w	r0, [r4, #62]	; 0x3e
 800533e:	6322      	str	r2, [r4, #48]	; 0x30
 8005340:	68da      	ldr	r2, [r3, #12]
 8005342:	f022 0210 	bic.w	r2, r2, #16
 8005346:	60da      	str	r2, [r3, #12]
 8005348:	6ea3      	ldr	r3, [r4, #104]	; 0x68
 800534a:	e7dd      	b.n	8005308 <HAL_UART_IRQHandler+0x14c>
 800534c:	0610      	lsls	r0, r2, #24
 800534e:	d526      	bpl.n	800539e <HAL_UART_IRQHandler+0x1e2>
 8005350:	060d      	lsls	r5, r1, #24
 8005352:	d524      	bpl.n	800539e <HAL_UART_IRQHandler+0x1e2>
 8005354:	f894 203d 	ldrb.w	r2, [r4, #61]	; 0x3d
 8005358:	2a21      	cmp	r2, #33	; 0x21
 800535a:	d199      	bne.n	8005290 <HAL_UART_IRQHandler+0xd4>
 800535c:	68a1      	ldr	r1, [r4, #8]
 800535e:	6a22      	ldr	r2, [r4, #32]
 8005360:	f5b1 5f80 	cmp.w	r1, #4096	; 0x1000
 8005364:	d116      	bne.n	8005394 <HAL_UART_IRQHandler+0x1d8>
 8005366:	6921      	ldr	r1, [r4, #16]
 8005368:	b9a1      	cbnz	r1, 8005394 <HAL_UART_IRQHandler+0x1d8>
 800536a:	f832 1b02 	ldrh.w	r1, [r2], #2
 800536e:	f3c1 0108 	ubfx	r1, r1, #0, #9
 8005372:	6059      	str	r1, [r3, #4]
 8005374:	6222      	str	r2, [r4, #32]
 8005376:	8ce2      	ldrh	r2, [r4, #38]	; 0x26
 8005378:	3a01      	subs	r2, #1
 800537a:	b292      	uxth	r2, r2
 800537c:	84e2      	strh	r2, [r4, #38]	; 0x26
 800537e:	2a00      	cmp	r2, #0
 8005380:	d186      	bne.n	8005290 <HAL_UART_IRQHandler+0xd4>
 8005382:	68da      	ldr	r2, [r3, #12]
 8005384:	f022 0280 	bic.w	r2, r2, #128	; 0x80
 8005388:	60da      	str	r2, [r3, #12]
 800538a:	68da      	ldr	r2, [r3, #12]
 800538c:	f042 0240 	orr.w	r2, r2, #64	; 0x40
 8005390:	60da      	str	r2, [r3, #12]
 8005392:	e77d      	b.n	8005290 <HAL_UART_IRQHandler+0xd4>
 8005394:	1c51      	adds	r1, r2, #1
 8005396:	6221      	str	r1, [r4, #32]
 8005398:	7812      	ldrb	r2, [r2, #0]
 800539a:	605a      	str	r2, [r3, #4]
 800539c:	e7eb      	b.n	8005376 <HAL_UART_IRQHandler+0x1ba>
 800539e:	0650      	lsls	r0, r2, #25
 80053a0:	f57f af76 	bpl.w	8005290 <HAL_UART_IRQHandler+0xd4>
 80053a4:	064a      	lsls	r2, r1, #25
 80053a6:	f57f af73 	bpl.w	8005290 <HAL_UART_IRQHandler+0xd4>
 80053aa:	68da      	ldr	r2, [r3, #12]
 80053ac:	f022 0240 	bic.w	r2, r2, #64	; 0x40
 80053b0:	60da      	str	r2, [r3, #12]
 80053b2:	2320      	movs	r3, #32
 80053b4:	f884 303d 	strb.w	r3, [r4, #61]	; 0x3d
 80053b8:	6ca3      	ldr	r3, [r4, #72]	; 0x48
 80053ba:	e763      	b.n	8005284 <HAL_UART_IRQHandler+0xc8>
 80053bc:	08004f39 	.word	0x08004f39

080053c0 <UART_InitCallbacksToDefault>:
 80053c0:	4b09      	ldr	r3, [pc, #36]	; (80053e8 <UART_InitCallbacksToDefault+0x28>)
 80053c2:	6443      	str	r3, [r0, #68]	; 0x44
 80053c4:	4b09      	ldr	r3, [pc, #36]	; (80053ec <UART_InitCallbacksToDefault+0x2c>)
 80053c6:	6483      	str	r3, [r0, #72]	; 0x48
 80053c8:	4b09      	ldr	r3, [pc, #36]	; (80053f0 <UART_InitCallbacksToDefault+0x30>)
 80053ca:	64c3      	str	r3, [r0, #76]	; 0x4c
 80053cc:	4b09      	ldr	r3, [pc, #36]	; (80053f4 <UART_InitCallbacksToDefault+0x34>)
 80053ce:	6503      	str	r3, [r0, #80]	; 0x50
 80053d0:	4b09      	ldr	r3, [pc, #36]	; (80053f8 <UART_InitCallbacksToDefault+0x38>)
 80053d2:	6543      	str	r3, [r0, #84]	; 0x54
 80053d4:	4b09      	ldr	r3, [pc, #36]	; (80053fc <UART_InitCallbacksToDefault+0x3c>)
 80053d6:	6583      	str	r3, [r0, #88]	; 0x58
 80053d8:	4b09      	ldr	r3, [pc, #36]	; (8005400 <UART_InitCallbacksToDefault+0x40>)
 80053da:	65c3      	str	r3, [r0, #92]	; 0x5c
 80053dc:	4b09      	ldr	r3, [pc, #36]	; (8005404 <UART_InitCallbacksToDefault+0x44>)
 80053de:	6603      	str	r3, [r0, #96]	; 0x60
 80053e0:	4b09      	ldr	r3, [pc, #36]	; (8005408 <UART_InitCallbacksToDefault+0x48>)
 80053e2:	6683      	str	r3, [r0, #104]	; 0x68
 80053e4:	4770      	bx	lr
 80053e6:	bf00      	nop
 80053e8:	08005107 	.word	0x08005107
 80053ec:	080019f9 	.word	0x080019f9
 80053f0:	08005109 	.word	0x08005109
 80053f4:	080019fd 	.word	0x080019fd
 80053f8:	0800510b 	.word	0x0800510b
 80053fc:	0800510d 	.word	0x0800510d
 8005400:	0800510f 	.word	0x0800510f
 8005404:	08005105 	.word	0x08005105
 8005408:	08004f0b 	.word	0x08004f0b

0800540c <HAL_UART_Init>:
 800540c:	b510      	push	{r4, lr}
 800540e:	4604      	mov	r4, r0
 8005410:	2800      	cmp	r0, #0
 8005412:	d06a      	beq.n	80054ea <HAL_UART_Init+0xde>
 8005414:	6981      	ldr	r1, [r0, #24]
 8005416:	6803      	ldr	r3, [r0, #0]
 8005418:	4a35      	ldr	r2, [pc, #212]	; (80054f0 <HAL_UART_Init+0xe4>)
 800541a:	2900      	cmp	r1, #0
 800541c:	d051      	beq.n	80054c2 <HAL_UART_Init+0xb6>
 800541e:	4293      	cmp	r3, r2
 8005420:	d00c      	beq.n	800543c <HAL_UART_Init+0x30>
 8005422:	f5a2 4274 	sub.w	r2, r2, #62464	; 0xf400
 8005426:	4293      	cmp	r3, r2
 8005428:	d008      	beq.n	800543c <HAL_UART_Init+0x30>
 800542a:	f502 6280 	add.w	r2, r2, #1024	; 0x400
 800542e:	4293      	cmp	r3, r2
 8005430:	d004      	beq.n	800543c <HAL_UART_Init+0x30>
 8005432:	f44f 71b6 	mov.w	r1, #364	; 0x16c
 8005436:	482f      	ldr	r0, [pc, #188]	; (80054f4 <HAL_UART_Init+0xe8>)
 8005438:	f7fc faf0 	bl	8001a1c <assert_failed>
 800543c:	69a3      	ldr	r3, [r4, #24]
 800543e:	f433 7340 	bics.w	r3, r3, #768	; 0x300
 8005442:	d004      	beq.n	800544e <HAL_UART_Init+0x42>
 8005444:	f240 116d 	movw	r1, #365	; 0x16d
 8005448:	482a      	ldr	r0, [pc, #168]	; (80054f4 <HAL_UART_Init+0xe8>)
 800544a:	f7fc fae7 	bl	8001a1c <assert_failed>
 800544e:	68a3      	ldr	r3, [r4, #8]
 8005450:	f433 5380 	bics.w	r3, r3, #4096	; 0x1000
 8005454:	d004      	beq.n	8005460 <HAL_UART_Init+0x54>
 8005456:	f240 1173 	movw	r1, #371	; 0x173
 800545a:	4826      	ldr	r0, [pc, #152]	; (80054f4 <HAL_UART_Init+0xe8>)
 800545c:	f7fc fade 	bl	8001a1c <assert_failed>
 8005460:	f894 303d 	ldrb.w	r3, [r4, #61]	; 0x3d
 8005464:	f003 02ff 	and.w	r2, r3, #255	; 0xff
 8005468:	b95b      	cbnz	r3, 8005482 <HAL_UART_Init+0x76>
 800546a:	4620      	mov	r0, r4
 800546c:	f884 203c 	strb.w	r2, [r4, #60]	; 0x3c
 8005470:	f7ff ffa6 	bl	80053c0 <UART_InitCallbacksToDefault>
 8005474:	6ee3      	ldr	r3, [r4, #108]	; 0x6c
 8005476:	b90b      	cbnz	r3, 800547c <HAL_UART_Init+0x70>
 8005478:	4b1f      	ldr	r3, [pc, #124]	; (80054f8 <HAL_UART_Init+0xec>)
 800547a:	66e3      	str	r3, [r4, #108]	; 0x6c
 800547c:	4620      	mov	r0, r4
 800547e:	6ee3      	ldr	r3, [r4, #108]	; 0x6c
 8005480:	4798      	blx	r3
 8005482:	2324      	movs	r3, #36	; 0x24
 8005484:	6822      	ldr	r2, [r4, #0]
 8005486:	f884 303d 	strb.w	r3, [r4, #61]	; 0x3d
 800548a:	68d3      	ldr	r3, [r2, #12]
 800548c:	4620      	mov	r0, r4
 800548e:	f423 5300 	bic.w	r3, r3, #8192	; 0x2000
 8005492:	60d3      	str	r3, [r2, #12]
 8005494:	f7ff fd56 	bl	8004f44 <UART_SetConfig>
 8005498:	6823      	ldr	r3, [r4, #0]
 800549a:	2000      	movs	r0, #0
 800549c:	691a      	ldr	r2, [r3, #16]
 800549e:	f422 4290 	bic.w	r2, r2, #18432	; 0x4800
 80054a2:	611a      	str	r2, [r3, #16]
 80054a4:	695a      	ldr	r2, [r3, #20]
 80054a6:	f022 022a 	bic.w	r2, r2, #42	; 0x2a
 80054aa:	615a      	str	r2, [r3, #20]
 80054ac:	68da      	ldr	r2, [r3, #12]
 80054ae:	f442 5200 	orr.w	r2, r2, #8192	; 0x2000
 80054b2:	60da      	str	r2, [r3, #12]
 80054b4:	2320      	movs	r3, #32
 80054b6:	6420      	str	r0, [r4, #64]	; 0x40
 80054b8:	f884 303d 	strb.w	r3, [r4, #61]	; 0x3d
 80054bc:	f884 303e 	strb.w	r3, [r4, #62]	; 0x3e
 80054c0:	bd10      	pop	{r4, pc}
 80054c2:	4293      	cmp	r3, r2
 80054c4:	d0c3      	beq.n	800544e <HAL_UART_Init+0x42>
 80054c6:	4a0d      	ldr	r2, [pc, #52]	; (80054fc <HAL_UART_Init+0xf0>)
 80054c8:	4293      	cmp	r3, r2
 80054ca:	d0c0      	beq.n	800544e <HAL_UART_Init+0x42>
 80054cc:	f502 6280 	add.w	r2, r2, #1024	; 0x400
 80054d0:	4293      	cmp	r3, r2
 80054d2:	d0bc      	beq.n	800544e <HAL_UART_Init+0x42>
 80054d4:	f502 6280 	add.w	r2, r2, #1024	; 0x400
 80054d8:	4293      	cmp	r3, r2
 80054da:	d0b8      	beq.n	800544e <HAL_UART_Init+0x42>
 80054dc:	f502 6280 	add.w	r2, r2, #1024	; 0x400
 80054e0:	4293      	cmp	r3, r2
 80054e2:	d0b4      	beq.n	800544e <HAL_UART_Init+0x42>
 80054e4:	f240 1171 	movw	r1, #369	; 0x171
 80054e8:	e7ae      	b.n	8005448 <HAL_UART_Init+0x3c>
 80054ea:	2001      	movs	r0, #1
 80054ec:	e7e8      	b.n	80054c0 <HAL_UART_Init+0xb4>
 80054ee:	bf00      	nop
 80054f0:	40013800 	.word	0x40013800
 80054f4:	08009dc3 	.word	0x08009dc3
 80054f8:	08001d89 	.word	0x08001d89
 80054fc:	40004400 	.word	0x40004400

08005500 <UART_Start_Receive_IT>:
 8005500:	85c2      	strh	r2, [r0, #46]	; 0x2e
 8005502:	8582      	strh	r2, [r0, #44]	; 0x2c
 8005504:	6281      	str	r1, [r0, #40]	; 0x28
 8005506:	4603      	mov	r3, r0
 8005508:	2222      	movs	r2, #34	; 0x22
 800550a:	2000      	movs	r0, #0
 800550c:	6418      	str	r0, [r3, #64]	; 0x40
 800550e:	f883 003c 	strb.w	r0, [r3, #60]	; 0x3c
 8005512:	f883 203e 	strb.w	r2, [r3, #62]	; 0x3e
 8005516:	681b      	ldr	r3, [r3, #0]
 8005518:	68da      	ldr	r2, [r3, #12]
 800551a:	f442 7280 	orr.w	r2, r2, #256	; 0x100
 800551e:	60da      	str	r2, [r3, #12]
 8005520:	695a      	ldr	r2, [r3, #20]
 8005522:	f042 0201 	orr.w	r2, r2, #1
 8005526:	615a      	str	r2, [r3, #20]
 8005528:	68da      	ldr	r2, [r3, #12]
 800552a:	f042 0220 	orr.w	r2, r2, #32
 800552e:	60da      	str	r2, [r3, #12]
 8005530:	4770      	bx	lr

08005532 <HAL_UART_Receive_IT>:
 8005532:	b470      	push	{r4, r5, r6}
 8005534:	f890 603e 	ldrb.w	r6, [r0, #62]	; 0x3e
 8005538:	2e20      	cmp	r6, #32
 800553a:	d110      	bne.n	800555e <HAL_UART_Receive_IT+0x2c>
 800553c:	b161      	cbz	r1, 8005558 <HAL_UART_Receive_IT+0x26>
 800553e:	b15a      	cbz	r2, 8005558 <HAL_UART_Receive_IT+0x26>
 8005540:	f890 403c 	ldrb.w	r4, [r0, #60]	; 0x3c
 8005544:	2c01      	cmp	r4, #1
 8005546:	d00a      	beq.n	800555e <HAL_UART_Receive_IT+0x2c>
 8005548:	2401      	movs	r4, #1
 800554a:	f880 403c 	strb.w	r4, [r0, #60]	; 0x3c
 800554e:	2400      	movs	r4, #0
 8005550:	6304      	str	r4, [r0, #48]	; 0x30
 8005552:	bc70      	pop	{r4, r5, r6}
 8005554:	f7ff bfd4 	b.w	8005500 <UART_Start_Receive_IT>
 8005558:	2001      	movs	r0, #1
 800555a:	bc70      	pop	{r4, r5, r6}
 800555c:	4770      	bx	lr
 800555e:	2002      	movs	r0, #2
 8005560:	e7fb      	b.n	800555a <HAL_UART_Receive_IT+0x28>
	...

08005564 <BAT_init>:
 8005564:	4b01      	ldr	r3, [pc, #4]	; (800556c <BAT_init+0x8>)
 8005566:	6018      	str	r0, [r3, #0]
 8005568:	4770      	bx	lr
 800556a:	bf00      	nop
 800556c:	2000021c 	.word	0x2000021c

08005570 <BLU_sendCommand>:
 8005570:	2301      	movs	r3, #1
 8005572:	b573      	push	{r0, r1, r4, r5, r6, lr}
 8005574:	4606      	mov	r6, r0
 8005576:	4d19      	ldr	r5, [pc, #100]	; (80055dc <BLU_sendCommand+0x6c>)
 8005578:	4c19      	ldr	r4, [pc, #100]	; (80055e0 <BLU_sendCommand+0x70>)
 800557a:	f8ad 3006 	strh.w	r3, [sp, #6]
 800557e:	f8bd 3006 	ldrh.w	r3, [sp, #6]
 8005582:	b29b      	uxth	r3, r3
 8005584:	2bff      	cmp	r3, #255	; 0xff
 8005586:	d905      	bls.n	8005594 <BLU_sendCommand+0x24>
 8005588:	2010      	movs	r0, #16
 800558a:	b002      	add	sp, #8
 800558c:	e8bd 4070 	ldmia.w	sp!, {r4, r5, r6, lr}
 8005590:	f001 b98a 	b.w	80068a8 <UTI_delayUs>
 8005594:	f8bd 3006 	ldrh.w	r3, [sp, #6]
 8005598:	2005      	movs	r0, #5
 800559a:	421e      	tst	r6, r3
 800559c:	68eb      	ldr	r3, [r5, #12]
 800559e:	bf14      	ite	ne
 80055a0:	f043 0302 	orrne.w	r3, r3, #2
 80055a4:	f023 0302 	biceq.w	r3, r3, #2
 80055a8:	60eb      	str	r3, [r5, #12]
 80055aa:	68e3      	ldr	r3, [r4, #12]
 80055ac:	f043 0310 	orr.w	r3, r3, #16
 80055b0:	60e3      	str	r3, [r4, #12]
 80055b2:	f001 f979 	bl	80068a8 <UTI_delayUs>
 80055b6:	68e3      	ldr	r3, [r4, #12]
 80055b8:	2005      	movs	r0, #5
 80055ba:	f023 0310 	bic.w	r3, r3, #16
 80055be:	60e3      	str	r3, [r4, #12]
 80055c0:	f001 f972 	bl	80068a8 <UTI_delayUs>
 80055c4:	68e3      	ldr	r3, [r4, #12]
 80055c6:	f043 0310 	orr.w	r3, r3, #16
 80055ca:	60e3      	str	r3, [r4, #12]
 80055cc:	f8bd 3006 	ldrh.w	r3, [sp, #6]
 80055d0:	b29b      	uxth	r3, r3
 80055d2:	005b      	lsls	r3, r3, #1
 80055d4:	b29b      	uxth	r3, r3
 80055d6:	f8ad 3006 	strh.w	r3, [sp, #6]
 80055da:	e7d0      	b.n	800557e <BLU_sendCommand+0xe>
 80055dc:	40011000 	.word	0x40011000
 80055e0:	40010800 	.word	0x40010800

080055e4 <BLU_initData>:
 80055e4:	2380      	movs	r3, #128	; 0x80
 80055e6:	e9c0 3300 	strd	r3, r3, [r0]
 80055ea:	e9c0 3302 	strd	r3, r3, [r0, #8]
 80055ee:	2300      	movs	r3, #0
 80055f0:	7403      	strb	r3, [r0, #16]
 80055f2:	4770      	bx	lr

080055f4 <BLU_init>:
 80055f4:	4801      	ldr	r0, [pc, #4]	; (80055fc <BLU_init+0x8>)
 80055f6:	f7ff bff5 	b.w	80055e4 <BLU_initData>
 80055fa:	bf00      	nop
 80055fc:	20000220 	.word	0x20000220

08005600 <BLU_receiveData>:
 8005600:	2300      	movs	r3, #0
 8005602:	e92d 41f0 	stmdb	sp!, {r4, r5, r6, r7, r8, lr}
 8005606:	461a      	mov	r2, r3
 8005608:	4605      	mov	r5, r0
 800560a:	b08a      	sub	sp, #40	; 0x28
 800560c:	f88d 3009 	strb.w	r3, [sp, #9]
 8005610:	f89d 3009 	ldrb.w	r3, [sp, #9]
 8005614:	2b06      	cmp	r3, #6
 8005616:	d951      	bls.n	80056bc <BLU_receiveData+0xbc>
 8005618:	4c6d      	ldr	r4, [pc, #436]	; (80057d0 <BLU_receiveData+0x1d0>)
 800561a:	2001      	movs	r0, #1
 800561c:	68e3      	ldr	r3, [r4, #12]
 800561e:	2701      	movs	r7, #1
 8005620:	f023 0308 	bic.w	r3, r3, #8
 8005624:	60e3      	str	r3, [r4, #12]
 8005626:	f7ff ffa3 	bl	8005570 <BLU_sendCommand>
 800562a:	2042      	movs	r0, #66	; 0x42
 800562c:	f7ff ffa0 	bl	8005570 <BLU_sendCommand>
 8005630:	2300      	movs	r3, #0
 8005632:	4e68      	ldr	r6, [pc, #416]	; (80057d4 <BLU_receiveData+0x1d4>)
 8005634:	f88d 3009 	strb.w	r3, [sp, #9]
 8005638:	f89d 3009 	ldrb.w	r3, [sp, #9]
 800563c:	2b06      	cmp	r3, #6
 800563e:	d94a      	bls.n	80056d6 <BLU_receiveData+0xd6>
 8005640:	68e3      	ldr	r3, [r4, #12]
 8005642:	f043 0308 	orr.w	r3, r3, #8
 8005646:	60e3      	str	r3, [r4, #12]
 8005648:	f89d 300e 	ldrb.w	r3, [sp, #14]
 800564c:	f89d 400d 	ldrb.w	r4, [sp, #13]
 8005650:	f89d 0011 	ldrb.w	r0, [sp, #17]
 8005654:	ea44 2403 	orr.w	r4, r4, r3, lsl #8
 8005658:	2300      	movs	r3, #0
 800565a:	f89d 6012 	ldrb.w	r6, [sp, #18]
 800565e:	f89d 100f 	ldrb.w	r1, [sp, #15]
 8005662:	f89d 2010 	ldrb.w	r2, [sp, #16]
 8005666:	9005      	str	r0, [sp, #20]
 8005668:	9606      	str	r6, [sp, #24]
 800566a:	9107      	str	r1, [sp, #28]
 800566c:	9208      	str	r2, [sp, #32]
 800566e:	f103 0c01 	add.w	ip, r3, #1
 8005672:	fa44 f303 	asr.w	r3, r4, r3
 8005676:	07db      	lsls	r3, r3, #31
 8005678:	fa5f f78c 	uxtb.w	r7, ip
 800567c:	d503      	bpl.n	8005686 <BLU_receiveData+0x86>
 800567e:	4663      	mov	r3, ip
 8005680:	2b10      	cmp	r3, #16
 8005682:	d1f4      	bne.n	800566e <BLU_receiveData+0x6e>
 8005684:	2700      	movs	r7, #0
 8005686:	28ff      	cmp	r0, #255	; 0xff
 8005688:	4c53      	ldr	r4, [pc, #332]	; (80057d8 <BLU_receiveData+0x1d8>)
 800568a:	f88d 7024 	strb.w	r7, [sp, #36]	; 0x24
 800568e:	d15b      	bne.n	8005748 <BLU_receiveData+0x148>
 8005690:	ea06 0301 	and.w	r3, r6, r1
 8005694:	4013      	ands	r3, r2
 8005696:	2bff      	cmp	r3, #255	; 0xff
 8005698:	d15b      	bne.n	8005752 <BLU_receiveData+0x152>
 800569a:	a805      	add	r0, sp, #20
 800569c:	f7ff ffa2 	bl	80055e4 <BLU_initData>
 80056a0:	9b05      	ldr	r3, [sp, #20]
 80056a2:	6023      	str	r3, [r4, #0]
 80056a4:	9b06      	ldr	r3, [sp, #24]
 80056a6:	6063      	str	r3, [r4, #4]
 80056a8:	9b07      	ldr	r3, [sp, #28]
 80056aa:	60a3      	str	r3, [r4, #8]
 80056ac:	9b08      	ldr	r3, [sp, #32]
 80056ae:	60e3      	str	r3, [r4, #12]
 80056b0:	f89d 3024 	ldrb.w	r3, [sp, #36]	; 0x24
 80056b4:	7423      	strb	r3, [r4, #16]
 80056b6:	b00a      	add	sp, #40	; 0x28
 80056b8:	e8bd 81f0 	ldmia.w	sp!, {r4, r5, r6, r7, r8, pc}
 80056bc:	f89d 3009 	ldrb.w	r3, [sp, #9]
 80056c0:	a90a      	add	r1, sp, #40	; 0x28
 80056c2:	440b      	add	r3, r1
 80056c4:	f803 2c1c 	strb.w	r2, [r3, #-28]
 80056c8:	f89d 3009 	ldrb.w	r3, [sp, #9]
 80056cc:	3301      	adds	r3, #1
 80056ce:	b2db      	uxtb	r3, r3
 80056d0:	f88d 3009 	strb.w	r3, [sp, #9]
 80056d4:	e79c      	b.n	8005610 <BLU_receiveData+0x10>
 80056d6:	f8ad 700a 	strh.w	r7, [sp, #10]
 80056da:	f10d 080c 	add.w	r8, sp, #12
 80056de:	f8bd 300a 	ldrh.w	r3, [sp, #10]
 80056e2:	b29b      	uxth	r3, r3
 80056e4:	2bff      	cmp	r3, #255	; 0xff
 80056e6:	d909      	bls.n	80056fc <BLU_receiveData+0xfc>
 80056e8:	2010      	movs	r0, #16
 80056ea:	f001 f8dd 	bl	80068a8 <UTI_delayUs>
 80056ee:	f89d 3009 	ldrb.w	r3, [sp, #9]
 80056f2:	3301      	adds	r3, #1
 80056f4:	b2db      	uxtb	r3, r3
 80056f6:	f88d 3009 	strb.w	r3, [sp, #9]
 80056fa:	e79d      	b.n	8005638 <BLU_receiveData+0x38>
 80056fc:	68f3      	ldr	r3, [r6, #12]
 80056fe:	2005      	movs	r0, #5
 8005700:	f043 0310 	orr.w	r3, r3, #16
 8005704:	60f3      	str	r3, [r6, #12]
 8005706:	f001 f8cf 	bl	80068a8 <UTI_delayUs>
 800570a:	68f3      	ldr	r3, [r6, #12]
 800570c:	2005      	movs	r0, #5
 800570e:	f023 0310 	bic.w	r3, r3, #16
 8005712:	60f3      	str	r3, [r6, #12]
 8005714:	f001 f8c8 	bl	80068a8 <UTI_delayUs>
 8005718:	68f3      	ldr	r3, [r6, #12]
 800571a:	f043 0310 	orr.w	r3, r3, #16
 800571e:	60f3      	str	r3, [r6, #12]
 8005720:	68a3      	ldr	r3, [r4, #8]
 8005722:	075a      	lsls	r2, r3, #29
 8005724:	d508      	bpl.n	8005738 <BLU_receiveData+0x138>
 8005726:	f8bd 100a 	ldrh.w	r1, [sp, #10]
 800572a:	f89d 2009 	ldrb.w	r2, [sp, #9]
 800572e:	f818 3002 	ldrb.w	r3, [r8, r2]
 8005732:	430b      	orrs	r3, r1
 8005734:	f808 3002 	strb.w	r3, [r8, r2]
 8005738:	f8bd 300a 	ldrh.w	r3, [sp, #10]
 800573c:	b29b      	uxth	r3, r3
 800573e:	005b      	lsls	r3, r3, #1
 8005740:	b29b      	uxth	r3, r3
 8005742:	f8ad 300a 	strh.w	r3, [sp, #10]
 8005746:	e7ca      	b.n	80056de <BLU_receiveData+0xde>
 8005748:	ea40 0306 	orr.w	r3, r0, r6
 800574c:	430b      	orrs	r3, r1
 800574e:	4313      	orrs	r3, r2
 8005750:	d0a3      	beq.n	800569a <BLU_receiveData+0x9a>
 8005752:	6823      	ldr	r3, [r4, #0]
 8005754:	4298      	cmp	r0, r3
 8005756:	d1a3      	bne.n	80056a0 <BLU_receiveData+0xa0>
 8005758:	6863      	ldr	r3, [r4, #4]
 800575a:	429e      	cmp	r6, r3
 800575c:	d1a0      	bne.n	80056a0 <BLU_receiveData+0xa0>
 800575e:	68a3      	ldr	r3, [r4, #8]
 8005760:	4299      	cmp	r1, r3
 8005762:	d19d      	bne.n	80056a0 <BLU_receiveData+0xa0>
 8005764:	68e3      	ldr	r3, [r4, #12]
 8005766:	429a      	cmp	r2, r3
 8005768:	d19a      	bne.n	80056a0 <BLU_receiveData+0xa0>
 800576a:	7c23      	ldrb	r3, [r4, #16]
 800576c:	42bb      	cmp	r3, r7
 800576e:	d197      	bne.n	80056a0 <BLU_receiveData+0xa0>
 8005770:	2600      	movs	r6, #0
 8005772:	2728      	movs	r7, #40	; 0x28
 8005774:	f06f 0327 	mvn.w	r3, #39	; 0x27
 8005778:	22ff      	movs	r2, #255	; 0xff
 800577a:	4631      	mov	r1, r6
 800577c:	e9cd 7600 	strd	r7, r6, [sp]
 8005780:	f001 f8c5 	bl	800690e <UTI_normalizeIntValue>
 8005784:	f04f 0801 	mov.w	r8, #1
 8005788:	f06f 0327 	mvn.w	r3, #39	; 0x27
 800578c:	22ff      	movs	r2, #255	; 0xff
 800578e:	4631      	mov	r1, r6
 8005790:	6028      	str	r0, [r5, #0]
 8005792:	e9cd 7800 	strd	r7, r8, [sp]
 8005796:	9806      	ldr	r0, [sp, #24]
 8005798:	f001 f8b9 	bl	800690e <UTI_normalizeIntValue>
 800579c:	f06f 0327 	mvn.w	r3, #39	; 0x27
 80057a0:	22ff      	movs	r2, #255	; 0xff
 80057a2:	4631      	mov	r1, r6
 80057a4:	6068      	str	r0, [r5, #4]
 80057a6:	e9cd 7600 	strd	r7, r6, [sp]
 80057aa:	9807      	ldr	r0, [sp, #28]
 80057ac:	f001 f8af 	bl	800690e <UTI_normalizeIntValue>
 80057b0:	f06f 0327 	mvn.w	r3, #39	; 0x27
 80057b4:	60a8      	str	r0, [r5, #8]
 80057b6:	22ff      	movs	r2, #255	; 0xff
 80057b8:	4631      	mov	r1, r6
 80057ba:	e9cd 7800 	strd	r7, r8, [sp]
 80057be:	9808      	ldr	r0, [sp, #32]
 80057c0:	f001 f8a5 	bl	800690e <UTI_normalizeIntValue>
 80057c4:	f89d 3024 	ldrb.w	r3, [sp, #36]	; 0x24
 80057c8:	60e8      	str	r0, [r5, #12]
 80057ca:	742b      	strb	r3, [r5, #16]
 80057cc:	e768      	b.n	80056a0 <BLU_receiveData+0xa0>
 80057ce:	bf00      	nop
 80057d0:	40011000 	.word	0x40011000
 80057d4:	40010800 	.word	0x40010800
 80057d8:	20000220 	.word	0x20000220

080057dc <CBU_init>:
 80057dc:	2100      	movs	r1, #0
 80057de:	1f03      	subs	r3, r0, #4
 80057e0:	f100 0224 	add.w	r2, r0, #36	; 0x24
 80057e4:	f843 1f04 	str.w	r1, [r3, #4]!
 80057e8:	4293      	cmp	r3, r2
 80057ea:	d1fb      	bne.n	80057e4 <CBU_init+0x8>
 80057ec:	2300      	movs	r3, #0
 80057ee:	e9c0 330a 	strd	r3, r3, [r0, #40]	; 0x28
 80057f2:	4770      	bx	lr

080057f4 <CBU_push>:
 80057f4:	6a83      	ldr	r3, [r0, #40]	; 0x28
 80057f6:	2b09      	cmp	r3, #9
 80057f8:	bf0c      	ite	eq
 80057fa:	2300      	moveq	r3, #0
 80057fc:	3301      	addne	r3, #1
 80057fe:	6283      	str	r3, [r0, #40]	; 0x28
 8005800:	f840 1023 	str.w	r1, [r0, r3, lsl #2]
 8005804:	6ac3      	ldr	r3, [r0, #44]	; 0x2c
 8005806:	2b09      	cmp	r3, #9
 8005808:	bf9c      	itt	ls
 800580a:	3301      	addls	r3, #1
 800580c:	62c3      	strls	r3, [r0, #44]	; 0x2c
 800580e:	4770      	bx	lr

08005810 <CBU_getAverage>:
 8005810:	e92d 41f0 	stmdb	sp!, {r4, r5, r6, r7, r8, lr}
 8005814:	e9d0 580a 	ldrd	r5, r8, [r0, #40]	; 0x28
 8005818:	4606      	mov	r6, r0
 800581a:	2400      	movs	r4, #0
 800581c:	2700      	movs	r7, #0
 800581e:	45b8      	cmp	r8, r7
 8005820:	d108      	bne.n	8005834 <CBU_getAverage+0x24>
 8005822:	4640      	mov	r0, r8
 8005824:	f7fb fa84 	bl	8000d30 <__aeabi_ui2f>
 8005828:	4601      	mov	r1, r0
 800582a:	4620      	mov	r0, r4
 800582c:	f7fb fb8c 	bl	8000f48 <__aeabi_fdiv>
 8005830:	e8bd 81f0 	ldmia.w	sp!, {r4, r5, r6, r7, r8, pc}
 8005834:	f856 1025 	ldr.w	r1, [r6, r5, lsl #2]
 8005838:	4620      	mov	r0, r4
 800583a:	f7fb f9c9 	bl	8000bd0 <__addsf3>
 800583e:	2d09      	cmp	r5, #9
 8005840:	4604      	mov	r4, r0
 8005842:	bf0c      	ite	eq
 8005844:	2500      	moveq	r5, #0
 8005846:	3501      	addne	r5, #1
 8005848:	3701      	adds	r7, #1
 800584a:	e7e8      	b.n	800581e <CBU_getAverage+0xe>

0800584c <CON_init>:
 800584c:	2300      	movs	r3, #0
 800584e:	b510      	push	{r4, lr}
 8005850:	4a07      	ldr	r2, [pc, #28]	; (8005870 <CON_init+0x24>)
 8005852:	4c08      	ldr	r4, [pc, #32]	; (8005874 <CON_init+0x28>)
 8005854:	6013      	str	r3, [r2, #0]
 8005856:	4a08      	ldr	r2, [pc, #32]	; (8005878 <CON_init+0x2c>)
 8005858:	6020      	str	r0, [r4, #0]
 800585a:	4808      	ldr	r0, [pc, #32]	; (800587c <CON_init+0x30>)
 800585c:	7013      	strb	r3, [r2, #0]
 800585e:	f000 ffd4 	bl	800680a <SFO_initData>
 8005862:	6820      	ldr	r0, [r4, #0]
 8005864:	2201      	movs	r2, #1
 8005866:	e8bd 4010 	ldmia.w	sp!, {r4, lr}
 800586a:	4905      	ldr	r1, [pc, #20]	; (8005880 <CON_init+0x34>)
 800586c:	f7ff be61 	b.w	8005532 <HAL_UART_Receive_IT>
 8005870:	20000244 	.word	0x20000244
 8005874:	2000024c 	.word	0x2000024c
 8005878:	20000249 	.word	0x20000249
 800587c:	20000234 	.word	0x20000234
 8005880:	20000248 	.word	0x20000248

08005884 <CON_receiveData>:
 8005884:	4b0a      	ldr	r3, [pc, #40]	; (80058b0 <CON_receiveData+0x2c>)
 8005886:	781a      	ldrb	r2, [r3, #0]
 8005888:	b962      	cbnz	r2, 80058a4 <CON_receiveData+0x20>
 800588a:	4a0a      	ldr	r2, [pc, #40]	; (80058b4 <CON_receiveData+0x30>)
 800588c:	7811      	ldrb	r1, [r2, #0]
 800588e:	290d      	cmp	r1, #13
 8005890:	bf0f      	iteee	eq
 8005892:	2201      	moveq	r2, #1
 8005894:	4a08      	ldrne	r2, [pc, #32]	; (80058b8 <CON_receiveData+0x34>)
 8005896:	4809      	ldrne	r0, [pc, #36]	; (80058bc <CON_receiveData+0x38>)
 8005898:	6813      	ldrne	r3, [r2, #0]
 800589a:	bf0f      	iteee	eq
 800589c:	701a      	strbeq	r2, [r3, #0]
 800589e:	54c1      	strbne	r1, [r0, r3]
 80058a0:	3301      	addne	r3, #1
 80058a2:	6013      	strne	r3, [r2, #0]
 80058a4:	4b06      	ldr	r3, [pc, #24]	; (80058c0 <CON_receiveData+0x3c>)
 80058a6:	2201      	movs	r2, #1
 80058a8:	4902      	ldr	r1, [pc, #8]	; (80058b4 <CON_receiveData+0x30>)
 80058aa:	6818      	ldr	r0, [r3, #0]
 80058ac:	f7ff be41 	b.w	8005532 <HAL_UART_Receive_IT>
 80058b0:	20000249 	.word	0x20000249
 80058b4:	20000248 	.word	0x20000248
 80058b8:	20000244 	.word	0x20000244
 80058bc:	20000234 	.word	0x20000234
 80058c0:	2000024c 	.word	0x2000024c

080058c4 <CON_updateFifo>:
 80058c4:	b510      	push	{r4, lr}
 80058c6:	4c07      	ldr	r4, [pc, #28]	; (80058e4 <CON_updateFifo+0x20>)
 80058c8:	7823      	ldrb	r3, [r4, #0]
 80058ca:	b14b      	cbz	r3, 80058e0 <CON_updateFifo+0x1c>
 80058cc:	4906      	ldr	r1, [pc, #24]	; (80058e8 <CON_updateFifo+0x24>)
 80058ce:	f000 ffa5 	bl	800681c <SFO_push>
 80058d2:	4805      	ldr	r0, [pc, #20]	; (80058e8 <CON_updateFifo+0x24>)
 80058d4:	f000 ff99 	bl	800680a <SFO_initData>
 80058d8:	2300      	movs	r3, #0
 80058da:	4a04      	ldr	r2, [pc, #16]	; (80058ec <CON_updateFifo+0x28>)
 80058dc:	7023      	strb	r3, [r4, #0]
 80058de:	6013      	str	r3, [r2, #0]
 80058e0:	bd10      	pop	{r4, pc}
 80058e2:	bf00      	nop
 80058e4:	20000249 	.word	0x20000249
 80058e8:	20000234 	.word	0x20000234
 80058ec:	20000244 	.word	0x20000244

080058f0 <CON_sendString>:
 80058f0:	b28a      	uxth	r2, r1
 80058f2:	4601      	mov	r1, r0
 80058f4:	4802      	ldr	r0, [pc, #8]	; (8005900 <CON_sendString+0x10>)
 80058f6:	f44f 737a 	mov.w	r3, #1000	; 0x3e8
 80058fa:	6800      	ldr	r0, [r0, #0]
 80058fc:	f7ff bc08 	b.w	8005110 <HAL_UART_Transmit>
 8005900:	2000024c 	.word	0x2000024c

08005904 <DRV_setDirectionsForward>:
 8005904:	b508      	push	{r3, lr}
 8005906:	2101      	movs	r1, #1
 8005908:	4808      	ldr	r0, [pc, #32]	; (800592c <DRV_setDirectionsForward+0x28>)
 800590a:	f000 fe8f 	bl	800662c <MTR_setDirection>
 800590e:	2101      	movs	r1, #1
 8005910:	4807      	ldr	r0, [pc, #28]	; (8005930 <DRV_setDirectionsForward+0x2c>)
 8005912:	f000 fe8b 	bl	800662c <MTR_setDirection>
 8005916:	2101      	movs	r1, #1
 8005918:	4806      	ldr	r0, [pc, #24]	; (8005934 <DRV_setDirectionsForward+0x30>)
 800591a:	f000 fe87 	bl	800662c <MTR_setDirection>
 800591e:	e8bd 4008 	ldmia.w	sp!, {r3, lr}
 8005922:	2101      	movs	r1, #1
 8005924:	4804      	ldr	r0, [pc, #16]	; (8005938 <DRV_setDirectionsForward+0x34>)
 8005926:	f000 be81 	b.w	800662c <MTR_setDirection>
 800592a:	bf00      	nop
 800592c:	200002bc 	.word	0x200002bc
 8005930:	20000298 	.word	0x20000298
 8005934:	20000304 	.word	0x20000304
 8005938:	200002e0 	.word	0x200002e0

0800593c <DRV_setDirectionsBackward>:
 800593c:	b508      	push	{r3, lr}
 800593e:	2102      	movs	r1, #2
 8005940:	4808      	ldr	r0, [pc, #32]	; (8005964 <DRV_setDirectionsBackward+0x28>)
 8005942:	f000 fe73 	bl	800662c <MTR_setDirection>
 8005946:	2102      	movs	r1, #2
 8005948:	4807      	ldr	r0, [pc, #28]	; (8005968 <DRV_setDirectionsBackward+0x2c>)
 800594a:	f000 fe6f 	bl	800662c <MTR_setDirection>
 800594e:	2102      	movs	r1, #2
 8005950:	4806      	ldr	r0, [pc, #24]	; (800596c <DRV_setDirectionsBackward+0x30>)
 8005952:	f000 fe6b 	bl	800662c <MTR_setDirection>
 8005956:	e8bd 4008 	ldmia.w	sp!, {r3, lr}
 800595a:	2102      	movs	r1, #2
 800595c:	4804      	ldr	r0, [pc, #16]	; (8005970 <DRV_setDirectionsBackward+0x34>)
 800595e:	f000 be65 	b.w	800662c <MTR_setDirection>
 8005962:	bf00      	nop
 8005964:	200002bc 	.word	0x200002bc
 8005968:	20000298 	.word	0x20000298
 800596c:	20000304 	.word	0x20000304
 8005970:	200002e0 	.word	0x200002e0

08005974 <DRV_setDirectionsTurnLeft>:
 8005974:	b508      	push	{r3, lr}
 8005976:	2101      	movs	r1, #1
 8005978:	4808      	ldr	r0, [pc, #32]	; (800599c <DRV_setDirectionsTurnLeft+0x28>)
 800597a:	f000 fe57 	bl	800662c <MTR_setDirection>
 800597e:	2102      	movs	r1, #2
 8005980:	4807      	ldr	r0, [pc, #28]	; (80059a0 <DRV_setDirectionsTurnLeft+0x2c>)
 8005982:	f000 fe53 	bl	800662c <MTR_setDirection>
 8005986:	2101      	movs	r1, #1
 8005988:	4806      	ldr	r0, [pc, #24]	; (80059a4 <DRV_setDirectionsTurnLeft+0x30>)
 800598a:	f000 fe4f 	bl	800662c <MTR_setDirection>
 800598e:	e8bd 4008 	ldmia.w	sp!, {r3, lr}
 8005992:	2102      	movs	r1, #2
 8005994:	4804      	ldr	r0, [pc, #16]	; (80059a8 <DRV_setDirectionsTurnLeft+0x34>)
 8005996:	f000 be49 	b.w	800662c <MTR_setDirection>
 800599a:	bf00      	nop
 800599c:	200002bc 	.word	0x200002bc
 80059a0:	20000298 	.word	0x20000298
 80059a4:	20000304 	.word	0x20000304
 80059a8:	200002e0 	.word	0x200002e0

080059ac <DRV_setDirectionsTurnRight>:
 80059ac:	b508      	push	{r3, lr}
 80059ae:	2102      	movs	r1, #2
 80059b0:	4808      	ldr	r0, [pc, #32]	; (80059d4 <DRV_setDirectionsTurnRight+0x28>)
 80059b2:	f000 fe3b 	bl	800662c <MTR_setDirection>
 80059b6:	2101      	movs	r1, #1
 80059b8:	4807      	ldr	r0, [pc, #28]	; (80059d8 <DRV_setDirectionsTurnRight+0x2c>)
 80059ba:	f000 fe37 	bl	800662c <MTR_setDirection>
 80059be:	2102      	movs	r1, #2
 80059c0:	4806      	ldr	r0, [pc, #24]	; (80059dc <DRV_setDirectionsTurnRight+0x30>)
 80059c2:	f000 fe33 	bl	800662c <MTR_setDirection>
 80059c6:	e8bd 4008 	ldmia.w	sp!, {r3, lr}
 80059ca:	2101      	movs	r1, #1
 80059cc:	4804      	ldr	r0, [pc, #16]	; (80059e0 <DRV_setDirectionsTurnRight+0x34>)
 80059ce:	f000 be2d 	b.w	800662c <MTR_setDirection>
 80059d2:	bf00      	nop
 80059d4:	200002bc 	.word	0x200002bc
 80059d8:	20000298 	.word	0x20000298
 80059dc:	20000304 	.word	0x20000304
 80059e0:	200002e0 	.word	0x200002e0

080059e4 <DRV_setDirectionsTranslateLeft>:
 80059e4:	b508      	push	{r3, lr}
 80059e6:	2101      	movs	r1, #1
 80059e8:	4808      	ldr	r0, [pc, #32]	; (8005a0c <DRV_setDirectionsTranslateLeft+0x28>)
 80059ea:	f000 fe1f 	bl	800662c <MTR_setDirection>
 80059ee:	2102      	movs	r1, #2
 80059f0:	4807      	ldr	r0, [pc, #28]	; (8005a10 <DRV_setDirectionsTranslateLeft+0x2c>)
 80059f2:	f000 fe1b 	bl	800662c <MTR_setDirection>
 80059f6:	2102      	movs	r1, #2
 80059f8:	4806      	ldr	r0, [pc, #24]	; (8005a14 <DRV_setDirectionsTranslateLeft+0x30>)
 80059fa:	f000 fe17 	bl	800662c <MTR_setDirection>
 80059fe:	e8bd 4008 	ldmia.w	sp!, {r3, lr}
 8005a02:	2101      	movs	r1, #1
 8005a04:	4804      	ldr	r0, [pc, #16]	; (8005a18 <DRV_setDirectionsTranslateLeft+0x34>)
 8005a06:	f000 be11 	b.w	800662c <MTR_setDirection>
 8005a0a:	bf00      	nop
 8005a0c:	200002bc 	.word	0x200002bc
 8005a10:	20000298 	.word	0x20000298
 8005a14:	20000304 	.word	0x20000304
 8005a18:	200002e0 	.word	0x200002e0

08005a1c <DRV_setDirectionsTranslateRight>:
 8005a1c:	b508      	push	{r3, lr}
 8005a1e:	2102      	movs	r1, #2
 8005a20:	4808      	ldr	r0, [pc, #32]	; (8005a44 <DRV_setDirectionsTranslateRight+0x28>)
 8005a22:	f000 fe03 	bl	800662c <MTR_setDirection>
 8005a26:	2101      	movs	r1, #1
 8005a28:	4807      	ldr	r0, [pc, #28]	; (8005a48 <DRV_setDirectionsTranslateRight+0x2c>)
 8005a2a:	f000 fdff 	bl	800662c <MTR_setDirection>
 8005a2e:	2101      	movs	r1, #1
 8005a30:	4806      	ldr	r0, [pc, #24]	; (8005a4c <DRV_setDirectionsTranslateRight+0x30>)
 8005a32:	f000 fdfb 	bl	800662c <MTR_setDirection>
 8005a36:	e8bd 4008 	ldmia.w	sp!, {r3, lr}
 8005a3a:	2102      	movs	r1, #2
 8005a3c:	4804      	ldr	r0, [pc, #16]	; (8005a50 <DRV_setDirectionsTranslateRight+0x34>)
 8005a3e:	f000 bdf5 	b.w	800662c <MTR_setDirection>
 8005a42:	bf00      	nop
 8005a44:	200002bc 	.word	0x200002bc
 8005a48:	20000298 	.word	0x20000298
 8005a4c:	20000304 	.word	0x20000304
 8005a50:	200002e0 	.word	0x200002e0

08005a54 <DRV_setDirectionsForwardLeft>:
 8005a54:	b508      	push	{r3, lr}
 8005a56:	2101      	movs	r1, #1
 8005a58:	4804      	ldr	r0, [pc, #16]	; (8005a6c <DRV_setDirectionsForwardLeft+0x18>)
 8005a5a:	f000 fde7 	bl	800662c <MTR_setDirection>
 8005a5e:	e8bd 4008 	ldmia.w	sp!, {r3, lr}
 8005a62:	2101      	movs	r1, #1
 8005a64:	4802      	ldr	r0, [pc, #8]	; (8005a70 <DRV_setDirectionsForwardLeft+0x1c>)
 8005a66:	f000 bde1 	b.w	800662c <MTR_setDirection>
 8005a6a:	bf00      	nop
 8005a6c:	200002bc 	.word	0x200002bc
 8005a70:	200002e0 	.word	0x200002e0

08005a74 <DRV_setDirectionsBackwardRight>:
 8005a74:	b508      	push	{r3, lr}
 8005a76:	2102      	movs	r1, #2
 8005a78:	4804      	ldr	r0, [pc, #16]	; (8005a8c <DRV_setDirectionsBackwardRight+0x18>)
 8005a7a:	f000 fdd7 	bl	800662c <MTR_setDirection>
 8005a7e:	e8bd 4008 	ldmia.w	sp!, {r3, lr}
 8005a82:	2102      	movs	r1, #2
 8005a84:	4802      	ldr	r0, [pc, #8]	; (8005a90 <DRV_setDirectionsBackwardRight+0x1c>)
 8005a86:	f000 bdd1 	b.w	800662c <MTR_setDirection>
 8005a8a:	bf00      	nop
 8005a8c:	200002bc 	.word	0x200002bc
 8005a90:	200002e0 	.word	0x200002e0

08005a94 <DRV_setDirectionsForwardRight>:
 8005a94:	b508      	push	{r3, lr}
 8005a96:	2101      	movs	r1, #1
 8005a98:	4804      	ldr	r0, [pc, #16]	; (8005aac <DRV_setDirectionsForwardRight+0x18>)
 8005a9a:	f000 fdc7 	bl	800662c <MTR_setDirection>
 8005a9e:	e8bd 4008 	ldmia.w	sp!, {r3, lr}
 8005aa2:	2101      	movs	r1, #1
 8005aa4:	4802      	ldr	r0, [pc, #8]	; (8005ab0 <DRV_setDirectionsForwardRight+0x1c>)
 8005aa6:	f000 bdc1 	b.w	800662c <MTR_setDirection>
 8005aaa:	bf00      	nop
 8005aac:	20000298 	.word	0x20000298
 8005ab0:	20000304 	.word	0x20000304

08005ab4 <DRV_setDirectionsBackwardLeft>:
 8005ab4:	b508      	push	{r3, lr}
 8005ab6:	2102      	movs	r1, #2
 8005ab8:	4804      	ldr	r0, [pc, #16]	; (8005acc <DRV_setDirectionsBackwardLeft+0x18>)
 8005aba:	f000 fdb7 	bl	800662c <MTR_setDirection>
 8005abe:	e8bd 4008 	ldmia.w	sp!, {r3, lr}
 8005ac2:	2102      	movs	r1, #2
 8005ac4:	4802      	ldr	r0, [pc, #8]	; (8005ad0 <DRV_setDirectionsBackwardLeft+0x1c>)
 8005ac6:	f000 bdb1 	b.w	800662c <MTR_setDirection>
 8005aca:	bf00      	nop
 8005acc:	20000298 	.word	0x20000298
 8005ad0:	20000304 	.word	0x20000304

08005ad4 <DRV_setDirectionsStop>:
 8005ad4:	b508      	push	{r3, lr}
 8005ad6:	2100      	movs	r1, #0
 8005ad8:	4808      	ldr	r0, [pc, #32]	; (8005afc <DRV_setDirectionsStop+0x28>)
 8005ada:	f000 fda7 	bl	800662c <MTR_setDirection>
 8005ade:	2100      	movs	r1, #0
 8005ae0:	4807      	ldr	r0, [pc, #28]	; (8005b00 <DRV_setDirectionsStop+0x2c>)
 8005ae2:	f000 fda3 	bl	800662c <MTR_setDirection>
 8005ae6:	2100      	movs	r1, #0
 8005ae8:	4806      	ldr	r0, [pc, #24]	; (8005b04 <DRV_setDirectionsStop+0x30>)
 8005aea:	f000 fd9f 	bl	800662c <MTR_setDirection>
 8005aee:	e8bd 4008 	ldmia.w	sp!, {r3, lr}
 8005af2:	2100      	movs	r1, #0
 8005af4:	4804      	ldr	r0, [pc, #16]	; (8005b08 <DRV_setDirectionsStop+0x34>)
 8005af6:	f000 bd99 	b.w	800662c <MTR_setDirection>
 8005afa:	bf00      	nop
 8005afc:	200002bc 	.word	0x200002bc
 8005b00:	20000298 	.word	0x20000298
 8005b04:	20000304 	.word	0x20000304
 8005b08:	200002e0 	.word	0x200002e0

08005b0c <DVR_getSpeedFromCommand>:
 8005b0c:	b513      	push	{r0, r1, r4, lr}
 8005b0e:	460c      	mov	r4, r1
 8005b10:	f000 ff35 	bl	800697e <atoi>
 8005b14:	2864      	cmp	r0, #100	; 0x64
 8005b16:	d808      	bhi.n	8005b2a <DVR_getSpeedFromCommand+0x1e>
 8005b18:	2300      	movs	r3, #0
 8005b1a:	2228      	movs	r2, #40	; 0x28
 8005b1c:	4619      	mov	r1, r3
 8005b1e:	e9cd 2300 	strd	r2, r3, [sp]
 8005b22:	2264      	movs	r2, #100	; 0x64
 8005b24:	f000 fef3 	bl	800690e <UTI_normalizeIntValue>
 8005b28:	6020      	str	r0, [r4, #0]
 8005b2a:	b002      	add	sp, #8
 8005b2c:	bd10      	pop	{r4, pc}
	...

08005b30 <DRV_moveBackward.part.0>:
 8005b30:	b510      	push	{r4, lr}
 8005b32:	4604      	mov	r4, r0
 8005b34:	4601      	mov	r1, r0
 8005b36:	4808      	ldr	r0, [pc, #32]	; (8005b58 <DRV_moveBackward.part.0+0x28>)
 8005b38:	f000 fd94 	bl	8006664 <MTR_setSpeed>
 8005b3c:	4621      	mov	r1, r4
 8005b3e:	4807      	ldr	r0, [pc, #28]	; (8005b5c <DRV_moveBackward.part.0+0x2c>)
 8005b40:	f000 fd90 	bl	8006664 <MTR_setSpeed>
 8005b44:	4621      	mov	r1, r4
 8005b46:	4806      	ldr	r0, [pc, #24]	; (8005b60 <DRV_moveBackward.part.0+0x30>)
 8005b48:	f000 fd8c 	bl	8006664 <MTR_setSpeed>
 8005b4c:	4621      	mov	r1, r4
 8005b4e:	e8bd 4010 	ldmia.w	sp!, {r4, lr}
 8005b52:	4804      	ldr	r0, [pc, #16]	; (8005b64 <DRV_moveBackward.part.0+0x34>)
 8005b54:	f000 bd86 	b.w	8006664 <MTR_setSpeed>
 8005b58:	200002bc 	.word	0x200002bc
 8005b5c:	20000298 	.word	0x20000298
 8005b60:	20000304 	.word	0x20000304
 8005b64:	200002e0 	.word	0x200002e0

08005b68 <DRV_updateEncoder>:
 8005b68:	4603      	mov	r3, r0
 8005b6a:	6802      	ldr	r2, [r0, #0]
 8005b6c:	480a      	ldr	r0, [pc, #40]	; (8005b98 <DRV_updateEncoder+0x30>)
 8005b6e:	6a51      	ldr	r1, [r2, #36]	; 0x24
 8005b70:	6882      	ldr	r2, [r0, #8]
 8005b72:	b209      	sxth	r1, r1
 8005b74:	429a      	cmp	r2, r3
 8005b76:	d101      	bne.n	8005b7c <DRV_updateEncoder+0x14>
 8005b78:	f000 bc8f 	b.w	800649a <ENC_update>
 8005b7c:	4807      	ldr	r0, [pc, #28]	; (8005b9c <DRV_updateEncoder+0x34>)
 8005b7e:	6882      	ldr	r2, [r0, #8]
 8005b80:	429a      	cmp	r2, r3
 8005b82:	d0f9      	beq.n	8005b78 <DRV_updateEncoder+0x10>
 8005b84:	4806      	ldr	r0, [pc, #24]	; (8005ba0 <DRV_updateEncoder+0x38>)
 8005b86:	6882      	ldr	r2, [r0, #8]
 8005b88:	429a      	cmp	r2, r3
 8005b8a:	d0f5      	beq.n	8005b78 <DRV_updateEncoder+0x10>
 8005b8c:	4805      	ldr	r0, [pc, #20]	; (8005ba4 <DRV_updateEncoder+0x3c>)
 8005b8e:	6882      	ldr	r2, [r0, #8]
 8005b90:	429a      	cmp	r2, r3
 8005b92:	d0f1      	beq.n	8005b78 <DRV_updateEncoder+0x10>
 8005b94:	4770      	bx	lr
 8005b96:	bf00      	nop
 8005b98:	2000027c 	.word	0x2000027c
 8005b9c:	20000288 	.word	0x20000288
 8005ba0:	20000270 	.word	0x20000270
 8005ba4:	20000264 	.word	0x20000264

08005ba8 <DRV_updateFromBluetooth>:
 8005ba8:	b538      	push	{r3, r4, r5, lr}
 8005baa:	7c03      	ldrb	r3, [r0, #16]
 8005bac:	4a75      	ldr	r2, [pc, #468]	; (8005d84 <DRV_updateFromBluetooth+0x1dc>)
 8005bae:	2b0e      	cmp	r3, #14
 8005bb0:	7811      	ldrb	r1, [r2, #0]
 8005bb2:	d027      	beq.n	8005c04 <DRV_updateFromBluetooth+0x5c>
 8005bb4:	d819      	bhi.n	8005bea <DRV_updateFromBluetooth+0x42>
 8005bb6:	2b01      	cmp	r3, #1
 8005bb8:	d028      	beq.n	8005c0c <DRV_updateFromBluetooth+0x64>
 8005bba:	2b04      	cmp	r3, #4
 8005bbc:	d02d      	beq.n	8005c1a <DRV_updateFromBluetooth+0x72>
 8005bbe:	7812      	ldrb	r2, [r2, #0]
 8005bc0:	2a02      	cmp	r2, #2
 8005bc2:	f000 80dd 	beq.w	8005d80 <DRV_updateFromBluetooth+0x1d8>
 8005bc6:	6845      	ldr	r5, [r0, #4]
 8005bc8:	2d0a      	cmp	r5, #10
 8005bca:	dd2c      	ble.n	8005c26 <DRV_updateFromBluetooth+0x7e>
 8005bcc:	2a00      	cmp	r2, #0
 8005bce:	bf08      	it	eq
 8005bd0:	2514      	moveq	r5, #20
 8005bd2:	f7ff fe97 	bl	8005904 <DRV_setDirectionsForward>
 8005bd6:	4b6c      	ldr	r3, [pc, #432]	; (8005d88 <DRV_updateFromBluetooth+0x1e0>)
 8005bd8:	781b      	ldrb	r3, [r3, #0]
 8005bda:	2b00      	cmp	r3, #0
 8005bdc:	f000 80d0 	beq.w	8005d80 <DRV_updateFromBluetooth+0x1d8>
 8005be0:	4628      	mov	r0, r5
 8005be2:	e8bd 4038 	ldmia.w	sp!, {r3, r4, r5, lr}
 8005be6:	f7ff bfa3 	b.w	8005b30 <DRV_moveBackward.part.0>
 8005bea:	2b0f      	cmp	r3, #15
 8005bec:	d006      	beq.n	8005bfc <DRV_updateFromBluetooth+0x54>
 8005bee:	2b10      	cmp	r3, #16
 8005bf0:	d1e5      	bne.n	8005bbe <DRV_updateFromBluetooth+0x16>
 8005bf2:	2900      	cmp	r1, #0
 8005bf4:	d0e3      	beq.n	8005bbe <DRV_updateFromBluetooth+0x16>
 8005bf6:	2100      	movs	r1, #0
 8005bf8:	7011      	strb	r1, [r2, #0]
 8005bfa:	e7e0      	b.n	8005bbe <DRV_updateFromBluetooth+0x16>
 8005bfc:	2901      	cmp	r1, #1
 8005bfe:	d0de      	beq.n	8005bbe <DRV_updateFromBluetooth+0x16>
 8005c00:	2101      	movs	r1, #1
 8005c02:	e7f9      	b.n	8005bf8 <DRV_updateFromBluetooth+0x50>
 8005c04:	2902      	cmp	r1, #2
 8005c06:	d0da      	beq.n	8005bbe <DRV_updateFromBluetooth+0x16>
 8005c08:	2102      	movs	r1, #2
 8005c0a:	e7f5      	b.n	8005bf8 <DRV_updateFromBluetooth+0x50>
 8005c0c:	495e      	ldr	r1, [pc, #376]	; (8005d88 <DRV_updateFromBluetooth+0x1e0>)
 8005c0e:	780c      	ldrb	r4, [r1, #0]
 8005c10:	2c00      	cmp	r4, #0
 8005c12:	d0d4      	beq.n	8005bbe <DRV_updateFromBluetooth+0x16>
 8005c14:	2400      	movs	r4, #0
 8005c16:	700c      	strb	r4, [r1, #0]
 8005c18:	e7d1      	b.n	8005bbe <DRV_updateFromBluetooth+0x16>
 8005c1a:	495b      	ldr	r1, [pc, #364]	; (8005d88 <DRV_updateFromBluetooth+0x1e0>)
 8005c1c:	780c      	ldrb	r4, [r1, #0]
 8005c1e:	2c00      	cmp	r4, #0
 8005c20:	d1cd      	bne.n	8005bbe <DRV_updateFromBluetooth+0x16>
 8005c22:	2401      	movs	r4, #1
 8005c24:	e7f7      	b.n	8005c16 <DRV_updateFromBluetooth+0x6e>
 8005c26:	68c4      	ldr	r4, [r0, #12]
 8005c28:	2c0a      	cmp	r4, #10
 8005c2a:	dd0b      	ble.n	8005c44 <DRV_updateFromBluetooth+0x9c>
 8005c2c:	2a00      	cmp	r2, #0
 8005c2e:	bf08      	it	eq
 8005c30:	2414      	moveq	r4, #20
 8005c32:	f7ff fe67 	bl	8005904 <DRV_setDirectionsForward>
 8005c36:	4b54      	ldr	r3, [pc, #336]	; (8005d88 <DRV_updateFromBluetooth+0x1e0>)
 8005c38:	781b      	ldrb	r3, [r3, #0]
 8005c3a:	2b00      	cmp	r3, #0
 8005c3c:	f000 80a0 	beq.w	8005d80 <DRV_updateFromBluetooth+0x1d8>
 8005c40:	4620      	mov	r0, r4
 8005c42:	e7ce      	b.n	8005be2 <DRV_updateFromBluetooth+0x3a>
 8005c44:	f115 0f0a 	cmn.w	r5, #10
 8005c48:	da0f      	bge.n	8005c6a <DRV_updateFromBluetooth+0xc2>
 8005c4a:	b162      	cbz	r2, 8005c66 <DRV_updateFromBluetooth+0xbe>
 8005c4c:	426d      	negs	r5, r5
 8005c4e:	f7ff fe75 	bl	800593c <DRV_setDirectionsBackward>
 8005c52:	4b4d      	ldr	r3, [pc, #308]	; (8005d88 <DRV_updateFromBluetooth+0x1e0>)
 8005c54:	781b      	ldrb	r3, [r3, #0]
 8005c56:	2b00      	cmp	r3, #0
 8005c58:	f000 8092 	beq.w	8005d80 <DRV_updateFromBluetooth+0x1d8>
 8005c5c:	4628      	mov	r0, r5
 8005c5e:	e8bd 4038 	ldmia.w	sp!, {r3, r4, r5, lr}
 8005c62:	f7ff bf65 	b.w	8005b30 <DRV_moveBackward.part.0>
 8005c66:	2514      	movs	r5, #20
 8005c68:	e7f1      	b.n	8005c4e <DRV_updateFromBluetooth+0xa6>
 8005c6a:	f114 0f0a 	cmn.w	r4, #10
 8005c6e:	da0b      	bge.n	8005c88 <DRV_updateFromBluetooth+0xe0>
 8005c70:	b142      	cbz	r2, 8005c84 <DRV_updateFromBluetooth+0xdc>
 8005c72:	4264      	negs	r4, r4
 8005c74:	f7ff fe62 	bl	800593c <DRV_setDirectionsBackward>
 8005c78:	4b43      	ldr	r3, [pc, #268]	; (8005d88 <DRV_updateFromBluetooth+0x1e0>)
 8005c7a:	781b      	ldrb	r3, [r3, #0]
 8005c7c:	2b00      	cmp	r3, #0
 8005c7e:	d07f      	beq.n	8005d80 <DRV_updateFromBluetooth+0x1d8>
 8005c80:	4620      	mov	r0, r4
 8005c82:	e7ec      	b.n	8005c5e <DRV_updateFromBluetooth+0xb6>
 8005c84:	2414      	movs	r4, #20
 8005c86:	e7f5      	b.n	8005c74 <DRV_updateFromBluetooth+0xcc>
 8005c88:	6804      	ldr	r4, [r0, #0]
 8005c8a:	f114 0f0a 	cmn.w	r4, #10
 8005c8e:	da1b      	bge.n	8005cc8 <DRV_updateFromBluetooth+0x120>
 8005c90:	b1c2      	cbz	r2, 8005cc4 <DRV_updateFromBluetooth+0x11c>
 8005c92:	4264      	negs	r4, r4
 8005c94:	f7ff fe6e 	bl	8005974 <DRV_setDirectionsTurnLeft>
 8005c98:	4b3b      	ldr	r3, [pc, #236]	; (8005d88 <DRV_updateFromBluetooth+0x1e0>)
 8005c9a:	781b      	ldrb	r3, [r3, #0]
 8005c9c:	2b00      	cmp	r3, #0
 8005c9e:	d06f      	beq.n	8005d80 <DRV_updateFromBluetooth+0x1d8>
 8005ca0:	4621      	mov	r1, r4
 8005ca2:	483a      	ldr	r0, [pc, #232]	; (8005d8c <DRV_updateFromBluetooth+0x1e4>)
 8005ca4:	f000 fcde 	bl	8006664 <MTR_setSpeed>
 8005ca8:	4621      	mov	r1, r4
 8005caa:	4839      	ldr	r0, [pc, #228]	; (8005d90 <DRV_updateFromBluetooth+0x1e8>)
 8005cac:	f000 fcda 	bl	8006664 <MTR_setSpeed>
 8005cb0:	4621      	mov	r1, r4
 8005cb2:	4838      	ldr	r0, [pc, #224]	; (8005d94 <DRV_updateFromBluetooth+0x1ec>)
 8005cb4:	f000 fcd6 	bl	8006664 <MTR_setSpeed>
 8005cb8:	4621      	mov	r1, r4
 8005cba:	e8bd 4038 	ldmia.w	sp!, {r3, r4, r5, lr}
 8005cbe:	4836      	ldr	r0, [pc, #216]	; (8005d98 <DRV_updateFromBluetooth+0x1f0>)
 8005cc0:	f000 bcd0 	b.w	8006664 <MTR_setSpeed>
 8005cc4:	2414      	movs	r4, #20
 8005cc6:	e7e5      	b.n	8005c94 <DRV_updateFromBluetooth+0xec>
 8005cc8:	2c0a      	cmp	r4, #10
 8005cca:	dd05      	ble.n	8005cd8 <DRV_updateFromBluetooth+0x130>
 8005ccc:	2a00      	cmp	r2, #0
 8005cce:	bf08      	it	eq
 8005cd0:	2414      	moveq	r4, #20
 8005cd2:	f7ff fe6b 	bl	80059ac <DRV_setDirectionsTurnRight>
 8005cd6:	e7df      	b.n	8005c98 <DRV_updateFromBluetooth+0xf0>
 8005cd8:	6884      	ldr	r4, [r0, #8]
 8005cda:	f114 0f0a 	cmn.w	r4, #10
 8005cde:	da06      	bge.n	8005cee <DRV_updateFromBluetooth+0x146>
 8005ce0:	b11a      	cbz	r2, 8005cea <DRV_updateFromBluetooth+0x142>
 8005ce2:	4264      	negs	r4, r4
 8005ce4:	f7ff fe7e 	bl	80059e4 <DRV_setDirectionsTranslateLeft>
 8005ce8:	e7d6      	b.n	8005c98 <DRV_updateFromBluetooth+0xf0>
 8005cea:	2414      	movs	r4, #20
 8005cec:	e7fa      	b.n	8005ce4 <DRV_updateFromBluetooth+0x13c>
 8005cee:	2c0a      	cmp	r4, #10
 8005cf0:	dd05      	ble.n	8005cfe <DRV_updateFromBluetooth+0x156>
 8005cf2:	2a00      	cmp	r2, #0
 8005cf4:	bf08      	it	eq
 8005cf6:	2414      	moveq	r4, #20
 8005cf8:	f7ff fe90 	bl	8005a1c <DRV_setDirectionsTranslateRight>
 8005cfc:	e7cc      	b.n	8005c98 <DRV_updateFromBluetooth+0xf0>
 8005cfe:	2b0b      	cmp	r3, #11
 8005d00:	d113      	bne.n	8005d2a <DRV_updateFromBluetooth+0x182>
 8005d02:	f7ff fea7 	bl	8005a54 <DRV_setDirectionsForwardLeft>
 8005d06:	4b20      	ldr	r3, [pc, #128]	; (8005d88 <DRV_updateFromBluetooth+0x1e0>)
 8005d08:	781b      	ldrb	r3, [r3, #0]
 8005d0a:	2b00      	cmp	r3, #0
 8005d0c:	d038      	beq.n	8005d80 <DRV_updateFromBluetooth+0x1d8>
 8005d0e:	2128      	movs	r1, #40	; 0x28
 8005d10:	481e      	ldr	r0, [pc, #120]	; (8005d8c <DRV_updateFromBluetooth+0x1e4>)
 8005d12:	f000 fca7 	bl	8006664 <MTR_setSpeed>
 8005d16:	2100      	movs	r1, #0
 8005d18:	481d      	ldr	r0, [pc, #116]	; (8005d90 <DRV_updateFromBluetooth+0x1e8>)
 8005d1a:	f000 fca3 	bl	8006664 <MTR_setSpeed>
 8005d1e:	2100      	movs	r1, #0
 8005d20:	481c      	ldr	r0, [pc, #112]	; (8005d94 <DRV_updateFromBluetooth+0x1ec>)
 8005d22:	f000 fc9f 	bl	8006664 <MTR_setSpeed>
 8005d26:	2128      	movs	r1, #40	; 0x28
 8005d28:	e7c7      	b.n	8005cba <DRV_updateFromBluetooth+0x112>
 8005d2a:	2b09      	cmp	r3, #9
 8005d2c:	d102      	bne.n	8005d34 <DRV_updateFromBluetooth+0x18c>
 8005d2e:	f7ff fea1 	bl	8005a74 <DRV_setDirectionsBackwardRight>
 8005d32:	e7e8      	b.n	8005d06 <DRV_updateFromBluetooth+0x15e>
 8005d34:	2b0c      	cmp	r3, #12
 8005d36:	d112      	bne.n	8005d5e <DRV_updateFromBluetooth+0x1b6>
 8005d38:	f7ff feac 	bl	8005a94 <DRV_setDirectionsForwardRight>
 8005d3c:	4b12      	ldr	r3, [pc, #72]	; (8005d88 <DRV_updateFromBluetooth+0x1e0>)
 8005d3e:	781b      	ldrb	r3, [r3, #0]
 8005d40:	b1f3      	cbz	r3, 8005d80 <DRV_updateFromBluetooth+0x1d8>
 8005d42:	2100      	movs	r1, #0
 8005d44:	4811      	ldr	r0, [pc, #68]	; (8005d8c <DRV_updateFromBluetooth+0x1e4>)
 8005d46:	f000 fc8d 	bl	8006664 <MTR_setSpeed>
 8005d4a:	2128      	movs	r1, #40	; 0x28
 8005d4c:	4810      	ldr	r0, [pc, #64]	; (8005d90 <DRV_updateFromBluetooth+0x1e8>)
 8005d4e:	f000 fc89 	bl	8006664 <MTR_setSpeed>
 8005d52:	2128      	movs	r1, #40	; 0x28
 8005d54:	480f      	ldr	r0, [pc, #60]	; (8005d94 <DRV_updateFromBluetooth+0x1ec>)
 8005d56:	f000 fc85 	bl	8006664 <MTR_setSpeed>
 8005d5a:	2100      	movs	r1, #0
 8005d5c:	e7ad      	b.n	8005cba <DRV_updateFromBluetooth+0x112>
 8005d5e:	2b0a      	cmp	r3, #10
 8005d60:	d102      	bne.n	8005d68 <DRV_updateFromBluetooth+0x1c0>
 8005d62:	f7ff fea7 	bl	8005ab4 <DRV_setDirectionsBackwardLeft>
 8005d66:	e7e9      	b.n	8005d3c <DRV_updateFromBluetooth+0x194>
 8005d68:	f7ff feb4 	bl	8005ad4 <DRV_setDirectionsStop>
 8005d6c:	2100      	movs	r1, #0
 8005d6e:	4807      	ldr	r0, [pc, #28]	; (8005d8c <DRV_updateFromBluetooth+0x1e4>)
 8005d70:	f000 fc78 	bl	8006664 <MTR_setSpeed>
 8005d74:	2100      	movs	r1, #0
 8005d76:	4806      	ldr	r0, [pc, #24]	; (8005d90 <DRV_updateFromBluetooth+0x1e8>)
 8005d78:	f000 fc74 	bl	8006664 <MTR_setSpeed>
 8005d7c:	2100      	movs	r1, #0
 8005d7e:	e7e9      	b.n	8005d54 <DRV_updateFromBluetooth+0x1ac>
 8005d80:	bd38      	pop	{r3, r4, r5, pc}
 8005d82:	bf00      	nop
 8005d84:	20000294 	.word	0x20000294
 8005d88:	20000250 	.word	0x20000250
 8005d8c:	200002bc 	.word	0x200002bc
 8005d90:	20000298 	.word	0x20000298
 8005d94:	20000304 	.word	0x20000304
 8005d98:	200002e0 	.word	0x200002e0

08005d9c <DRV_reportVelocity>:
 8005d9c:	b510      	push	{r4, lr}
 8005d9e:	4b10      	ldr	r3, [pc, #64]	; (8005de0 <DRV_reportVelocity+0x44>)
 8005da0:	b08a      	sub	sp, #40	; 0x28
 8005da2:	6818      	ldr	r0, [r3, #0]
 8005da4:	f7fb f96c 	bl	8001080 <__aeabi_f2iz>
 8005da8:	4b0e      	ldr	r3, [pc, #56]	; (8005de4 <DRV_reportVelocity+0x48>)
 8005daa:	4604      	mov	r4, r0
 8005dac:	6818      	ldr	r0, [r3, #0]
 8005dae:	f7fb f967 	bl	8001080 <__aeabi_f2iz>
 8005db2:	4b0d      	ldr	r3, [pc, #52]	; (8005de8 <DRV_reportVelocity+0x4c>)
 8005db4:	9002      	str	r0, [sp, #8]
 8005db6:	6818      	ldr	r0, [r3, #0]
 8005db8:	f7fb f962 	bl	8001080 <__aeabi_f2iz>
 8005dbc:	4b0b      	ldr	r3, [pc, #44]	; (8005dec <DRV_reportVelocity+0x50>)
 8005dbe:	9001      	str	r0, [sp, #4]
 8005dc0:	6818      	ldr	r0, [r3, #0]
 8005dc2:	f7fb f95d 	bl	8001080 <__aeabi_f2iz>
 8005dc6:	4623      	mov	r3, r4
 8005dc8:	4a09      	ldr	r2, [pc, #36]	; (8005df0 <DRV_reportVelocity+0x54>)
 8005dca:	9000      	str	r0, [sp, #0]
 8005dcc:	2115      	movs	r1, #21
 8005dce:	a804      	add	r0, sp, #16
 8005dd0:	f000 fed2 	bl	8006b78 <sniprintf>
 8005dd4:	2115      	movs	r1, #21
 8005dd6:	a804      	add	r0, sp, #16
 8005dd8:	f000 fc1e 	bl	8006618 <MAS_sendString>
 8005ddc:	b00a      	add	sp, #40	; 0x28
 8005dde:	bd10      	pop	{r4, pc}
 8005de0:	20000258 	.word	0x20000258
 8005de4:	2000025c 	.word	0x2000025c
 8005de8:	20000260 	.word	0x20000260
 8005dec:	20000254 	.word	0x20000254
 8005df0:	08009dfc 	.word	0x08009dfc

08005df4 <DRV_getMode>:
 8005df4:	4b01      	ldr	r3, [pc, #4]	; (8005dfc <DRV_getMode+0x8>)
 8005df6:	7818      	ldrb	r0, [r3, #0]
 8005df8:	4770      	bx	lr
 8005dfa:	bf00      	nop
 8005dfc:	20000294 	.word	0x20000294

08005e00 <DRV_logInfo>:
 8005e00:	b510      	push	{r4, lr}
 8005e02:	4c15      	ldr	r4, [pc, #84]	; (8005e58 <DRV_logInfo+0x58>)
 8005e04:	4620      	mov	r0, r4
 8005e06:	f000 fc2b 	bl	8006660 <MTR_getDirection>
 8005e0a:	4620      	mov	r0, r4
 8005e0c:	4c13      	ldr	r4, [pc, #76]	; (8005e5c <DRV_logInfo+0x5c>)
 8005e0e:	f000 fc52 	bl	80066b6 <MTR_getSpeed>
 8005e12:	4813      	ldr	r0, [pc, #76]	; (8005e60 <DRV_logInfo+0x60>)
 8005e14:	f000 fb47 	bl	80064a6 <ENC_getCount>
 8005e18:	4620      	mov	r0, r4
 8005e1a:	f000 fc21 	bl	8006660 <MTR_getDirection>
 8005e1e:	4620      	mov	r0, r4
 8005e20:	4c10      	ldr	r4, [pc, #64]	; (8005e64 <DRV_logInfo+0x64>)
 8005e22:	f000 fc48 	bl	80066b6 <MTR_getSpeed>
 8005e26:	4810      	ldr	r0, [pc, #64]	; (8005e68 <DRV_logInfo+0x68>)
 8005e28:	f000 fb3d 	bl	80064a6 <ENC_getCount>
 8005e2c:	4620      	mov	r0, r4
 8005e2e:	f000 fc17 	bl	8006660 <MTR_getDirection>
 8005e32:	4620      	mov	r0, r4
 8005e34:	4c0d      	ldr	r4, [pc, #52]	; (8005e6c <DRV_logInfo+0x6c>)
 8005e36:	f000 fc3e 	bl	80066b6 <MTR_getSpeed>
 8005e3a:	480d      	ldr	r0, [pc, #52]	; (8005e70 <DRV_logInfo+0x70>)
 8005e3c:	f000 fb33 	bl	80064a6 <ENC_getCount>
 8005e40:	4620      	mov	r0, r4
 8005e42:	f000 fc0d 	bl	8006660 <MTR_getDirection>
 8005e46:	4620      	mov	r0, r4
 8005e48:	f000 fc35 	bl	80066b6 <MTR_getSpeed>
 8005e4c:	e8bd 4010 	ldmia.w	sp!, {r4, lr}
 8005e50:	4808      	ldr	r0, [pc, #32]	; (8005e74 <DRV_logInfo+0x74>)
 8005e52:	f000 bb28 	b.w	80064a6 <ENC_getCount>
 8005e56:	bf00      	nop
 8005e58:	20000298 	.word	0x20000298
 8005e5c:	200002bc 	.word	0x200002bc
 8005e60:	20000264 	.word	0x20000264
 8005e64:	20000304 	.word	0x20000304
 8005e68:	20000270 	.word	0x20000270
 8005e6c:	200002e0 	.word	0x200002e0
 8005e70:	20000288 	.word	0x20000288
 8005e74:	2000027c 	.word	0x2000027c

08005e78 <DRV_init>:
 8005e78:	e92d 4ff0 	stmdb	sp!, {r4, r5, r6, r7, r8, r9, sl, fp, lr}
 8005e7c:	2400      	movs	r4, #0
 8005e7e:	f04f 5b7e 	mov.w	fp, #1065353216	; 0x3f800000
 8005e82:	f04f 5a7a 	mov.w	sl, #1048576000	; 0x3e800000
 8005e86:	b08d      	sub	sp, #52	; 0x34
 8005e88:	4d58      	ldr	r5, [pc, #352]	; (8005fec <DRV_init+0x174>)
 8005e8a:	e9cd 2309 	strd	r2, r3, [sp, #36]	; 0x24
 8005e8e:	f8df 91c8 	ldr.w	r9, [pc, #456]	; 8006058 <DRV_init+0x1e0>
 8005e92:	9b16      	ldr	r3, [sp, #88]	; 0x58
 8005e94:	f8df 81c4 	ldr.w	r8, [pc, #452]	; 800605c <DRV_init+0x1e4>
 8005e98:	e9cd 0107 	strd	r0, r1, [sp, #28]
 8005e9c:	4f54      	ldr	r7, [pc, #336]	; (8005ff0 <DRV_init+0x178>)
 8005e9e:	465a      	mov	r2, fp
 8005ea0:	4649      	mov	r1, r9
 8005ea2:	930b      	str	r3, [sp, #44]	; 0x2c
 8005ea4:	f8cd a010 	str.w	sl, [sp, #16]
 8005ea8:	465b      	mov	r3, fp
 8005eaa:	9503      	str	r5, [sp, #12]
 8005eac:	4851      	ldr	r0, [pc, #324]	; (8005ff4 <DRV_init+0x17c>)
 8005eae:	9402      	str	r4, [sp, #8]
 8005eb0:	9401      	str	r4, [sp, #4]
 8005eb2:	9400      	str	r4, [sp, #0]
 8005eb4:	f000 fc08 	bl	80066c8 <PID_init>
 8005eb8:	4e4f      	ldr	r6, [pc, #316]	; (8005ff8 <DRV_init+0x180>)
 8005eba:	465b      	mov	r3, fp
 8005ebc:	465a      	mov	r2, fp
 8005ebe:	4641      	mov	r1, r8
 8005ec0:	f8cd a010 	str.w	sl, [sp, #16]
 8005ec4:	9503      	str	r5, [sp, #12]
 8005ec6:	484d      	ldr	r0, [pc, #308]	; (8005ffc <DRV_init+0x184>)
 8005ec8:	9402      	str	r4, [sp, #8]
 8005eca:	9401      	str	r4, [sp, #4]
 8005ecc:	9400      	str	r4, [sp, #0]
 8005ece:	f000 fbfb 	bl	80066c8 <PID_init>
 8005ed2:	465b      	mov	r3, fp
 8005ed4:	465a      	mov	r2, fp
 8005ed6:	4639      	mov	r1, r7
 8005ed8:	f8cd a010 	str.w	sl, [sp, #16]
 8005edc:	9503      	str	r5, [sp, #12]
 8005ede:	4848      	ldr	r0, [pc, #288]	; (8006000 <DRV_init+0x188>)
 8005ee0:	9402      	str	r4, [sp, #8]
 8005ee2:	9401      	str	r4, [sp, #4]
 8005ee4:	9400      	str	r4, [sp, #0]
 8005ee6:	f000 fbef 	bl	80066c8 <PID_init>
 8005eea:	465b      	mov	r3, fp
 8005eec:	465a      	mov	r2, fp
 8005eee:	4631      	mov	r1, r6
 8005ef0:	f8cd a010 	str.w	sl, [sp, #16]
 8005ef4:	9503      	str	r5, [sp, #12]
 8005ef6:	4843      	ldr	r0, [pc, #268]	; (8006004 <DRV_init+0x18c>)
 8005ef8:	9402      	str	r4, [sp, #8]
 8005efa:	9401      	str	r4, [sp, #4]
 8005efc:	9400      	str	r4, [sp, #0]
 8005efe:	f000 fbe3 	bl	80066c8 <PID_init>
 8005f02:	230c      	movs	r3, #12
 8005f04:	9303      	str	r3, [sp, #12]
 8005f06:	9b07      	ldr	r3, [sp, #28]
 8005f08:	f8df a154 	ldr.w	sl, [pc, #340]	; 8006060 <DRV_init+0x1e8>
 8005f0c:	9302      	str	r3, [sp, #8]
 8005f0e:	f44f 5380 	mov.w	r3, #4096	; 0x1000
 8005f12:	4649      	mov	r1, r9
 8005f14:	e9cd a300 	strd	sl, r3, [sp]
 8005f18:	4a3b      	ldr	r2, [pc, #236]	; (8006008 <DRV_init+0x190>)
 8005f1a:	2304      	movs	r3, #4
 8005f1c:	483b      	ldr	r0, [pc, #236]	; (800600c <DRV_init+0x194>)
 8005f1e:	f000 fbb4 	bl	800668a <MTR_init>
 8005f22:	2308      	movs	r3, #8
 8005f24:	f04f 0b10 	mov.w	fp, #16
 8005f28:	4d39      	ldr	r5, [pc, #228]	; (8006010 <DRV_init+0x198>)
 8005f2a:	9303      	str	r3, [sp, #12]
 8005f2c:	9b07      	ldr	r3, [sp, #28]
 8005f2e:	462a      	mov	r2, r5
 8005f30:	4641      	mov	r1, r8
 8005f32:	e9cd 5b00 	strd	r5, fp, [sp]
 8005f36:	9302      	str	r3, [sp, #8]
 8005f38:	4836      	ldr	r0, [pc, #216]	; (8006014 <DRV_init+0x19c>)
 8005f3a:	2320      	movs	r3, #32
 8005f3c:	f000 fba5 	bl	800668a <MTR_init>
 8005f40:	2304      	movs	r3, #4
 8005f42:	9303      	str	r3, [sp, #12]
 8005f44:	9b07      	ldr	r3, [sp, #28]
 8005f46:	4652      	mov	r2, sl
 8005f48:	9302      	str	r3, [sp, #8]
 8005f4a:	2320      	movs	r3, #32
 8005f4c:	e9cd a300 	strd	sl, r3, [sp]
 8005f50:	f04f 0a00 	mov.w	sl, #0
 8005f54:	465b      	mov	r3, fp
 8005f56:	f04f 0b02 	mov.w	fp, #2
 8005f5a:	4639      	mov	r1, r7
 8005f5c:	482e      	ldr	r0, [pc, #184]	; (8006018 <DRV_init+0x1a0>)
 8005f5e:	f000 fb94 	bl	800668a <MTR_init>
 8005f62:	9b07      	ldr	r3, [sp, #28]
 8005f64:	462a      	mov	r2, r5
 8005f66:	4631      	mov	r1, r6
 8005f68:	9302      	str	r3, [sp, #8]
 8005f6a:	e9cd 5b00 	strd	r5, fp, [sp]
 8005f6e:	2301      	movs	r3, #1
 8005f70:	482a      	ldr	r0, [pc, #168]	; (800601c <DRV_init+0x1a4>)
 8005f72:	f8cd a00c 	str.w	sl, [sp, #12]
 8005f76:	f000 fb88 	bl	800668a <MTR_init>
 8005f7a:	4649      	mov	r1, r9
 8005f7c:	9b0a      	ldr	r3, [sp, #40]	; 0x28
 8005f7e:	2201      	movs	r2, #1
 8005f80:	4827      	ldr	r0, [pc, #156]	; (8006020 <DRV_init+0x1a8>)
 8005f82:	f000 fa83 	bl	800648c <ENC_init>
 8005f86:	4652      	mov	r2, sl
 8005f88:	4641      	mov	r1, r8
 8005f8a:	9b0b      	ldr	r3, [sp, #44]	; 0x2c
 8005f8c:	4825      	ldr	r0, [pc, #148]	; (8006024 <DRV_init+0x1ac>)
 8005f8e:	f000 fa7d 	bl	800648c <ENC_init>
 8005f92:	4652      	mov	r2, sl
 8005f94:	4639      	mov	r1, r7
 8005f96:	9b08      	ldr	r3, [sp, #32]
 8005f98:	4823      	ldr	r0, [pc, #140]	; (8006028 <DRV_init+0x1b0>)
 8005f9a:	f000 fa77 	bl	800648c <ENC_init>
 8005f9e:	9b09      	ldr	r3, [sp, #36]	; 0x24
 8005fa0:	2201      	movs	r2, #1
 8005fa2:	4631      	mov	r1, r6
 8005fa4:	4821      	ldr	r0, [pc, #132]	; (800602c <DRV_init+0x1b4>)
 8005fa6:	f000 fa71 	bl	800648c <ENC_init>
 8005faa:	4821      	ldr	r0, [pc, #132]	; (8006030 <DRV_init+0x1b8>)
 8005fac:	f7ff fc16 	bl	80057dc <CBU_init>
 8005fb0:	4820      	ldr	r0, [pc, #128]	; (8006034 <DRV_init+0x1bc>)
 8005fb2:	f7ff fc13 	bl	80057dc <CBU_init>
 8005fb6:	4820      	ldr	r0, [pc, #128]	; (8006038 <DRV_init+0x1c0>)
 8005fb8:	f7ff fc10 	bl	80057dc <CBU_init>
 8005fbc:	481f      	ldr	r0, [pc, #124]	; (800603c <DRV_init+0x1c4>)
 8005fbe:	f7ff fc0d 	bl	80057dc <CBU_init>
 8005fc2:	2201      	movs	r2, #1
 8005fc4:	4650      	mov	r0, sl
 8005fc6:	4b1e      	ldr	r3, [pc, #120]	; (8006040 <DRV_init+0x1c8>)
 8005fc8:	601c      	str	r4, [r3, #0]
 8005fca:	4b1e      	ldr	r3, [pc, #120]	; (8006044 <DRV_init+0x1cc>)
 8005fcc:	601c      	str	r4, [r3, #0]
 8005fce:	4b1e      	ldr	r3, [pc, #120]	; (8006048 <DRV_init+0x1d0>)
 8005fd0:	601c      	str	r4, [r3, #0]
 8005fd2:	4b1e      	ldr	r3, [pc, #120]	; (800604c <DRV_init+0x1d4>)
 8005fd4:	601c      	str	r4, [r3, #0]
 8005fd6:	4b1e      	ldr	r3, [pc, #120]	; (8006050 <DRV_init+0x1d8>)
 8005fd8:	701a      	strb	r2, [r3, #0]
 8005fda:	4b1e      	ldr	r3, [pc, #120]	; (8006054 <DRV_init+0x1dc>)
 8005fdc:	f883 b000 	strb.w	fp, [r3]
 8005fe0:	b00d      	add	sp, #52	; 0x34
 8005fe2:	e8bd 4ff0 	ldmia.w	sp!, {r4, r5, r6, r7, r8, r9, sl, fp, lr}
 8005fe6:	f7ff bf0b 	b.w	8005e00 <DRV_logInfo>
 8005fea:	bf00      	nop
 8005fec:	42200000 	.word	0x42200000
 8005ff0:	08009e2d 	.word	0x08009e2d
 8005ff4:	2000035c 	.word	0x2000035c
 8005ff8:	08009e39 	.word	0x08009e39
 8005ffc:	20000328 	.word	0x20000328
 8006000:	20000390 	.word	0x20000390
 8006004:	200003c4 	.word	0x200003c4
 8006008:	40011400 	.word	0x40011400
 800600c:	200002bc 	.word	0x200002bc
 8006010:	40010c00 	.word	0x40010c00
 8006014:	20000298 	.word	0x20000298
 8006018:	200002e0 	.word	0x200002e0
 800601c:	20000304 	.word	0x20000304
 8006020:	20000270 	.word	0x20000270
 8006024:	20000264 	.word	0x20000264
 8006028:	2000027c 	.word	0x2000027c
 800602c:	20000288 	.word	0x20000288
 8006030:	20000428 	.word	0x20000428
 8006034:	200003f8 	.word	0x200003f8
 8006038:	20000458 	.word	0x20000458
 800603c:	20000488 	.word	0x20000488
 8006040:	20000258 	.word	0x20000258
 8006044:	20000254 	.word	0x20000254
 8006048:	2000025c 	.word	0x2000025c
 800604c:	20000260 	.word	0x20000260
 8006050:	20000250 	.word	0x20000250
 8006054:	20000294 	.word	0x20000294
 8006058:	08009e15 	.word	0x08009e15
 800605c:	08009e21 	.word	0x08009e21
 8006060:	40011000 	.word	0x40011000

08006064 <DRV_updateFromCommands>:
 8006064:	e92d 47f0 	stmdb	sp!, {r4, r5, r6, r7, r8, r9, sl, lr}
 8006068:	4bc0      	ldr	r3, [pc, #768]	; (800636c <DRV_updateFromCommands+0x308>)
 800606a:	4605      	mov	r5, r0
 800606c:	781b      	ldrb	r3, [r3, #0]
 800606e:	460c      	mov	r4, r1
 8006070:	2b02      	cmp	r3, #2
 8006072:	4616      	mov	r6, r2
 8006074:	b086      	sub	sp, #24
 8006076:	f040 80ef 	bne.w	8006258 <DRV_updateFromCommands+0x1f4>
 800607a:	f000 fc06 	bl	800688a <SFO_getCount>
 800607e:	2800      	cmp	r0, #0
 8006080:	d049      	beq.n	8006116 <DRV_updateFromCommands+0xb2>
 8006082:	4628      	mov	r0, r5
 8006084:	f000 fc03 	bl	800688e <SFO_logInfo>
 8006088:	4628      	mov	r0, r5
 800608a:	a902      	add	r1, sp, #8
 800608c:	f000 fbde 	bl	800684c <SFO_pop>
 8006090:	f89d 3008 	ldrb.w	r3, [sp, #8]
 8006094:	2b53      	cmp	r3, #83	; 0x53
 8006096:	d113      	bne.n	80060c0 <DRV_updateFromCommands+0x5c>
 8006098:	f89d 3009 	ldrb.w	r3, [sp, #9]
 800609c:	2b54      	cmp	r3, #84	; 0x54
 800609e:	d13a      	bne.n	8006116 <DRV_updateFromCommands+0xb2>
 80060a0:	f7ff fd18 	bl	8005ad4 <DRV_setDirectionsStop>
 80060a4:	2100      	movs	r1, #0
 80060a6:	48b2      	ldr	r0, [pc, #712]	; (8006370 <DRV_updateFromCommands+0x30c>)
 80060a8:	f000 fb3c 	bl	8006724 <PID_setTargetValue>
 80060ac:	2100      	movs	r1, #0
 80060ae:	48b1      	ldr	r0, [pc, #708]	; (8006374 <DRV_updateFromCommands+0x310>)
 80060b0:	f000 fb38 	bl	8006724 <PID_setTargetValue>
 80060b4:	2100      	movs	r1, #0
 80060b6:	48b0      	ldr	r0, [pc, #704]	; (8006378 <DRV_updateFromCommands+0x314>)
 80060b8:	f000 fb34 	bl	8006724 <PID_setTargetValue>
 80060bc:	2100      	movs	r1, #0
 80060be:	e027      	b.n	8006110 <DRV_updateFromCommands+0xac>
 80060c0:	2b46      	cmp	r3, #70	; 0x46
 80060c2:	f040 80cc 	bne.w	800625e <DRV_updateFromCommands+0x1fa>
 80060c6:	f89d 3009 	ldrb.w	r3, [sp, #9]
 80060ca:	2b53      	cmp	r3, #83	; 0x53
 80060cc:	f040 8108 	bne.w	80062e0 <DRV_updateFromCommands+0x27c>
 80060d0:	a901      	add	r1, sp, #4
 80060d2:	f10d 000a 	add.w	r0, sp, #10
 80060d6:	f7ff fd19 	bl	8005b0c <DVR_getSpeedFromCommand>
 80060da:	f7ff fc13 	bl	8005904 <DRV_setDirectionsForward>
 80060de:	9801      	ldr	r0, [sp, #4]
 80060e0:	f7fa fe26 	bl	8000d30 <__aeabi_ui2f>
 80060e4:	4601      	mov	r1, r0
 80060e6:	48a2      	ldr	r0, [pc, #648]	; (8006370 <DRV_updateFromCommands+0x30c>)
 80060e8:	f000 fb1c 	bl	8006724 <PID_setTargetValue>
 80060ec:	9801      	ldr	r0, [sp, #4]
 80060ee:	f7fa fe1f 	bl	8000d30 <__aeabi_ui2f>
 80060f2:	4601      	mov	r1, r0
 80060f4:	489f      	ldr	r0, [pc, #636]	; (8006374 <DRV_updateFromCommands+0x310>)
 80060f6:	f000 fb15 	bl	8006724 <PID_setTargetValue>
 80060fa:	9801      	ldr	r0, [sp, #4]
 80060fc:	f7fa fe18 	bl	8000d30 <__aeabi_ui2f>
 8006100:	4601      	mov	r1, r0
 8006102:	489d      	ldr	r0, [pc, #628]	; (8006378 <DRV_updateFromCommands+0x314>)
 8006104:	f000 fb0e 	bl	8006724 <PID_setTargetValue>
 8006108:	9801      	ldr	r0, [sp, #4]
 800610a:	f7fa fe11 	bl	8000d30 <__aeabi_ui2f>
 800610e:	4601      	mov	r1, r0
 8006110:	489a      	ldr	r0, [pc, #616]	; (800637c <DRV_updateFromCommands+0x318>)
 8006112:	f000 fb07 	bl	8006724 <PID_setTargetValue>
 8006116:	489a      	ldr	r0, [pc, #616]	; (8006380 <DRV_updateFromCommands+0x31c>)
 8006118:	f000 f9c5 	bl	80064a6 <ENC_getCount>
 800611c:	4682      	mov	sl, r0
 800611e:	4620      	mov	r0, r4
 8006120:	f7fa fe06 	bl	8000d30 <__aeabi_ui2f>
 8006124:	4605      	mov	r5, r0
 8006126:	4897      	ldr	r0, [pc, #604]	; (8006384 <DRV_updateFromCommands+0x320>)
 8006128:	f000 f9bd 	bl	80064a6 <ENC_getCount>
 800612c:	4681      	mov	r9, r0
 800612e:	4896      	ldr	r0, [pc, #600]	; (8006388 <DRV_updateFromCommands+0x324>)
 8006130:	f000 f9b9 	bl	80064a6 <ENC_getCount>
 8006134:	4680      	mov	r8, r0
 8006136:	4895      	ldr	r0, [pc, #596]	; (800638c <DRV_updateFromCommands+0x328>)
 8006138:	f000 f9b5 	bl	80064a6 <ENC_getCount>
 800613c:	4607      	mov	r7, r0
 800613e:	4650      	mov	r0, sl
 8006140:	f7fa fdfa 	bl	8000d38 <__aeabi_i2f>
 8006144:	4629      	mov	r1, r5
 8006146:	f7fa feff 	bl	8000f48 <__aeabi_fdiv>
 800614a:	4991      	ldr	r1, [pc, #580]	; (8006390 <DRV_updateFromCommands+0x32c>)
 800614c:	f7fa fe48 	bl	8000de0 <__aeabi_fmul>
 8006150:	f020 4100 	bic.w	r1, r0, #2147483648	; 0x80000000
 8006154:	488f      	ldr	r0, [pc, #572]	; (8006394 <DRV_updateFromCommands+0x330>)
 8006156:	f7ff fb4d 	bl	80057f4 <CBU_push>
 800615a:	4648      	mov	r0, r9
 800615c:	f7fa fdec 	bl	8000d38 <__aeabi_i2f>
 8006160:	4629      	mov	r1, r5
 8006162:	f7fa fef1 	bl	8000f48 <__aeabi_fdiv>
 8006166:	498a      	ldr	r1, [pc, #552]	; (8006390 <DRV_updateFromCommands+0x32c>)
 8006168:	f7fa fe3a 	bl	8000de0 <__aeabi_fmul>
 800616c:	f020 4100 	bic.w	r1, r0, #2147483648	; 0x80000000
 8006170:	4889      	ldr	r0, [pc, #548]	; (8006398 <DRV_updateFromCommands+0x334>)
 8006172:	f7ff fb3f 	bl	80057f4 <CBU_push>
 8006176:	4640      	mov	r0, r8
 8006178:	f7fa fdde 	bl	8000d38 <__aeabi_i2f>
 800617c:	4629      	mov	r1, r5
 800617e:	f7fa fee3 	bl	8000f48 <__aeabi_fdiv>
 8006182:	4983      	ldr	r1, [pc, #524]	; (8006390 <DRV_updateFromCommands+0x32c>)
 8006184:	f7fa fe2c 	bl	8000de0 <__aeabi_fmul>
 8006188:	f020 4100 	bic.w	r1, r0, #2147483648	; 0x80000000
 800618c:	4883      	ldr	r0, [pc, #524]	; (800639c <DRV_updateFromCommands+0x338>)
 800618e:	f7ff fb31 	bl	80057f4 <CBU_push>
 8006192:	4638      	mov	r0, r7
 8006194:	f7fa fdd0 	bl	8000d38 <__aeabi_i2f>
 8006198:	4629      	mov	r1, r5
 800619a:	f7fa fed5 	bl	8000f48 <__aeabi_fdiv>
 800619e:	497c      	ldr	r1, [pc, #496]	; (8006390 <DRV_updateFromCommands+0x32c>)
 80061a0:	f7fa fe1e 	bl	8000de0 <__aeabi_fmul>
 80061a4:	f020 4100 	bic.w	r1, r0, #2147483648	; 0x80000000
 80061a8:	487d      	ldr	r0, [pc, #500]	; (80063a0 <DRV_updateFromCommands+0x33c>)
 80061aa:	f7ff fb23 	bl	80057f4 <CBU_push>
 80061ae:	4879      	ldr	r0, [pc, #484]	; (8006394 <DRV_updateFromCommands+0x330>)
 80061b0:	f7ff fb2e 	bl	8005810 <CBU_getAverage>
 80061b4:	4d7b      	ldr	r5, [pc, #492]	; (80063a4 <DRV_updateFromCommands+0x340>)
 80061b6:	f8df 820c 	ldr.w	r8, [pc, #524]	; 80063c4 <DRV_updateFromCommands+0x360>
 80061ba:	6028      	str	r0, [r5, #0]
 80061bc:	4876      	ldr	r0, [pc, #472]	; (8006398 <DRV_updateFromCommands+0x334>)
 80061be:	f7ff fb27 	bl	8005810 <CBU_getAverage>
 80061c2:	f8c8 0000 	str.w	r0, [r8]
 80061c6:	4875      	ldr	r0, [pc, #468]	; (800639c <DRV_updateFromCommands+0x338>)
 80061c8:	f7ff fb22 	bl	8005810 <CBU_getAverage>
 80061cc:	4f76      	ldr	r7, [pc, #472]	; (80063a8 <DRV_updateFromCommands+0x344>)
 80061ce:	46a9      	mov	r9, r5
 80061d0:	6038      	str	r0, [r7, #0]
 80061d2:	4873      	ldr	r0, [pc, #460]	; (80063a0 <DRV_updateFromCommands+0x33c>)
 80061d4:	f7ff fb1c 	bl	8005810 <CBU_getAverage>
 80061d8:	4b74      	ldr	r3, [pc, #464]	; (80063ac <DRV_updateFromCommands+0x348>)
 80061da:	461d      	mov	r5, r3
 80061dc:	6018      	str	r0, [r3, #0]
 80061de:	b116      	cbz	r6, 80061e6 <DRV_updateFromCommands+0x182>
 80061e0:	2001      	movs	r0, #1
 80061e2:	f7ff fe0d 	bl	8005e00 <DRV_logInfo>
 80061e6:	4622      	mov	r2, r4
 80061e8:	f8d9 1000 	ldr.w	r1, [r9]
 80061ec:	4860      	ldr	r0, [pc, #384]	; (8006370 <DRV_updateFromCommands+0x30c>)
 80061ee:	f000 fa9b 	bl	8006728 <PID_update>
 80061f2:	4622      	mov	r2, r4
 80061f4:	f8d8 1000 	ldr.w	r1, [r8]
 80061f8:	4681      	mov	r9, r0
 80061fa:	485e      	ldr	r0, [pc, #376]	; (8006374 <DRV_updateFromCommands+0x310>)
 80061fc:	f000 fa94 	bl	8006728 <PID_update>
 8006200:	4622      	mov	r2, r4
 8006202:	6839      	ldr	r1, [r7, #0]
 8006204:	4680      	mov	r8, r0
 8006206:	485c      	ldr	r0, [pc, #368]	; (8006378 <DRV_updateFromCommands+0x314>)
 8006208:	f000 fa8e 	bl	8006728 <PID_update>
 800620c:	4622      	mov	r2, r4
 800620e:	4606      	mov	r6, r0
 8006210:	6829      	ldr	r1, [r5, #0]
 8006212:	485a      	ldr	r0, [pc, #360]	; (800637c <DRV_updateFromCommands+0x318>)
 8006214:	f000 fa88 	bl	8006728 <PID_update>
 8006218:	4b65      	ldr	r3, [pc, #404]	; (80063b0 <DRV_updateFromCommands+0x34c>)
 800621a:	4604      	mov	r4, r0
 800621c:	781b      	ldrb	r3, [r3, #0]
 800621e:	b1db      	cbz	r3, 8006258 <DRV_updateFromCommands+0x1f4>
 8006220:	4648      	mov	r0, r9
 8006222:	f7fa ff53 	bl	80010cc <__aeabi_f2uiz>
 8006226:	4601      	mov	r1, r0
 8006228:	4862      	ldr	r0, [pc, #392]	; (80063b4 <DRV_updateFromCommands+0x350>)
 800622a:	f000 fa1b 	bl	8006664 <MTR_setSpeed>
 800622e:	4640      	mov	r0, r8
 8006230:	f7fa ff4c 	bl	80010cc <__aeabi_f2uiz>
 8006234:	4601      	mov	r1, r0
 8006236:	4860      	ldr	r0, [pc, #384]	; (80063b8 <DRV_updateFromCommands+0x354>)
 8006238:	f000 fa14 	bl	8006664 <MTR_setSpeed>
 800623c:	4630      	mov	r0, r6
 800623e:	f7fa ff45 	bl	80010cc <__aeabi_f2uiz>
 8006242:	4601      	mov	r1, r0
 8006244:	485d      	ldr	r0, [pc, #372]	; (80063bc <DRV_updateFromCommands+0x358>)
 8006246:	f000 fa0d 	bl	8006664 <MTR_setSpeed>
 800624a:	4620      	mov	r0, r4
 800624c:	f7fa ff3e 	bl	80010cc <__aeabi_f2uiz>
 8006250:	4601      	mov	r1, r0
 8006252:	485b      	ldr	r0, [pc, #364]	; (80063c0 <DRV_updateFromCommands+0x35c>)
 8006254:	f000 fa06 	bl	8006664 <MTR_setSpeed>
 8006258:	b006      	add	sp, #24
 800625a:	e8bd 87f0 	ldmia.w	sp!, {r4, r5, r6, r7, r8, r9, sl, pc}
 800625e:	2b42      	cmp	r3, #66	; 0x42
 8006260:	d10b      	bne.n	800627a <DRV_updateFromCommands+0x216>
 8006262:	f89d 3009 	ldrb.w	r3, [sp, #9]
 8006266:	2b53      	cmp	r3, #83	; 0x53
 8006268:	d16a      	bne.n	8006340 <DRV_updateFromCommands+0x2dc>
 800626a:	a901      	add	r1, sp, #4
 800626c:	f10d 000a 	add.w	r0, sp, #10
 8006270:	f7ff fc4c 	bl	8005b0c <DVR_getSpeedFromCommand>
 8006274:	f7ff fb62 	bl	800593c <DRV_setDirectionsBackward>
 8006278:	e731      	b.n	80060de <DRV_updateFromCommands+0x7a>
 800627a:	2b52      	cmp	r3, #82	; 0x52
 800627c:	d116      	bne.n	80062ac <DRV_updateFromCommands+0x248>
 800627e:	f89d 3009 	ldrb.w	r3, [sp, #9]
 8006282:	2b4c      	cmp	r3, #76	; 0x4c
 8006284:	d107      	bne.n	8006296 <DRV_updateFromCommands+0x232>
 8006286:	a901      	add	r1, sp, #4
 8006288:	f10d 000a 	add.w	r0, sp, #10
 800628c:	f7ff fc3e 	bl	8005b0c <DVR_getSpeedFromCommand>
 8006290:	f7ff fb70 	bl	8005974 <DRV_setDirectionsTurnLeft>
 8006294:	e723      	b.n	80060de <DRV_updateFromCommands+0x7a>
 8006296:	2b52      	cmp	r3, #82	; 0x52
 8006298:	f47f af3d 	bne.w	8006116 <DRV_updateFromCommands+0xb2>
 800629c:	a901      	add	r1, sp, #4
 800629e:	f10d 000a 	add.w	r0, sp, #10
 80062a2:	f7ff fc33 	bl	8005b0c <DVR_getSpeedFromCommand>
 80062a6:	f7ff fb81 	bl	80059ac <DRV_setDirectionsTurnRight>
 80062aa:	e718      	b.n	80060de <DRV_updateFromCommands+0x7a>
 80062ac:	2b54      	cmp	r3, #84	; 0x54
 80062ae:	f040 808b 	bne.w	80063c8 <DRV_updateFromCommands+0x364>
 80062b2:	f89d 3009 	ldrb.w	r3, [sp, #9]
 80062b6:	2b4c      	cmp	r3, #76	; 0x4c
 80062b8:	d107      	bne.n	80062ca <DRV_updateFromCommands+0x266>
 80062ba:	a901      	add	r1, sp, #4
 80062bc:	f10d 000a 	add.w	r0, sp, #10
 80062c0:	f7ff fc24 	bl	8005b0c <DVR_getSpeedFromCommand>
 80062c4:	f7ff fb8e 	bl	80059e4 <DRV_setDirectionsTranslateLeft>
 80062c8:	e709      	b.n	80060de <DRV_updateFromCommands+0x7a>
 80062ca:	2b52      	cmp	r3, #82	; 0x52
 80062cc:	f47f af23 	bne.w	8006116 <DRV_updateFromCommands+0xb2>
 80062d0:	a901      	add	r1, sp, #4
 80062d2:	f10d 000a 	add.w	r0, sp, #10
 80062d6:	f7ff fc19 	bl	8005b0c <DVR_getSpeedFromCommand>
 80062da:	f7ff fb9f 	bl	8005a1c <DRV_setDirectionsTranslateRight>
 80062de:	e6fe      	b.n	80060de <DRV_updateFromCommands+0x7a>
 80062e0:	2b4c      	cmp	r3, #76	; 0x4c
 80062e2:	d113      	bne.n	800630c <DRV_updateFromCommands+0x2a8>
 80062e4:	a901      	add	r1, sp, #4
 80062e6:	f10d 000a 	add.w	r0, sp, #10
 80062ea:	f7ff fc0f 	bl	8005b0c <DVR_getSpeedFromCommand>
 80062ee:	f7ff fbb1 	bl	8005a54 <DRV_setDirectionsForwardLeft>
 80062f2:	9801      	ldr	r0, [sp, #4]
 80062f4:	f7fa fd1c 	bl	8000d30 <__aeabi_ui2f>
 80062f8:	4601      	mov	r1, r0
 80062fa:	481d      	ldr	r0, [pc, #116]	; (8006370 <DRV_updateFromCommands+0x30c>)
 80062fc:	f000 fa12 	bl	8006724 <PID_setTargetValue>
 8006300:	2100      	movs	r1, #0
 8006302:	481c      	ldr	r0, [pc, #112]	; (8006374 <DRV_updateFromCommands+0x310>)
 8006304:	f000 fa0e 	bl	8006724 <PID_setTargetValue>
 8006308:	2100      	movs	r1, #0
 800630a:	e6fa      	b.n	8006102 <DRV_updateFromCommands+0x9e>
 800630c:	2b52      	cmp	r3, #82	; 0x52
 800630e:	f47f af02 	bne.w	8006116 <DRV_updateFromCommands+0xb2>
 8006312:	a901      	add	r1, sp, #4
 8006314:	f10d 000a 	add.w	r0, sp, #10
 8006318:	f7ff fbf8 	bl	8005b0c <DVR_getSpeedFromCommand>
 800631c:	f7ff fbba 	bl	8005a94 <DRV_setDirectionsForwardRight>
 8006320:	2100      	movs	r1, #0
 8006322:	4813      	ldr	r0, [pc, #76]	; (8006370 <DRV_updateFromCommands+0x30c>)
 8006324:	f000 f9fe 	bl	8006724 <PID_setTargetValue>
 8006328:	9801      	ldr	r0, [sp, #4]
 800632a:	f7fa fd01 	bl	8000d30 <__aeabi_ui2f>
 800632e:	4601      	mov	r1, r0
 8006330:	4810      	ldr	r0, [pc, #64]	; (8006374 <DRV_updateFromCommands+0x310>)
 8006332:	f000 f9f7 	bl	8006724 <PID_setTargetValue>
 8006336:	9801      	ldr	r0, [sp, #4]
 8006338:	f7fa fcfa 	bl	8000d30 <__aeabi_ui2f>
 800633c:	4601      	mov	r1, r0
 800633e:	e6ba      	b.n	80060b6 <DRV_updateFromCommands+0x52>
 8006340:	2b4c      	cmp	r3, #76	; 0x4c
 8006342:	d107      	bne.n	8006354 <DRV_updateFromCommands+0x2f0>
 8006344:	a901      	add	r1, sp, #4
 8006346:	f10d 000a 	add.w	r0, sp, #10
 800634a:	f7ff fbdf 	bl	8005b0c <DVR_getSpeedFromCommand>
 800634e:	f7ff fbb1 	bl	8005ab4 <DRV_setDirectionsBackwardLeft>
 8006352:	e7e5      	b.n	8006320 <DRV_updateFromCommands+0x2bc>
 8006354:	2b52      	cmp	r3, #82	; 0x52
 8006356:	f47f aede 	bne.w	8006116 <DRV_updateFromCommands+0xb2>
 800635a:	a901      	add	r1, sp, #4
 800635c:	f10d 000a 	add.w	r0, sp, #10
 8006360:	f7ff fbd4 	bl	8005b0c <DVR_getSpeedFromCommand>
 8006364:	f7ff fb86 	bl	8005a74 <DRV_setDirectionsBackwardRight>
 8006368:	e7c3      	b.n	80062f2 <DRV_updateFromCommands+0x28e>
 800636a:	bf00      	nop
 800636c:	20000294 	.word	0x20000294
 8006370:	2000035c 	.word	0x2000035c
 8006374:	20000328 	.word	0x20000328
 8006378:	200003c4 	.word	0x200003c4
 800637c:	20000390 	.word	0x20000390
 8006380:	20000270 	.word	0x20000270
 8006384:	20000264 	.word	0x20000264
 8006388:	20000288 	.word	0x20000288
 800638c:	2000027c 	.word	0x2000027c
 8006390:	47927c00 	.word	0x47927c00
 8006394:	20000428 	.word	0x20000428
 8006398:	200003f8 	.word	0x200003f8
 800639c:	20000488 	.word	0x20000488
 80063a0:	20000458 	.word	0x20000458
 80063a4:	20000258 	.word	0x20000258
 80063a8:	20000260 	.word	0x20000260
 80063ac:	2000025c 	.word	0x2000025c
 80063b0:	20000250 	.word	0x20000250
 80063b4:	200002bc 	.word	0x200002bc
 80063b8:	20000298 	.word	0x20000298
 80063bc:	20000304 	.word	0x20000304
 80063c0:	200002e0 	.word	0x200002e0
 80063c4:	20000254 	.word	0x20000254
 80063c8:	2b4b      	cmp	r3, #75	; 0x4b
 80063ca:	f47f aea4 	bne.w	8006116 <DRV_updateFromCommands+0xb2>
 80063ce:	f89d 3009 	ldrb.w	r3, [sp, #9]
 80063d2:	2b50      	cmp	r3, #80	; 0x50
 80063d4:	d117      	bne.n	8006406 <DRV_updateFromCommands+0x3a2>
 80063d6:	f10d 000a 	add.w	r0, sp, #10
 80063da:	f000 facd 	bl	8006978 <atof>
 80063de:	f7fa fba1 	bl	8000b24 <__aeabi_d2f>
 80063e2:	4605      	mov	r5, r0
 80063e4:	4601      	mov	r1, r0
 80063e6:	4822      	ldr	r0, [pc, #136]	; (8006470 <DRV_updateFromCommands+0x40c>)
 80063e8:	f000 f996 	bl	8006718 <PID_setKp>
 80063ec:	4629      	mov	r1, r5
 80063ee:	4821      	ldr	r0, [pc, #132]	; (8006474 <DRV_updateFromCommands+0x410>)
 80063f0:	f000 f992 	bl	8006718 <PID_setKp>
 80063f4:	4629      	mov	r1, r5
 80063f6:	4820      	ldr	r0, [pc, #128]	; (8006478 <DRV_updateFromCommands+0x414>)
 80063f8:	f000 f98e 	bl	8006718 <PID_setKp>
 80063fc:	4629      	mov	r1, r5
 80063fe:	481f      	ldr	r0, [pc, #124]	; (800647c <DRV_updateFromCommands+0x418>)
 8006400:	f000 f98a 	bl	8006718 <PID_setKp>
 8006404:	e687      	b.n	8006116 <DRV_updateFromCommands+0xb2>
 8006406:	2b49      	cmp	r3, #73	; 0x49
 8006408:	d117      	bne.n	800643a <DRV_updateFromCommands+0x3d6>
 800640a:	f10d 000a 	add.w	r0, sp, #10
 800640e:	f000 fab3 	bl	8006978 <atof>
 8006412:	f7fa fb87 	bl	8000b24 <__aeabi_d2f>
 8006416:	4605      	mov	r5, r0
 8006418:	4601      	mov	r1, r0
 800641a:	4815      	ldr	r0, [pc, #84]	; (8006470 <DRV_updateFromCommands+0x40c>)
 800641c:	f000 f97e 	bl	800671c <PID_setKi>
 8006420:	4629      	mov	r1, r5
 8006422:	4814      	ldr	r0, [pc, #80]	; (8006474 <DRV_updateFromCommands+0x410>)
 8006424:	f000 f97a 	bl	800671c <PID_setKi>
 8006428:	4629      	mov	r1, r5
 800642a:	4813      	ldr	r0, [pc, #76]	; (8006478 <DRV_updateFromCommands+0x414>)
 800642c:	f000 f976 	bl	800671c <PID_setKi>
 8006430:	4629      	mov	r1, r5
 8006432:	4812      	ldr	r0, [pc, #72]	; (800647c <DRV_updateFromCommands+0x418>)
 8006434:	f000 f972 	bl	800671c <PID_setKi>
 8006438:	e66d      	b.n	8006116 <DRV_updateFromCommands+0xb2>
 800643a:	2b44      	cmp	r3, #68	; 0x44
 800643c:	f47f ae6b 	bne.w	8006116 <DRV_updateFromCommands+0xb2>
 8006440:	f10d 000a 	add.w	r0, sp, #10
 8006444:	f000 fa98 	bl	8006978 <atof>
 8006448:	f7fa fb6c 	bl	8000b24 <__aeabi_d2f>
 800644c:	4605      	mov	r5, r0
 800644e:	4601      	mov	r1, r0
 8006450:	4807      	ldr	r0, [pc, #28]	; (8006470 <DRV_updateFromCommands+0x40c>)
 8006452:	f000 f965 	bl	8006720 <PID_setKd>
 8006456:	4629      	mov	r1, r5
 8006458:	4806      	ldr	r0, [pc, #24]	; (8006474 <DRV_updateFromCommands+0x410>)
 800645a:	f000 f961 	bl	8006720 <PID_setKd>
 800645e:	4629      	mov	r1, r5
 8006460:	4805      	ldr	r0, [pc, #20]	; (8006478 <DRV_updateFromCommands+0x414>)
 8006462:	f000 f95d 	bl	8006720 <PID_setKd>
 8006466:	4629      	mov	r1, r5
 8006468:	4804      	ldr	r0, [pc, #16]	; (800647c <DRV_updateFromCommands+0x418>)
 800646a:	f000 f959 	bl	8006720 <PID_setKd>
 800646e:	e652      	b.n	8006116 <DRV_updateFromCommands+0xb2>
 8006470:	2000035c 	.word	0x2000035c
 8006474:	20000328 	.word	0x20000328
 8006478:	200003c4 	.word	0x200003c4
 800647c:	20000390 	.word	0x20000390

08006480 <ENC_reset>:
 8006480:	2300      	movs	r3, #0
 8006482:	6882      	ldr	r2, [r0, #8]
 8006484:	8083      	strh	r3, [r0, #4]
 8006486:	6812      	ldr	r2, [r2, #0]
 8006488:	6253      	str	r3, [r2, #36]	; 0x24
 800648a:	4770      	bx	lr

0800648c <ENC_init>:
 800648c:	b410      	push	{r4}
 800648e:	bc10      	pop	{r4}
 8006490:	6001      	str	r1, [r0, #0]
 8006492:	7182      	strb	r2, [r0, #6]
 8006494:	6083      	str	r3, [r0, #8]
 8006496:	f7ff bff3 	b.w	8006480 <ENC_reset>

0800649a <ENC_update>:
 800649a:	7983      	ldrb	r3, [r0, #6]
 800649c:	b10b      	cbz	r3, 80064a2 <ENC_update+0x8>
 800649e:	4249      	negs	r1, r1
 80064a0:	b209      	sxth	r1, r1
 80064a2:	8081      	strh	r1, [r0, #4]
 80064a4:	4770      	bx	lr

080064a6 <ENC_getCount>:
 80064a6:	b508      	push	{r3, lr}
 80064a8:	f9b0 1004 	ldrsh.w	r1, [r0, #4]
 80064ac:	f7ff ffe8 	bl	8006480 <ENC_reset>
 80064b0:	4608      	mov	r0, r1
 80064b2:	bd08      	pop	{r3, pc}

080064b4 <LED_setMode>:
 80064b4:	4b02      	ldr	r3, [pc, #8]	; (80064c0 <LED_setMode+0xc>)
 80064b6:	781a      	ldrb	r2, [r3, #0]
 80064b8:	4282      	cmp	r2, r0
 80064ba:	bf18      	it	ne
 80064bc:	7018      	strbne	r0, [r3, #0]
 80064be:	4770      	bx	lr
 80064c0:	2000000c 	.word	0x2000000c

080064c4 <LED_update>:
 80064c4:	4b12      	ldr	r3, [pc, #72]	; (8006510 <LED_update+0x4c>)
 80064c6:	781b      	ldrb	r3, [r3, #0]
 80064c8:	2b04      	cmp	r3, #4
 80064ca:	d820      	bhi.n	800650e <LED_update+0x4a>
 80064cc:	e8df f003 	tbb	[pc, r3]
 80064d0:	190b0903 	.word	0x190b0903
 80064d4:	14          	.byte	0x14
 80064d5:	00          	.byte	0x00
 80064d6:	2201      	movs	r2, #1
 80064d8:	f44f 5100 	mov.w	r1, #8192	; 0x2000
 80064dc:	480d      	ldr	r0, [pc, #52]	; (8006514 <LED_update+0x50>)
 80064de:	f7fc ba63 	b.w	80029a8 <HAL_GPIO_WritePin>
 80064e2:	2200      	movs	r2, #0
 80064e4:	e7f8      	b.n	80064d8 <LED_update+0x14>
 80064e6:	4a0c      	ldr	r2, [pc, #48]	; (8006518 <LED_update+0x54>)
 80064e8:	6813      	ldr	r3, [r2, #0]
 80064ea:	3301      	adds	r3, #1
 80064ec:	6013      	str	r3, [r2, #0]
 80064ee:	4a0b      	ldr	r2, [pc, #44]	; (800651c <LED_update+0x58>)
 80064f0:	4353      	muls	r3, r2
 80064f2:	f1b3 3f33 	cmp.w	r3, #858993459	; 0x33333333
 80064f6:	d80a      	bhi.n	800650e <LED_update+0x4a>
 80064f8:	f44f 5100 	mov.w	r1, #8192	; 0x2000
 80064fc:	4805      	ldr	r0, [pc, #20]	; (8006514 <LED_update+0x50>)
 80064fe:	f7fc ba6d 	b.w	80029dc <HAL_GPIO_TogglePin>
 8006502:	4a05      	ldr	r2, [pc, #20]	; (8006518 <LED_update+0x54>)
 8006504:	6813      	ldr	r3, [r2, #0]
 8006506:	3301      	adds	r3, #1
 8006508:	6013      	str	r3, [r2, #0]
 800650a:	07db      	lsls	r3, r3, #31
 800650c:	d5f4      	bpl.n	80064f8 <LED_update+0x34>
 800650e:	4770      	bx	lr
 8006510:	2000000c 	.word	0x2000000c
 8006514:	40011000 	.word	0x40011000
 8006518:	200004b8 	.word	0x200004b8
 800651c:	cccccccd 	.word	0xcccccccd

08006520 <LOG_init>:
 8006520:	4b02      	ldr	r3, [pc, #8]	; (800652c <LOG_init+0xc>)
 8006522:	7019      	strb	r1, [r3, #0]
 8006524:	4b02      	ldr	r3, [pc, #8]	; (8006530 <LOG_init+0x10>)
 8006526:	6018      	str	r0, [r3, #0]
 8006528:	4770      	bx	lr
 800652a:	bf00      	nop
 800652c:	200004bc 	.word	0x200004bc
 8006530:	200004c0 	.word	0x200004c0

08006534 <LOG_toggleOnOff>:
 8006534:	4a02      	ldr	r2, [pc, #8]	; (8006540 <LOG_toggleOnOff+0xc>)
 8006536:	7813      	ldrb	r3, [r2, #0]
 8006538:	f083 0301 	eor.w	r3, r3, #1
 800653c:	7013      	strb	r3, [r2, #0]
 800653e:	4770      	bx	lr
 8006540:	200004bc 	.word	0x200004bc

08006544 <LOG_setLevel>:
 8006544:	4b01      	ldr	r3, [pc, #4]	; (800654c <LOG_setLevel+0x8>)
 8006546:	7018      	strb	r0, [r3, #0]
 8006548:	4770      	bx	lr
 800654a:	bf00      	nop
 800654c:	200004bd 	.word	0x200004bd

08006550 <LOG_increaseLevel>:
 8006550:	4a02      	ldr	r2, [pc, #8]	; (800655c <LOG_increaseLevel+0xc>)
 8006552:	7813      	ldrb	r3, [r2, #0]
 8006554:	b10b      	cbz	r3, 800655a <LOG_increaseLevel+0xa>
 8006556:	3b01      	subs	r3, #1
 8006558:	7013      	strb	r3, [r2, #0]
 800655a:	4770      	bx	lr
 800655c:	200004bd 	.word	0x200004bd

08006560 <LOG_decreaseLevel>:
 8006560:	4a03      	ldr	r2, [pc, #12]	; (8006570 <LOG_decreaseLevel+0x10>)
 8006562:	7813      	ldrb	r3, [r2, #0]
 8006564:	2b02      	cmp	r3, #2
 8006566:	bf9c      	itt	ls
 8006568:	3301      	addls	r3, #1
 800656a:	7013      	strbls	r3, [r2, #0]
 800656c:	4770      	bx	lr
 800656e:	bf00      	nop
 8006570:	200004bd 	.word	0x200004bd

08006574 <MAS_init>:
 8006574:	2300      	movs	r3, #0
 8006576:	b510      	push	{r4, lr}
 8006578:	4a07      	ldr	r2, [pc, #28]	; (8006598 <MAS_init+0x24>)
 800657a:	4c08      	ldr	r4, [pc, #32]	; (800659c <MAS_init+0x28>)
 800657c:	6013      	str	r3, [r2, #0]
 800657e:	4a08      	ldr	r2, [pc, #32]	; (80065a0 <MAS_init+0x2c>)
 8006580:	6020      	str	r0, [r4, #0]
 8006582:	4808      	ldr	r0, [pc, #32]	; (80065a4 <MAS_init+0x30>)
 8006584:	7013      	strb	r3, [r2, #0]
 8006586:	f000 f940 	bl	800680a <SFO_initData>
 800658a:	6820      	ldr	r0, [r4, #0]
 800658c:	2201      	movs	r2, #1
 800658e:	e8bd 4010 	ldmia.w	sp!, {r4, lr}
 8006592:	4905      	ldr	r1, [pc, #20]	; (80065a8 <MAS_init+0x34>)
 8006594:	f7fe bfcd 	b.w	8005532 <HAL_UART_Receive_IT>
 8006598:	200004d4 	.word	0x200004d4
 800659c:	200004dc 	.word	0x200004dc
 80065a0:	200004d9 	.word	0x200004d9
 80065a4:	200004c4 	.word	0x200004c4
 80065a8:	200004d8 	.word	0x200004d8

080065ac <MAS_receiveData>:
 80065ac:	4b0a      	ldr	r3, [pc, #40]	; (80065d8 <MAS_receiveData+0x2c>)
 80065ae:	781a      	ldrb	r2, [r3, #0]
 80065b0:	b962      	cbnz	r2, 80065cc <MAS_receiveData+0x20>
 80065b2:	4a0a      	ldr	r2, [pc, #40]	; (80065dc <MAS_receiveData+0x30>)
 80065b4:	7811      	ldrb	r1, [r2, #0]
 80065b6:	290d      	cmp	r1, #13
 80065b8:	bf0f      	iteee	eq
 80065ba:	2201      	moveq	r2, #1
 80065bc:	4a08      	ldrne	r2, [pc, #32]	; (80065e0 <MAS_receiveData+0x34>)
 80065be:	4809      	ldrne	r0, [pc, #36]	; (80065e4 <MAS_receiveData+0x38>)
 80065c0:	6813      	ldrne	r3, [r2, #0]
 80065c2:	bf0f      	iteee	eq
 80065c4:	701a      	strbeq	r2, [r3, #0]
 80065c6:	54c1      	strbne	r1, [r0, r3]
 80065c8:	3301      	addne	r3, #1
 80065ca:	6013      	strne	r3, [r2, #0]
 80065cc:	4b06      	ldr	r3, [pc, #24]	; (80065e8 <MAS_receiveData+0x3c>)
 80065ce:	2201      	movs	r2, #1
 80065d0:	4902      	ldr	r1, [pc, #8]	; (80065dc <MAS_receiveData+0x30>)
 80065d2:	6818      	ldr	r0, [r3, #0]
 80065d4:	f7fe bfad 	b.w	8005532 <HAL_UART_Receive_IT>
 80065d8:	200004d9 	.word	0x200004d9
 80065dc:	200004d8 	.word	0x200004d8
 80065e0:	200004d4 	.word	0x200004d4
 80065e4:	200004c4 	.word	0x200004c4
 80065e8:	200004dc 	.word	0x200004dc

080065ec <MAS_updateFifo>:
 80065ec:	b510      	push	{r4, lr}
 80065ee:	4c07      	ldr	r4, [pc, #28]	; (800660c <MAS_updateFifo+0x20>)
 80065f0:	7823      	ldrb	r3, [r4, #0]
 80065f2:	b14b      	cbz	r3, 8006608 <MAS_updateFifo+0x1c>
 80065f4:	4906      	ldr	r1, [pc, #24]	; (8006610 <MAS_updateFifo+0x24>)
 80065f6:	f000 f911 	bl	800681c <SFO_push>
 80065fa:	4805      	ldr	r0, [pc, #20]	; (8006610 <MAS_updateFifo+0x24>)
 80065fc:	f000 f905 	bl	800680a <SFO_initData>
 8006600:	2300      	movs	r3, #0
 8006602:	4a04      	ldr	r2, [pc, #16]	; (8006614 <MAS_updateFifo+0x28>)
 8006604:	7023      	strb	r3, [r4, #0]
 8006606:	6013      	str	r3, [r2, #0]
 8006608:	bd10      	pop	{r4, pc}
 800660a:	bf00      	nop
 800660c:	200004d9 	.word	0x200004d9
 8006610:	200004c4 	.word	0x200004c4
 8006614:	200004d4 	.word	0x200004d4

08006618 <MAS_sendString>:
 8006618:	b28a      	uxth	r2, r1
 800661a:	4601      	mov	r1, r0
 800661c:	4802      	ldr	r0, [pc, #8]	; (8006628 <MAS_sendString+0x10>)
 800661e:	f44f 737a 	mov.w	r3, #1000	; 0x3e8
 8006622:	6800      	ldr	r0, [r0, #0]
 8006624:	f7fe bd74 	b.w	8005110 <HAL_UART_Transmit>
 8006628:	200004dc 	.word	0x200004dc

0800662c <MTR_setDirection>:
 800662c:	b538      	push	{r3, r4, r5, lr}
 800662e:	7d03      	ldrb	r3, [r0, #20]
 8006630:	4604      	mov	r4, r0
 8006632:	428b      	cmp	r3, r1
 8006634:	460d      	mov	r5, r1
 8006636:	d00b      	beq.n	8006650 <MTR_setDirection+0x24>
 8006638:	6840      	ldr	r0, [r0, #4]
 800663a:	8921      	ldrh	r1, [r4, #8]
 800663c:	b94d      	cbnz	r5, 8006652 <MTR_setDirection+0x26>
 800663e:	462a      	mov	r2, r5
 8006640:	f7fc f9b2 	bl	80029a8 <HAL_GPIO_WritePin>
 8006644:	2200      	movs	r2, #0
 8006646:	8a21      	ldrh	r1, [r4, #16]
 8006648:	68e0      	ldr	r0, [r4, #12]
 800664a:	f7fc f9ad 	bl	80029a8 <HAL_GPIO_WritePin>
 800664e:	7525      	strb	r5, [r4, #20]
 8006650:	bd38      	pop	{r3, r4, r5, pc}
 8006652:	2d01      	cmp	r5, #1
 8006654:	d0f3      	beq.n	800663e <MTR_setDirection+0x12>
 8006656:	2200      	movs	r2, #0
 8006658:	f7fc f9a6 	bl	80029a8 <HAL_GPIO_WritePin>
 800665c:	2201      	movs	r2, #1
 800665e:	e7f2      	b.n	8006646 <MTR_setDirection+0x1a>

08006660 <MTR_getDirection>:
 8006660:	7d00      	ldrb	r0, [r0, #20]
 8006662:	4770      	bx	lr

08006664 <MTR_setSpeed>:
 8006664:	6983      	ldr	r3, [r0, #24]
 8006666:	428b      	cmp	r3, r1
 8006668:	d005      	beq.n	8006676 <MTR_setSpeed+0x12>
 800666a:	e9d0 3207 	ldrd	r3, r2, [r0, #28]
 800666e:	681b      	ldr	r3, [r3, #0]
 8006670:	b912      	cbnz	r2, 8006678 <MTR_setSpeed+0x14>
 8006672:	6359      	str	r1, [r3, #52]	; 0x34
 8006674:	6181      	str	r1, [r0, #24]
 8006676:	4770      	bx	lr
 8006678:	2a04      	cmp	r2, #4
 800667a:	d101      	bne.n	8006680 <MTR_setSpeed+0x1c>
 800667c:	6399      	str	r1, [r3, #56]	; 0x38
 800667e:	e7f9      	b.n	8006674 <MTR_setSpeed+0x10>
 8006680:	2a08      	cmp	r2, #8
 8006682:	bf0c      	ite	eq
 8006684:	63d9      	streq	r1, [r3, #60]	; 0x3c
 8006686:	6419      	strne	r1, [r3, #64]	; 0x40
 8006688:	e7f4      	b.n	8006674 <MTR_setSpeed+0x10>

0800668a <MTR_init>:
 800668a:	b510      	push	{r4, lr}
 800668c:	4604      	mov	r4, r0
 800668e:	6083      	str	r3, [r0, #8]
 8006690:	9b02      	ldr	r3, [sp, #8]
 8006692:	e9c0 1200 	strd	r1, r2, [r0]
 8006696:	60c3      	str	r3, [r0, #12]
 8006698:	9b03      	ldr	r3, [sp, #12]
 800669a:	2100      	movs	r1, #0
 800669c:	6103      	str	r3, [r0, #16]
 800669e:	9b04      	ldr	r3, [sp, #16]
 80066a0:	61c3      	str	r3, [r0, #28]
 80066a2:	9b05      	ldr	r3, [sp, #20]
 80066a4:	6203      	str	r3, [r0, #32]
 80066a6:	f7ff ffc1 	bl	800662c <MTR_setDirection>
 80066aa:	4620      	mov	r0, r4
 80066ac:	e8bd 4010 	ldmia.w	sp!, {r4, lr}
 80066b0:	2100      	movs	r1, #0
 80066b2:	f7ff bfd7 	b.w	8006664 <MTR_setSpeed>

080066b6 <MTR_getSpeed>:
 80066b6:	6980      	ldr	r0, [r0, #24]
 80066b8:	4770      	bx	lr

080066ba <PID_reset>:
 80066ba:	2300      	movs	r3, #0
 80066bc:	6203      	str	r3, [r0, #32]
 80066be:	6243      	str	r3, [r0, #36]	; 0x24
 80066c0:	6283      	str	r3, [r0, #40]	; 0x28
 80066c2:	62c3      	str	r3, [r0, #44]	; 0x2c
 80066c4:	6303      	str	r3, [r0, #48]	; 0x30
 80066c6:	4770      	bx	lr

080066c8 <PID_init>:
 80066c8:	b5f8      	push	{r3, r4, r5, r6, r7, lr}
 80066ca:	4604      	mov	r4, r0
 80066cc:	60a3      	str	r3, [r4, #8]
 80066ce:	9b06      	ldr	r3, [sp, #24]
 80066d0:	9808      	ldr	r0, [sp, #32]
 80066d2:	9f09      	ldr	r7, [sp, #36]	; 0x24
 80066d4:	60e3      	str	r3, [r4, #12]
 80066d6:	9b07      	ldr	r3, [sp, #28]
 80066d8:	6021      	str	r1, [r4, #0]
 80066da:	6062      	str	r2, [r4, #4]
 80066dc:	6123      	str	r3, [r4, #16]
 80066de:	6160      	str	r0, [r4, #20]
 80066e0:	61a7      	str	r7, [r4, #24]
 80066e2:	f7fa fccd 	bl	8001080 <__aeabi_f2iz>
 80066e6:	ea80 75e0 	eor.w	r5, r0, r0, asr #31
 80066ea:	eba5 75e0 	sub.w	r5, r5, r0, asr #31
 80066ee:	4638      	mov	r0, r7
 80066f0:	f7fa fcc6 	bl	8001080 <__aeabi_f2iz>
 80066f4:	2800      	cmp	r0, #0
 80066f6:	bfb8      	it	lt
 80066f8:	4240      	neglt	r0, r0
 80066fa:	4285      	cmp	r5, r0
 80066fc:	9e0a      	ldr	r6, [sp, #40]	; 0x28
 80066fe:	bfc8      	it	gt
 8006700:	4628      	movgt	r0, r5
 8006702:	f7fa fb19 	bl	8000d38 <__aeabi_i2f>
 8006706:	4631      	mov	r1, r6
 8006708:	f7fa fb6a 	bl	8000de0 <__aeabi_fmul>
 800670c:	61e0      	str	r0, [r4, #28]
 800670e:	4620      	mov	r0, r4
 8006710:	e8bd 40f8 	ldmia.w	sp!, {r3, r4, r5, r6, r7, lr}
 8006714:	f7ff bfd1 	b.w	80066ba <PID_reset>

08006718 <PID_setKp>:
 8006718:	6041      	str	r1, [r0, #4]
 800671a:	4770      	bx	lr

0800671c <PID_setKi>:
 800671c:	6081      	str	r1, [r0, #8]
 800671e:	4770      	bx	lr

08006720 <PID_setKd>:
 8006720:	60c1      	str	r1, [r0, #12]
 8006722:	4770      	bx	lr

08006724 <PID_setTargetValue>:
 8006724:	6101      	str	r1, [r0, #16]
 8006726:	4770      	bx	lr

08006728 <PID_update>:
 8006728:	e92d 47f3 	stmdb	sp!, {r0, r1, r4, r5, r6, r7, r8, r9, sl, lr}
 800672c:	4604      	mov	r4, r0
 800672e:	6900      	ldr	r0, [r0, #16]
 8006730:	4616      	mov	r6, r2
 8006732:	f7fa fa4b 	bl	8000bcc <__aeabi_fsub>
 8006736:	f7fa fca3 	bl	8001080 <__aeabi_f2iz>
 800673a:	4607      	mov	r7, r0
 800673c:	f7fa fafc 	bl	8000d38 <__aeabi_i2f>
 8006740:	4605      	mov	r5, r0
 8006742:	6220      	str	r0, [r4, #32]
 8006744:	fb06 f007 	mul.w	r0, r6, r7
 8006748:	f7fa faf2 	bl	8000d30 <__aeabi_ui2f>
 800674c:	6a61      	ldr	r1, [r4, #36]	; 0x24
 800674e:	f7fa fa3f 	bl	8000bd0 <__addsf3>
 8006752:	f8d4 801c 	ldr.w	r8, [r4, #28]
 8006756:	4607      	mov	r7, r0
 8006758:	6260      	str	r0, [r4, #36]	; 0x24
 800675a:	4640      	mov	r0, r8
 800675c:	f7fa fc90 	bl	8001080 <__aeabi_f2iz>
 8006760:	4682      	mov	sl, r0
 8006762:	f108 4000 	add.w	r0, r8, #2147483648	; 0x80000000
 8006766:	f7fa fc8b 	bl	8001080 <__aeabi_f2iz>
 800676a:	f04f 0800 	mov.w	r8, #0
 800676e:	4681      	mov	r9, r0
 8006770:	4638      	mov	r0, r7
 8006772:	f7fa fc85 	bl	8001080 <__aeabi_f2iz>
 8006776:	4652      	mov	r2, sl
 8006778:	2301      	movs	r3, #1
 800677a:	4649      	mov	r1, r9
 800677c:	f8cd 8000 	str.w	r8, [sp]
 8006780:	f000 f8b4 	bl	80068ec <UTI_clampIntValue>
 8006784:	f7fa fad8 	bl	8000d38 <__aeabi_i2f>
 8006788:	6b21      	ldr	r1, [r4, #48]	; 0x30
 800678a:	4607      	mov	r7, r0
 800678c:	6260      	str	r0, [r4, #36]	; 0x24
 800678e:	4628      	mov	r0, r5
 8006790:	f7fa fa1c 	bl	8000bcc <__aeabi_fsub>
 8006794:	4681      	mov	r9, r0
 8006796:	4630      	mov	r0, r6
 8006798:	f7fa faca 	bl	8000d30 <__aeabi_ui2f>
 800679c:	4601      	mov	r1, r0
 800679e:	4648      	mov	r0, r9
 80067a0:	f7fa fbd2 	bl	8000f48 <__aeabi_fdiv>
 80067a4:	6a21      	ldr	r1, [r4, #32]
 80067a6:	4606      	mov	r6, r0
 80067a8:	62a0      	str	r0, [r4, #40]	; 0x28
 80067aa:	6325      	str	r5, [r4, #48]	; 0x30
 80067ac:	6860      	ldr	r0, [r4, #4]
 80067ae:	f7fa fb17 	bl	8000de0 <__aeabi_fmul>
 80067b2:	68a1      	ldr	r1, [r4, #8]
 80067b4:	4605      	mov	r5, r0
 80067b6:	4638      	mov	r0, r7
 80067b8:	f7fa fb12 	bl	8000de0 <__aeabi_fmul>
 80067bc:	4601      	mov	r1, r0
 80067be:	4628      	mov	r0, r5
 80067c0:	f7fa fa06 	bl	8000bd0 <__addsf3>
 80067c4:	68e1      	ldr	r1, [r4, #12]
 80067c6:	4605      	mov	r5, r0
 80067c8:	4630      	mov	r0, r6
 80067ca:	f7fa fb09 	bl	8000de0 <__aeabi_fmul>
 80067ce:	4601      	mov	r1, r0
 80067d0:	4628      	mov	r0, r5
 80067d2:	f7fa f9fd 	bl	8000bd0 <__addsf3>
 80067d6:	4605      	mov	r5, r0
 80067d8:	62e0      	str	r0, [r4, #44]	; 0x2c
 80067da:	69a0      	ldr	r0, [r4, #24]
 80067dc:	f7fa fc50 	bl	8001080 <__aeabi_f2iz>
 80067e0:	4607      	mov	r7, r0
 80067e2:	6960      	ldr	r0, [r4, #20]
 80067e4:	f7fa fc4c 	bl	8001080 <__aeabi_f2iz>
 80067e8:	4606      	mov	r6, r0
 80067ea:	4628      	mov	r0, r5
 80067ec:	f7fa fc48 	bl	8001080 <__aeabi_f2iz>
 80067f0:	2301      	movs	r3, #1
 80067f2:	463a      	mov	r2, r7
 80067f4:	4631      	mov	r1, r6
 80067f6:	f8cd 8000 	str.w	r8, [sp]
 80067fa:	f000 f877 	bl	80068ec <UTI_clampIntValue>
 80067fe:	f7fa fa9b 	bl	8000d38 <__aeabi_i2f>
 8006802:	62e0      	str	r0, [r4, #44]	; 0x2c
 8006804:	b002      	add	sp, #8
 8006806:	e8bd 87f0 	ldmia.w	sp!, {r4, r5, r6, r7, r8, r9, sl, pc}

0800680a <SFO_initData>:
 800680a:	2210      	movs	r2, #16
 800680c:	2100      	movs	r1, #0
 800680e:	f000 b8f5 	b.w	80069fc <memset>

08006812 <SFO_init>:
 8006812:	2300      	movs	r3, #0
 8006814:	e9c0 3300 	strd	r3, r3, [r0]
 8006818:	6083      	str	r3, [r0, #8]
 800681a:	4770      	bx	lr

0800681c <SFO_push>:
 800681c:	b5f8      	push	{r3, r4, r5, r6, r7, lr}
 800681e:	6886      	ldr	r6, [r0, #8]
 8006820:	4604      	mov	r4, r0
 8006822:	2e0a      	cmp	r6, #10
 8006824:	460f      	mov	r7, r1
 8006826:	d010      	beq.n	800684a <SFO_push+0x2e>
 8006828:	2014      	movs	r0, #20
 800682a:	f000 f8d7 	bl	80069dc <malloc>
 800682e:	4605      	mov	r5, r0
 8006830:	b158      	cbz	r0, 800684a <SFO_push+0x2e>
 8006832:	2210      	movs	r2, #16
 8006834:	4639      	mov	r1, r7
 8006836:	f000 f9d3 	bl	8006be0 <strncpy>
 800683a:	6823      	ldr	r3, [r4, #0]
 800683c:	6025      	str	r5, [r4, #0]
 800683e:	612b      	str	r3, [r5, #16]
 8006840:	6863      	ldr	r3, [r4, #4]
 8006842:	b903      	cbnz	r3, 8006846 <SFO_push+0x2a>
 8006844:	6065      	str	r5, [r4, #4]
 8006846:	3601      	adds	r6, #1
 8006848:	60a6      	str	r6, [r4, #8]
 800684a:	bdf8      	pop	{r3, r4, r5, r6, r7, pc}

0800684c <SFO_pop>:
 800684c:	b510      	push	{r4, lr}
 800684e:	4604      	mov	r4, r0
 8006850:	68a3      	ldr	r3, [r4, #8]
 8006852:	4608      	mov	r0, r1
 8006854:	b1a3      	cbz	r3, 8006880 <SFO_pop+0x34>
 8006856:	2210      	movs	r2, #16
 8006858:	6861      	ldr	r1, [r4, #4]
 800685a:	f000 f9c1 	bl	8006be0 <strncpy>
 800685e:	6860      	ldr	r0, [r4, #4]
 8006860:	f000 f8c4 	bl	80069ec <free>
 8006864:	68a3      	ldr	r3, [r4, #8]
 8006866:	2b01      	cmp	r3, #1
 8006868:	d90b      	bls.n	8006882 <SFO_pop+0x36>
 800686a:	e9d4 2000 	ldrd	r2, r0, [r4]
 800686e:	4611      	mov	r1, r2
 8006870:	6912      	ldr	r2, [r2, #16]
 8006872:	4282      	cmp	r2, r0
 8006874:	d1fb      	bne.n	800686e <SFO_pop+0x22>
 8006876:	2200      	movs	r2, #0
 8006878:	3b01      	subs	r3, #1
 800687a:	610a      	str	r2, [r1, #16]
 800687c:	6061      	str	r1, [r4, #4]
 800687e:	60a3      	str	r3, [r4, #8]
 8006880:	bd10      	pop	{r4, pc}
 8006882:	2300      	movs	r3, #0
 8006884:	e9c4 3300 	strd	r3, r3, [r4]
 8006888:	e7f9      	b.n	800687e <SFO_pop+0x32>

0800688a <SFO_getCount>:
 800688a:	6880      	ldr	r0, [r0, #8]
 800688c:	4770      	bx	lr

0800688e <SFO_logInfo>:
 800688e:	6883      	ldr	r3, [r0, #8]
 8006890:	b10b      	cbz	r3, 8006896 <SFO_logInfo+0x8>
 8006892:	6803      	ldr	r3, [r0, #0]
 8006894:	b903      	cbnz	r3, 8006898 <SFO_logInfo+0xa>
 8006896:	4770      	bx	lr
 8006898:	691b      	ldr	r3, [r3, #16]
 800689a:	e7fb      	b.n	8006894 <SFO_logInfo+0x6>

0800689c <UTI_init>:
 800689c:	4b01      	ldr	r3, [pc, #4]	; (80068a4 <UTI_init+0x8>)
 800689e:	6018      	str	r0, [r3, #0]
 80068a0:	4770      	bx	lr
 80068a2:	bf00      	nop
 80068a4:	200004e0 	.word	0x200004e0

080068a8 <UTI_delayUs>:
 80068a8:	2200      	movs	r2, #0
 80068aa:	4b04      	ldr	r3, [pc, #16]	; (80068bc <UTI_delayUs+0x14>)
 80068ac:	681b      	ldr	r3, [r3, #0]
 80068ae:	681b      	ldr	r3, [r3, #0]
 80068b0:	625a      	str	r2, [r3, #36]	; 0x24
 80068b2:	6a5a      	ldr	r2, [r3, #36]	; 0x24
 80068b4:	4282      	cmp	r2, r0
 80068b6:	d3fc      	bcc.n	80068b2 <UTI_delayUs+0xa>
 80068b8:	4770      	bx	lr
 80068ba:	bf00      	nop
 80068bc:	200004e0 	.word	0x200004e0

080068c0 <UTI_resetRtcDate>:
 80068c0:	2300      	movs	r3, #0
 80068c2:	7083      	strb	r3, [r0, #2]
 80068c4:	7043      	strb	r3, [r0, #1]
 80068c6:	7003      	strb	r3, [r0, #0]
 80068c8:	70c3      	strb	r3, [r0, #3]
 80068ca:	4770      	bx	lr

080068cc <UTI_resetRtcTime>:
 80068cc:	2300      	movs	r3, #0
 80068ce:	7003      	strb	r3, [r0, #0]
 80068d0:	7043      	strb	r3, [r0, #1]
 80068d2:	7083      	strb	r3, [r0, #2]
 80068d4:	4770      	bx	lr

080068d6 <UTI_turnRtcTimeToSeconds>:
 80068d6:	223c      	movs	r2, #60	; 0x3c
 80068d8:	7841      	ldrb	r1, [r0, #1]
 80068da:	7803      	ldrb	r3, [r0, #0]
 80068dc:	434a      	muls	r2, r1
 80068de:	f44f 6161 	mov.w	r1, #3600	; 0xe10
 80068e2:	fb01 2303 	mla	r3, r1, r3, r2
 80068e6:	7880      	ldrb	r0, [r0, #2]
 80068e8:	4418      	add	r0, r3
 80068ea:	4770      	bx	lr

080068ec <UTI_clampIntValue>:
 80068ec:	b510      	push	{r4, lr}
 80068ee:	4604      	mov	r4, r0
 80068f0:	428c      	cmp	r4, r1
 80068f2:	9802      	ldr	r0, [sp, #8]
 80068f4:	da03      	bge.n	80068fe <UTI_clampIntValue+0x12>
 80068f6:	2b00      	cmp	r3, #0
 80068f8:	bf18      	it	ne
 80068fa:	4608      	movne	r0, r1
 80068fc:	bd10      	pop	{r4, pc}
 80068fe:	4294      	cmp	r4, r2
 8006900:	dd03      	ble.n	800690a <UTI_clampIntValue+0x1e>
 8006902:	2b00      	cmp	r3, #0
 8006904:	bf18      	it	ne
 8006906:	4610      	movne	r0, r2
 8006908:	e7f8      	b.n	80068fc <UTI_clampIntValue+0x10>
 800690a:	4620      	mov	r0, r4
 800690c:	e7f6      	b.n	80068fc <UTI_clampIntValue+0x10>

0800690e <UTI_normalizeIntValue>:
 800690e:	e92d 43f8 	stmdb	sp!, {r3, r4, r5, r6, r7, r8, r9, lr}
 8006912:	4607      	mov	r7, r0
 8006914:	4618      	mov	r0, r3
 8006916:	4691      	mov	r9, r2
 8006918:	460d      	mov	r5, r1
 800691a:	f7fa fa0d 	bl	8000d38 <__aeabi_i2f>
 800691e:	4604      	mov	r4, r0
 8006920:	9808      	ldr	r0, [sp, #32]
 8006922:	f7fa fa09 	bl	8000d38 <__aeabi_i2f>
 8006926:	4621      	mov	r1, r4
 8006928:	f7fa f950 	bl	8000bcc <__aeabi_fsub>
 800692c:	4606      	mov	r6, r0
 800692e:	4648      	mov	r0, r9
 8006930:	f7fa fa02 	bl	8000d38 <__aeabi_i2f>
 8006934:	4681      	mov	r9, r0
 8006936:	4628      	mov	r0, r5
 8006938:	f7fa f9fe 	bl	8000d38 <__aeabi_i2f>
 800693c:	4601      	mov	r1, r0
 800693e:	4648      	mov	r0, r9
 8006940:	f7fa f944 	bl	8000bcc <__aeabi_fsub>
 8006944:	4601      	mov	r1, r0
 8006946:	4630      	mov	r0, r6
 8006948:	f7fa fafe 	bl	8000f48 <__aeabi_fdiv>
 800694c:	4606      	mov	r6, r0
 800694e:	1b78      	subs	r0, r7, r5
 8006950:	f7fa f9f2 	bl	8000d38 <__aeabi_i2f>
 8006954:	f89d 8024 	ldrb.w	r8, [sp, #36]	; 0x24
 8006958:	4601      	mov	r1, r0
 800695a:	4630      	mov	r0, r6
 800695c:	f7fa fa40 	bl	8000de0 <__aeabi_fmul>
 8006960:	4621      	mov	r1, r4
 8006962:	f7fa f935 	bl	8000bd0 <__addsf3>
 8006966:	f1b8 0f00 	cmp.w	r8, #0
 800696a:	d001      	beq.n	8006970 <UTI_normalizeIntValue+0x62>
 800696c:	f100 4000 	add.w	r0, r0, #2147483648	; 0x80000000
 8006970:	f7fa fb86 	bl	8001080 <__aeabi_f2iz>
 8006974:	e8bd 83f8 	ldmia.w	sp!, {r3, r4, r5, r6, r7, r8, r9, pc}

08006978 <atof>:
 8006978:	2100      	movs	r1, #0
 800697a:	f000 bf59 	b.w	8007830 <strtod>

0800697e <atoi>:
 800697e:	220a      	movs	r2, #10
 8006980:	2100      	movs	r1, #0
 8006982:	f000 bfe7 	b.w	8007954 <strtol>
	...

08006988 <__errno>:
 8006988:	4b01      	ldr	r3, [pc, #4]	; (8006990 <__errno+0x8>)
 800698a:	6818      	ldr	r0, [r3, #0]
 800698c:	4770      	bx	lr
 800698e:	bf00      	nop
 8006990:	20000010 	.word	0x20000010

08006994 <__libc_init_array>:
 8006994:	b570      	push	{r4, r5, r6, lr}
 8006996:	2600      	movs	r6, #0
 8006998:	4d0c      	ldr	r5, [pc, #48]	; (80069cc <__libc_init_array+0x38>)
 800699a:	4c0d      	ldr	r4, [pc, #52]	; (80069d0 <__libc_init_array+0x3c>)
 800699c:	1b64      	subs	r4, r4, r5
 800699e:	10a4      	asrs	r4, r4, #2
 80069a0:	42a6      	cmp	r6, r4
 80069a2:	d109      	bne.n	80069b8 <__libc_init_array+0x24>
 80069a4:	f003 f906 	bl	8009bb4 <_init>
 80069a8:	2600      	movs	r6, #0
 80069aa:	4d0a      	ldr	r5, [pc, #40]	; (80069d4 <__libc_init_array+0x40>)
 80069ac:	4c0a      	ldr	r4, [pc, #40]	; (80069d8 <__libc_init_array+0x44>)
 80069ae:	1b64      	subs	r4, r4, r5
 80069b0:	10a4      	asrs	r4, r4, #2
 80069b2:	42a6      	cmp	r6, r4
 80069b4:	d105      	bne.n	80069c2 <__libc_init_array+0x2e>
 80069b6:	bd70      	pop	{r4, r5, r6, pc}
 80069b8:	f855 3b04 	ldr.w	r3, [r5], #4
 80069bc:	4798      	blx	r3
 80069be:	3601      	adds	r6, #1
 80069c0:	e7ee      	b.n	80069a0 <__libc_init_array+0xc>
 80069c2:	f855 3b04 	ldr.w	r3, [r5], #4
 80069c6:	4798      	blx	r3
 80069c8:	3601      	adds	r6, #1
 80069ca:	e7f2      	b.n	80069b2 <__libc_init_array+0x1e>
 80069cc:	0800a284 	.word	0x0800a284
 80069d0:	0800a284 	.word	0x0800a284
 80069d4:	0800a284 	.word	0x0800a284
 80069d8:	0800a288 	.word	0x0800a288

080069dc <malloc>:
 80069dc:	4b02      	ldr	r3, [pc, #8]	; (80069e8 <malloc+0xc>)
 80069de:	4601      	mov	r1, r0
 80069e0:	6818      	ldr	r0, [r3, #0]
 80069e2:	f000 b85f 	b.w	8006aa4 <_malloc_r>
 80069e6:	bf00      	nop
 80069e8:	20000010 	.word	0x20000010

080069ec <free>:
 80069ec:	4b02      	ldr	r3, [pc, #8]	; (80069f8 <free+0xc>)
 80069ee:	4601      	mov	r1, r0
 80069f0:	6818      	ldr	r0, [r3, #0]
 80069f2:	f000 b80b 	b.w	8006a0c <_free_r>
 80069f6:	bf00      	nop
 80069f8:	20000010 	.word	0x20000010

080069fc <memset>:
 80069fc:	4603      	mov	r3, r0
 80069fe:	4402      	add	r2, r0
 8006a00:	4293      	cmp	r3, r2
 8006a02:	d100      	bne.n	8006a06 <memset+0xa>
 8006a04:	4770      	bx	lr
 8006a06:	f803 1b01 	strb.w	r1, [r3], #1
 8006a0a:	e7f9      	b.n	8006a00 <memset+0x4>

08006a0c <_free_r>:
 8006a0c:	b538      	push	{r3, r4, r5, lr}
 8006a0e:	4605      	mov	r5, r0
 8006a10:	2900      	cmp	r1, #0
 8006a12:	d043      	beq.n	8006a9c <_free_r+0x90>
 8006a14:	f851 3c04 	ldr.w	r3, [r1, #-4]
 8006a18:	1f0c      	subs	r4, r1, #4
 8006a1a:	2b00      	cmp	r3, #0
 8006a1c:	bfb8      	it	lt
 8006a1e:	18e4      	addlt	r4, r4, r3
 8006a20:	f001 fc22 	bl	8008268 <__malloc_lock>
 8006a24:	4a1e      	ldr	r2, [pc, #120]	; (8006aa0 <_free_r+0x94>)
 8006a26:	6813      	ldr	r3, [r2, #0]
 8006a28:	4610      	mov	r0, r2
 8006a2a:	b933      	cbnz	r3, 8006a3a <_free_r+0x2e>
 8006a2c:	6063      	str	r3, [r4, #4]
 8006a2e:	6014      	str	r4, [r2, #0]
 8006a30:	4628      	mov	r0, r5
 8006a32:	e8bd 4038 	ldmia.w	sp!, {r3, r4, r5, lr}
 8006a36:	f001 bc1d 	b.w	8008274 <__malloc_unlock>
 8006a3a:	42a3      	cmp	r3, r4
 8006a3c:	d90a      	bls.n	8006a54 <_free_r+0x48>
 8006a3e:	6821      	ldr	r1, [r4, #0]
 8006a40:	1862      	adds	r2, r4, r1
 8006a42:	4293      	cmp	r3, r2
 8006a44:	bf01      	itttt	eq
 8006a46:	681a      	ldreq	r2, [r3, #0]
 8006a48:	685b      	ldreq	r3, [r3, #4]
 8006a4a:	1852      	addeq	r2, r2, r1
 8006a4c:	6022      	streq	r2, [r4, #0]
 8006a4e:	6063      	str	r3, [r4, #4]
 8006a50:	6004      	str	r4, [r0, #0]
 8006a52:	e7ed      	b.n	8006a30 <_free_r+0x24>
 8006a54:	461a      	mov	r2, r3
 8006a56:	685b      	ldr	r3, [r3, #4]
 8006a58:	b10b      	cbz	r3, 8006a5e <_free_r+0x52>
 8006a5a:	42a3      	cmp	r3, r4
 8006a5c:	d9fa      	bls.n	8006a54 <_free_r+0x48>
 8006a5e:	6811      	ldr	r1, [r2, #0]
 8006a60:	1850      	adds	r0, r2, r1
 8006a62:	42a0      	cmp	r0, r4
 8006a64:	d10b      	bne.n	8006a7e <_free_r+0x72>
 8006a66:	6820      	ldr	r0, [r4, #0]
 8006a68:	4401      	add	r1, r0
 8006a6a:	1850      	adds	r0, r2, r1
 8006a6c:	4283      	cmp	r3, r0
 8006a6e:	6011      	str	r1, [r2, #0]
 8006a70:	d1de      	bne.n	8006a30 <_free_r+0x24>
 8006a72:	6818      	ldr	r0, [r3, #0]
 8006a74:	685b      	ldr	r3, [r3, #4]
 8006a76:	4401      	add	r1, r0
 8006a78:	6011      	str	r1, [r2, #0]
 8006a7a:	6053      	str	r3, [r2, #4]
 8006a7c:	e7d8      	b.n	8006a30 <_free_r+0x24>
 8006a7e:	d902      	bls.n	8006a86 <_free_r+0x7a>
 8006a80:	230c      	movs	r3, #12
 8006a82:	602b      	str	r3, [r5, #0]
 8006a84:	e7d4      	b.n	8006a30 <_free_r+0x24>
 8006a86:	6820      	ldr	r0, [r4, #0]
 8006a88:	1821      	adds	r1, r4, r0
 8006a8a:	428b      	cmp	r3, r1
 8006a8c:	bf01      	itttt	eq
 8006a8e:	6819      	ldreq	r1, [r3, #0]
 8006a90:	685b      	ldreq	r3, [r3, #4]
 8006a92:	1809      	addeq	r1, r1, r0
 8006a94:	6021      	streq	r1, [r4, #0]
 8006a96:	6063      	str	r3, [r4, #4]
 8006a98:	6054      	str	r4, [r2, #4]
 8006a9a:	e7c9      	b.n	8006a30 <_free_r+0x24>
 8006a9c:	bd38      	pop	{r3, r4, r5, pc}
 8006a9e:	bf00      	nop
 8006aa0:	200004e4 	.word	0x200004e4

08006aa4 <_malloc_r>:
 8006aa4:	b5f8      	push	{r3, r4, r5, r6, r7, lr}
 8006aa6:	1ccd      	adds	r5, r1, #3
 8006aa8:	f025 0503 	bic.w	r5, r5, #3
 8006aac:	3508      	adds	r5, #8
 8006aae:	2d0c      	cmp	r5, #12
 8006ab0:	bf38      	it	cc
 8006ab2:	250c      	movcc	r5, #12
 8006ab4:	2d00      	cmp	r5, #0
 8006ab6:	4606      	mov	r6, r0
 8006ab8:	db01      	blt.n	8006abe <_malloc_r+0x1a>
 8006aba:	42a9      	cmp	r1, r5
 8006abc:	d903      	bls.n	8006ac6 <_malloc_r+0x22>
 8006abe:	230c      	movs	r3, #12
 8006ac0:	6033      	str	r3, [r6, #0]
 8006ac2:	2000      	movs	r0, #0
 8006ac4:	bdf8      	pop	{r3, r4, r5, r6, r7, pc}
 8006ac6:	f001 fbcf 	bl	8008268 <__malloc_lock>
 8006aca:	4921      	ldr	r1, [pc, #132]	; (8006b50 <_malloc_r+0xac>)
 8006acc:	680a      	ldr	r2, [r1, #0]
 8006ace:	4614      	mov	r4, r2
 8006ad0:	b99c      	cbnz	r4, 8006afa <_malloc_r+0x56>
 8006ad2:	4f20      	ldr	r7, [pc, #128]	; (8006b54 <_malloc_r+0xb0>)
 8006ad4:	683b      	ldr	r3, [r7, #0]
 8006ad6:	b923      	cbnz	r3, 8006ae2 <_malloc_r+0x3e>
 8006ad8:	4621      	mov	r1, r4
 8006ada:	4630      	mov	r0, r6
 8006adc:	f000 f83c 	bl	8006b58 <_sbrk_r>
 8006ae0:	6038      	str	r0, [r7, #0]
 8006ae2:	4629      	mov	r1, r5
 8006ae4:	4630      	mov	r0, r6
 8006ae6:	f000 f837 	bl	8006b58 <_sbrk_r>
 8006aea:	1c43      	adds	r3, r0, #1
 8006aec:	d123      	bne.n	8006b36 <_malloc_r+0x92>
 8006aee:	230c      	movs	r3, #12
 8006af0:	4630      	mov	r0, r6
 8006af2:	6033      	str	r3, [r6, #0]
 8006af4:	f001 fbbe 	bl	8008274 <__malloc_unlock>
 8006af8:	e7e3      	b.n	8006ac2 <_malloc_r+0x1e>
 8006afa:	6823      	ldr	r3, [r4, #0]
 8006afc:	1b5b      	subs	r3, r3, r5
 8006afe:	d417      	bmi.n	8006b30 <_malloc_r+0x8c>
 8006b00:	2b0b      	cmp	r3, #11
 8006b02:	d903      	bls.n	8006b0c <_malloc_r+0x68>
 8006b04:	6023      	str	r3, [r4, #0]
 8006b06:	441c      	add	r4, r3
 8006b08:	6025      	str	r5, [r4, #0]
 8006b0a:	e004      	b.n	8006b16 <_malloc_r+0x72>
 8006b0c:	6863      	ldr	r3, [r4, #4]
 8006b0e:	42a2      	cmp	r2, r4
 8006b10:	bf0c      	ite	eq
 8006b12:	600b      	streq	r3, [r1, #0]
 8006b14:	6053      	strne	r3, [r2, #4]
 8006b16:	4630      	mov	r0, r6
 8006b18:	f001 fbac 	bl	8008274 <__malloc_unlock>
 8006b1c:	f104 000b 	add.w	r0, r4, #11
 8006b20:	1d23      	adds	r3, r4, #4
 8006b22:	f020 0007 	bic.w	r0, r0, #7
 8006b26:	1ac2      	subs	r2, r0, r3
 8006b28:	d0cc      	beq.n	8006ac4 <_malloc_r+0x20>
 8006b2a:	1a1b      	subs	r3, r3, r0
 8006b2c:	50a3      	str	r3, [r4, r2]
 8006b2e:	e7c9      	b.n	8006ac4 <_malloc_r+0x20>
 8006b30:	4622      	mov	r2, r4
 8006b32:	6864      	ldr	r4, [r4, #4]
 8006b34:	e7cc      	b.n	8006ad0 <_malloc_r+0x2c>
 8006b36:	1cc4      	adds	r4, r0, #3
 8006b38:	f024 0403 	bic.w	r4, r4, #3
 8006b3c:	42a0      	cmp	r0, r4
 8006b3e:	d0e3      	beq.n	8006b08 <_malloc_r+0x64>
 8006b40:	1a21      	subs	r1, r4, r0
 8006b42:	4630      	mov	r0, r6
 8006b44:	f000 f808 	bl	8006b58 <_sbrk_r>
 8006b48:	3001      	adds	r0, #1
 8006b4a:	d1dd      	bne.n	8006b08 <_malloc_r+0x64>
 8006b4c:	e7cf      	b.n	8006aee <_malloc_r+0x4a>
 8006b4e:	bf00      	nop
 8006b50:	200004e4 	.word	0x200004e4
 8006b54:	200004e8 	.word	0x200004e8

08006b58 <_sbrk_r>:
 8006b58:	b538      	push	{r3, r4, r5, lr}
 8006b5a:	2300      	movs	r3, #0
 8006b5c:	4d05      	ldr	r5, [pc, #20]	; (8006b74 <_sbrk_r+0x1c>)
 8006b5e:	4604      	mov	r4, r0
 8006b60:	4608      	mov	r0, r1
 8006b62:	602b      	str	r3, [r5, #0]
 8006b64:	f7fb fa06 	bl	8001f74 <_sbrk>
 8006b68:	1c43      	adds	r3, r0, #1
 8006b6a:	d102      	bne.n	8006b72 <_sbrk_r+0x1a>
 8006b6c:	682b      	ldr	r3, [r5, #0]
 8006b6e:	b103      	cbz	r3, 8006b72 <_sbrk_r+0x1a>
 8006b70:	6023      	str	r3, [r4, #0]
 8006b72:	bd38      	pop	{r3, r4, r5, pc}
 8006b74:	20000bcc 	.word	0x20000bcc

08006b78 <sniprintf>:
 8006b78:	b40c      	push	{r2, r3}
 8006b7a:	b530      	push	{r4, r5, lr}
 8006b7c:	4b17      	ldr	r3, [pc, #92]	; (8006bdc <sniprintf+0x64>)
 8006b7e:	1e0c      	subs	r4, r1, #0
 8006b80:	681d      	ldr	r5, [r3, #0]
 8006b82:	b09d      	sub	sp, #116	; 0x74
 8006b84:	da08      	bge.n	8006b98 <sniprintf+0x20>
 8006b86:	238b      	movs	r3, #139	; 0x8b
 8006b88:	f04f 30ff 	mov.w	r0, #4294967295
 8006b8c:	602b      	str	r3, [r5, #0]
 8006b8e:	b01d      	add	sp, #116	; 0x74
 8006b90:	e8bd 4030 	ldmia.w	sp!, {r4, r5, lr}
 8006b94:	b002      	add	sp, #8
 8006b96:	4770      	bx	lr
 8006b98:	f44f 7302 	mov.w	r3, #520	; 0x208
 8006b9c:	f8ad 3014 	strh.w	r3, [sp, #20]
 8006ba0:	bf0c      	ite	eq
 8006ba2:	4623      	moveq	r3, r4
 8006ba4:	f104 33ff 	addne.w	r3, r4, #4294967295
 8006ba8:	9304      	str	r3, [sp, #16]
 8006baa:	9307      	str	r3, [sp, #28]
 8006bac:	f64f 73ff 	movw	r3, #65535	; 0xffff
 8006bb0:	9002      	str	r0, [sp, #8]
 8006bb2:	9006      	str	r0, [sp, #24]
 8006bb4:	f8ad 3016 	strh.w	r3, [sp, #22]
 8006bb8:	4628      	mov	r0, r5
 8006bba:	ab21      	add	r3, sp, #132	; 0x84
 8006bbc:	9a20      	ldr	r2, [sp, #128]	; 0x80
 8006bbe:	a902      	add	r1, sp, #8
 8006bc0:	9301      	str	r3, [sp, #4]
 8006bc2:	f002 f87f 	bl	8008cc4 <_svfiprintf_r>
 8006bc6:	1c43      	adds	r3, r0, #1
 8006bc8:	bfbc      	itt	lt
 8006bca:	238b      	movlt	r3, #139	; 0x8b
 8006bcc:	602b      	strlt	r3, [r5, #0]
 8006bce:	2c00      	cmp	r4, #0
 8006bd0:	d0dd      	beq.n	8006b8e <sniprintf+0x16>
 8006bd2:	2200      	movs	r2, #0
 8006bd4:	9b02      	ldr	r3, [sp, #8]
 8006bd6:	701a      	strb	r2, [r3, #0]
 8006bd8:	e7d9      	b.n	8006b8e <sniprintf+0x16>
 8006bda:	bf00      	nop
 8006bdc:	20000010 	.word	0x20000010

08006be0 <strncpy>:
 8006be0:	4603      	mov	r3, r0
 8006be2:	b510      	push	{r4, lr}
 8006be4:	3901      	subs	r1, #1
 8006be6:	b132      	cbz	r2, 8006bf6 <strncpy+0x16>
 8006be8:	f811 4f01 	ldrb.w	r4, [r1, #1]!
 8006bec:	3a01      	subs	r2, #1
 8006bee:	f803 4b01 	strb.w	r4, [r3], #1
 8006bf2:	2c00      	cmp	r4, #0
 8006bf4:	d1f7      	bne.n	8006be6 <strncpy+0x6>
 8006bf6:	2100      	movs	r1, #0
 8006bf8:	441a      	add	r2, r3
 8006bfa:	4293      	cmp	r3, r2
 8006bfc:	d100      	bne.n	8006c00 <strncpy+0x20>
 8006bfe:	bd10      	pop	{r4, pc}
 8006c00:	f803 1b01 	strb.w	r1, [r3], #1
 8006c04:	e7f9      	b.n	8006bfa <strncpy+0x1a>

08006c06 <sulp>:
 8006c06:	e92d 41f0 	stmdb	sp!, {r4, r5, r6, r7, r8, lr}
 8006c0a:	460f      	mov	r7, r1
 8006c0c:	4690      	mov	r8, r2
 8006c0e:	f001 fea7 	bl	8008960 <__ulp>
 8006c12:	4604      	mov	r4, r0
 8006c14:	460d      	mov	r5, r1
 8006c16:	f1b8 0f00 	cmp.w	r8, #0
 8006c1a:	d011      	beq.n	8006c40 <sulp+0x3a>
 8006c1c:	f3c7 530a 	ubfx	r3, r7, #20, #11
 8006c20:	f1c3 036b 	rsb	r3, r3, #107	; 0x6b
 8006c24:	2b00      	cmp	r3, #0
 8006c26:	dd0b      	ble.n	8006c40 <sulp+0x3a>
 8006c28:	2400      	movs	r4, #0
 8006c2a:	051b      	lsls	r3, r3, #20
 8006c2c:	f103 557f 	add.w	r5, r3, #1069547520	; 0x3fc00000
 8006c30:	f505 1540 	add.w	r5, r5, #3145728	; 0x300000
 8006c34:	4622      	mov	r2, r4
 8006c36:	462b      	mov	r3, r5
 8006c38:	f7f9 fcba 	bl	80005b0 <__aeabi_dmul>
 8006c3c:	4604      	mov	r4, r0
 8006c3e:	460d      	mov	r5, r1
 8006c40:	4620      	mov	r0, r4
 8006c42:	4629      	mov	r1, r5
 8006c44:	e8bd 81f0 	ldmia.w	sp!, {r4, r5, r6, r7, r8, pc}

08006c48 <_strtod_l>:
 8006c48:	e92d 4ff0 	stmdb	sp!, {r4, r5, r6, r7, r8, r9, sl, fp, lr}
 8006c4c:	469b      	mov	fp, r3
 8006c4e:	2300      	movs	r3, #0
 8006c50:	b0a1      	sub	sp, #132	; 0x84
 8006c52:	931c      	str	r3, [sp, #112]	; 0x70
 8006c54:	4ba1      	ldr	r3, [pc, #644]	; (8006edc <_strtod_l+0x294>)
 8006c56:	4682      	mov	sl, r0
 8006c58:	681f      	ldr	r7, [r3, #0]
 8006c5a:	460e      	mov	r6, r1
 8006c5c:	4638      	mov	r0, r7
 8006c5e:	9217      	str	r2, [sp, #92]	; 0x5c
 8006c60:	f7f9 fae2 	bl	8000228 <strlen>
 8006c64:	f04f 0800 	mov.w	r8, #0
 8006c68:	4604      	mov	r4, r0
 8006c6a:	f04f 0900 	mov.w	r9, #0
 8006c6e:	961b      	str	r6, [sp, #108]	; 0x6c
 8006c70:	9b1b      	ldr	r3, [sp, #108]	; 0x6c
 8006c72:	781a      	ldrb	r2, [r3, #0]
 8006c74:	2a2b      	cmp	r2, #43	; 0x2b
 8006c76:	d04c      	beq.n	8006d12 <_strtod_l+0xca>
 8006c78:	d83a      	bhi.n	8006cf0 <_strtod_l+0xa8>
 8006c7a:	2a0d      	cmp	r2, #13
 8006c7c:	d833      	bhi.n	8006ce6 <_strtod_l+0x9e>
 8006c7e:	2a08      	cmp	r2, #8
 8006c80:	d833      	bhi.n	8006cea <_strtod_l+0xa2>
 8006c82:	2a00      	cmp	r2, #0
 8006c84:	d03d      	beq.n	8006d02 <_strtod_l+0xba>
 8006c86:	2300      	movs	r3, #0
 8006c88:	930c      	str	r3, [sp, #48]	; 0x30
 8006c8a:	9d1b      	ldr	r5, [sp, #108]	; 0x6c
 8006c8c:	782b      	ldrb	r3, [r5, #0]
 8006c8e:	2b30      	cmp	r3, #48	; 0x30
 8006c90:	f040 80af 	bne.w	8006df2 <_strtod_l+0x1aa>
 8006c94:	786b      	ldrb	r3, [r5, #1]
 8006c96:	f003 03df 	and.w	r3, r3, #223	; 0xdf
 8006c9a:	2b58      	cmp	r3, #88	; 0x58
 8006c9c:	d16c      	bne.n	8006d78 <_strtod_l+0x130>
 8006c9e:	9b0c      	ldr	r3, [sp, #48]	; 0x30
 8006ca0:	4650      	mov	r0, sl
 8006ca2:	9301      	str	r3, [sp, #4]
 8006ca4:	ab1c      	add	r3, sp, #112	; 0x70
 8006ca6:	9300      	str	r3, [sp, #0]
 8006ca8:	4a8d      	ldr	r2, [pc, #564]	; (8006ee0 <_strtod_l+0x298>)
 8006caa:	f8cd b008 	str.w	fp, [sp, #8]
 8006cae:	ab1d      	add	r3, sp, #116	; 0x74
 8006cb0:	a91b      	add	r1, sp, #108	; 0x6c
 8006cb2:	f000 ffb7 	bl	8007c24 <__gethex>
 8006cb6:	f010 0607 	ands.w	r6, r0, #7
 8006cba:	4604      	mov	r4, r0
 8006cbc:	d005      	beq.n	8006cca <_strtod_l+0x82>
 8006cbe:	2e06      	cmp	r6, #6
 8006cc0:	d129      	bne.n	8006d16 <_strtod_l+0xce>
 8006cc2:	2300      	movs	r3, #0
 8006cc4:	3501      	adds	r5, #1
 8006cc6:	951b      	str	r5, [sp, #108]	; 0x6c
 8006cc8:	930c      	str	r3, [sp, #48]	; 0x30
 8006cca:	9b17      	ldr	r3, [sp, #92]	; 0x5c
 8006ccc:	2b00      	cmp	r3, #0
 8006cce:	f040 8596 	bne.w	80077fe <_strtod_l+0xbb6>
 8006cd2:	9b0c      	ldr	r3, [sp, #48]	; 0x30
 8006cd4:	b1d3      	cbz	r3, 8006d0c <_strtod_l+0xc4>
 8006cd6:	4642      	mov	r2, r8
 8006cd8:	f109 4300 	add.w	r3, r9, #2147483648	; 0x80000000
 8006cdc:	4610      	mov	r0, r2
 8006cde:	4619      	mov	r1, r3
 8006ce0:	b021      	add	sp, #132	; 0x84
 8006ce2:	e8bd 8ff0 	ldmia.w	sp!, {r4, r5, r6, r7, r8, r9, sl, fp, pc}
 8006ce6:	2a20      	cmp	r2, #32
 8006ce8:	d1cd      	bne.n	8006c86 <_strtod_l+0x3e>
 8006cea:	3301      	adds	r3, #1
 8006cec:	931b      	str	r3, [sp, #108]	; 0x6c
 8006cee:	e7bf      	b.n	8006c70 <_strtod_l+0x28>
 8006cf0:	2a2d      	cmp	r2, #45	; 0x2d
 8006cf2:	d1c8      	bne.n	8006c86 <_strtod_l+0x3e>
 8006cf4:	2201      	movs	r2, #1
 8006cf6:	920c      	str	r2, [sp, #48]	; 0x30
 8006cf8:	1c5a      	adds	r2, r3, #1
 8006cfa:	921b      	str	r2, [sp, #108]	; 0x6c
 8006cfc:	785b      	ldrb	r3, [r3, #1]
 8006cfe:	2b00      	cmp	r3, #0
 8006d00:	d1c3      	bne.n	8006c8a <_strtod_l+0x42>
 8006d02:	9b17      	ldr	r3, [sp, #92]	; 0x5c
 8006d04:	961b      	str	r6, [sp, #108]	; 0x6c
 8006d06:	2b00      	cmp	r3, #0
 8006d08:	f040 8577 	bne.w	80077fa <_strtod_l+0xbb2>
 8006d0c:	4642      	mov	r2, r8
 8006d0e:	464b      	mov	r3, r9
 8006d10:	e7e4      	b.n	8006cdc <_strtod_l+0x94>
 8006d12:	2200      	movs	r2, #0
 8006d14:	e7ef      	b.n	8006cf6 <_strtod_l+0xae>
 8006d16:	9a1c      	ldr	r2, [sp, #112]	; 0x70
 8006d18:	b13a      	cbz	r2, 8006d2a <_strtod_l+0xe2>
 8006d1a:	2135      	movs	r1, #53	; 0x35
 8006d1c:	a81e      	add	r0, sp, #120	; 0x78
 8006d1e:	f001 ff23 	bl	8008b68 <__copybits>
 8006d22:	4650      	mov	r0, sl
 8006d24:	991c      	ldr	r1, [sp, #112]	; 0x70
 8006d26:	f001 faeb 	bl	8008300 <_Bfree>
 8006d2a:	3e01      	subs	r6, #1
 8006d2c:	2e05      	cmp	r6, #5
 8006d2e:	d807      	bhi.n	8006d40 <_strtod_l+0xf8>
 8006d30:	e8df f006 	tbb	[pc, r6]
 8006d34:	1d180b0e 	.word	0x1d180b0e
 8006d38:	030e      	.short	0x030e
 8006d3a:	f04f 0900 	mov.w	r9, #0
 8006d3e:	46c8      	mov	r8, r9
 8006d40:	0721      	lsls	r1, r4, #28
 8006d42:	d5c2      	bpl.n	8006cca <_strtod_l+0x82>
 8006d44:	f049 4900 	orr.w	r9, r9, #2147483648	; 0x80000000
 8006d48:	e7bf      	b.n	8006cca <_strtod_l+0x82>
 8006d4a:	e9dd 891e 	ldrd	r8, r9, [sp, #120]	; 0x78
 8006d4e:	e7f7      	b.n	8006d40 <_strtod_l+0xf8>
 8006d50:	9a1d      	ldr	r2, [sp, #116]	; 0x74
 8006d52:	e9dd 831e 	ldrd	r8, r3, [sp, #120]	; 0x78
 8006d56:	f202 4233 	addw	r2, r2, #1075	; 0x433
 8006d5a:	f423 1380 	bic.w	r3, r3, #1048576	; 0x100000
 8006d5e:	ea43 5902 	orr.w	r9, r3, r2, lsl #20
 8006d62:	e7ed      	b.n	8006d40 <_strtod_l+0xf8>
 8006d64:	f04f 0800 	mov.w	r8, #0
 8006d68:	f8df 9178 	ldr.w	r9, [pc, #376]	; 8006ee4 <_strtod_l+0x29c>
 8006d6c:	e7e8      	b.n	8006d40 <_strtod_l+0xf8>
 8006d6e:	f06f 4900 	mvn.w	r9, #2147483648	; 0x80000000
 8006d72:	f04f 38ff 	mov.w	r8, #4294967295
 8006d76:	e7e3      	b.n	8006d40 <_strtod_l+0xf8>
 8006d78:	9b1b      	ldr	r3, [sp, #108]	; 0x6c
 8006d7a:	1c5a      	adds	r2, r3, #1
 8006d7c:	921b      	str	r2, [sp, #108]	; 0x6c
 8006d7e:	785b      	ldrb	r3, [r3, #1]
 8006d80:	2b30      	cmp	r3, #48	; 0x30
 8006d82:	d0f9      	beq.n	8006d78 <_strtod_l+0x130>
 8006d84:	2b00      	cmp	r3, #0
 8006d86:	d0a0      	beq.n	8006cca <_strtod_l+0x82>
 8006d88:	2301      	movs	r3, #1
 8006d8a:	9307      	str	r3, [sp, #28]
 8006d8c:	9b1b      	ldr	r3, [sp, #108]	; 0x6c
 8006d8e:	220a      	movs	r2, #10
 8006d90:	9308      	str	r3, [sp, #32]
 8006d92:	2300      	movs	r3, #0
 8006d94:	469b      	mov	fp, r3
 8006d96:	e9cd 3305 	strd	r3, r3, [sp, #20]
 8006d9a:	981b      	ldr	r0, [sp, #108]	; 0x6c
 8006d9c:	7805      	ldrb	r5, [r0, #0]
 8006d9e:	f1a5 0330 	sub.w	r3, r5, #48	; 0x30
 8006da2:	b2d9      	uxtb	r1, r3
 8006da4:	2909      	cmp	r1, #9
 8006da6:	d926      	bls.n	8006df6 <_strtod_l+0x1ae>
 8006da8:	4622      	mov	r2, r4
 8006daa:	4639      	mov	r1, r7
 8006dac:	f002 fbc1 	bl	8009532 <strncmp>
 8006db0:	2800      	cmp	r0, #0
 8006db2:	d032      	beq.n	8006e1a <_strtod_l+0x1d2>
 8006db4:	2000      	movs	r0, #0
 8006db6:	462b      	mov	r3, r5
 8006db8:	465c      	mov	r4, fp
 8006dba:	4602      	mov	r2, r0
 8006dbc:	9004      	str	r0, [sp, #16]
 8006dbe:	2b65      	cmp	r3, #101	; 0x65
 8006dc0:	d001      	beq.n	8006dc6 <_strtod_l+0x17e>
 8006dc2:	2b45      	cmp	r3, #69	; 0x45
 8006dc4:	d113      	bne.n	8006dee <_strtod_l+0x1a6>
 8006dc6:	b91c      	cbnz	r4, 8006dd0 <_strtod_l+0x188>
 8006dc8:	9b07      	ldr	r3, [sp, #28]
 8006dca:	4303      	orrs	r3, r0
 8006dcc:	d099      	beq.n	8006d02 <_strtod_l+0xba>
 8006dce:	2400      	movs	r4, #0
 8006dd0:	9e1b      	ldr	r6, [sp, #108]	; 0x6c
 8006dd2:	1c73      	adds	r3, r6, #1
 8006dd4:	931b      	str	r3, [sp, #108]	; 0x6c
 8006dd6:	7873      	ldrb	r3, [r6, #1]
 8006dd8:	2b2b      	cmp	r3, #43	; 0x2b
 8006dda:	d078      	beq.n	8006ece <_strtod_l+0x286>
 8006ddc:	2b2d      	cmp	r3, #45	; 0x2d
 8006dde:	d07b      	beq.n	8006ed8 <_strtod_l+0x290>
 8006de0:	2700      	movs	r7, #0
 8006de2:	f1a3 0130 	sub.w	r1, r3, #48	; 0x30
 8006de6:	2909      	cmp	r1, #9
 8006de8:	f240 8082 	bls.w	8006ef0 <_strtod_l+0x2a8>
 8006dec:	961b      	str	r6, [sp, #108]	; 0x6c
 8006dee:	2500      	movs	r5, #0
 8006df0:	e09e      	b.n	8006f30 <_strtod_l+0x2e8>
 8006df2:	2300      	movs	r3, #0
 8006df4:	e7c9      	b.n	8006d8a <_strtod_l+0x142>
 8006df6:	f1bb 0f08 	cmp.w	fp, #8
 8006dfa:	bfd5      	itete	le
 8006dfc:	9906      	ldrle	r1, [sp, #24]
 8006dfe:	9905      	ldrgt	r1, [sp, #20]
 8006e00:	fb02 3301 	mlale	r3, r2, r1, r3
 8006e04:	fb02 3301 	mlagt	r3, r2, r1, r3
 8006e08:	f100 0001 	add.w	r0, r0, #1
 8006e0c:	bfd4      	ite	le
 8006e0e:	9306      	strle	r3, [sp, #24]
 8006e10:	9305      	strgt	r3, [sp, #20]
 8006e12:	f10b 0b01 	add.w	fp, fp, #1
 8006e16:	901b      	str	r0, [sp, #108]	; 0x6c
 8006e18:	e7bf      	b.n	8006d9a <_strtod_l+0x152>
 8006e1a:	9b1b      	ldr	r3, [sp, #108]	; 0x6c
 8006e1c:	191a      	adds	r2, r3, r4
 8006e1e:	921b      	str	r2, [sp, #108]	; 0x6c
 8006e20:	5d1b      	ldrb	r3, [r3, r4]
 8006e22:	f1bb 0f00 	cmp.w	fp, #0
 8006e26:	d036      	beq.n	8006e96 <_strtod_l+0x24e>
 8006e28:	465c      	mov	r4, fp
 8006e2a:	9004      	str	r0, [sp, #16]
 8006e2c:	f1a3 0230 	sub.w	r2, r3, #48	; 0x30
 8006e30:	2a09      	cmp	r2, #9
 8006e32:	d912      	bls.n	8006e5a <_strtod_l+0x212>
 8006e34:	2201      	movs	r2, #1
 8006e36:	e7c2      	b.n	8006dbe <_strtod_l+0x176>
 8006e38:	9b1b      	ldr	r3, [sp, #108]	; 0x6c
 8006e3a:	3001      	adds	r0, #1
 8006e3c:	1c5a      	adds	r2, r3, #1
 8006e3e:	921b      	str	r2, [sp, #108]	; 0x6c
 8006e40:	785b      	ldrb	r3, [r3, #1]
 8006e42:	2b30      	cmp	r3, #48	; 0x30
 8006e44:	d0f8      	beq.n	8006e38 <_strtod_l+0x1f0>
 8006e46:	f1a3 0231 	sub.w	r2, r3, #49	; 0x31
 8006e4a:	2a08      	cmp	r2, #8
 8006e4c:	f200 84dc 	bhi.w	8007808 <_strtod_l+0xbc0>
 8006e50:	9004      	str	r0, [sp, #16]
 8006e52:	2000      	movs	r0, #0
 8006e54:	4604      	mov	r4, r0
 8006e56:	9a1b      	ldr	r2, [sp, #108]	; 0x6c
 8006e58:	9208      	str	r2, [sp, #32]
 8006e5a:	3b30      	subs	r3, #48	; 0x30
 8006e5c:	f100 0201 	add.w	r2, r0, #1
 8006e60:	d013      	beq.n	8006e8a <_strtod_l+0x242>
 8006e62:	9904      	ldr	r1, [sp, #16]
 8006e64:	1905      	adds	r5, r0, r4
 8006e66:	4411      	add	r1, r2
 8006e68:	9104      	str	r1, [sp, #16]
 8006e6a:	4622      	mov	r2, r4
 8006e6c:	210a      	movs	r1, #10
 8006e6e:	42aa      	cmp	r2, r5
 8006e70:	d113      	bne.n	8006e9a <_strtod_l+0x252>
 8006e72:	1822      	adds	r2, r4, r0
 8006e74:	2a08      	cmp	r2, #8
 8006e76:	f104 0401 	add.w	r4, r4, #1
 8006e7a:	4404      	add	r4, r0
 8006e7c:	dc1b      	bgt.n	8006eb6 <_strtod_l+0x26e>
 8006e7e:	220a      	movs	r2, #10
 8006e80:	9906      	ldr	r1, [sp, #24]
 8006e82:	fb02 3301 	mla	r3, r2, r1, r3
 8006e86:	9306      	str	r3, [sp, #24]
 8006e88:	2200      	movs	r2, #0
 8006e8a:	9b1b      	ldr	r3, [sp, #108]	; 0x6c
 8006e8c:	4610      	mov	r0, r2
 8006e8e:	1c59      	adds	r1, r3, #1
 8006e90:	911b      	str	r1, [sp, #108]	; 0x6c
 8006e92:	785b      	ldrb	r3, [r3, #1]
 8006e94:	e7ca      	b.n	8006e2c <_strtod_l+0x1e4>
 8006e96:	4658      	mov	r0, fp
 8006e98:	e7d3      	b.n	8006e42 <_strtod_l+0x1fa>
 8006e9a:	2a08      	cmp	r2, #8
 8006e9c:	dc04      	bgt.n	8006ea8 <_strtod_l+0x260>
 8006e9e:	9f06      	ldr	r7, [sp, #24]
 8006ea0:	434f      	muls	r7, r1
 8006ea2:	9706      	str	r7, [sp, #24]
 8006ea4:	3201      	adds	r2, #1
 8006ea6:	e7e2      	b.n	8006e6e <_strtod_l+0x226>
 8006ea8:	1c57      	adds	r7, r2, #1
 8006eaa:	2f10      	cmp	r7, #16
 8006eac:	bfde      	ittt	le
 8006eae:	9f05      	ldrle	r7, [sp, #20]
 8006eb0:	434f      	mulle	r7, r1
 8006eb2:	9705      	strle	r7, [sp, #20]
 8006eb4:	e7f6      	b.n	8006ea4 <_strtod_l+0x25c>
 8006eb6:	2c10      	cmp	r4, #16
 8006eb8:	bfdf      	itttt	le
 8006eba:	220a      	movle	r2, #10
 8006ebc:	9905      	ldrle	r1, [sp, #20]
 8006ebe:	fb02 3301 	mlale	r3, r2, r1, r3
 8006ec2:	9305      	strle	r3, [sp, #20]
 8006ec4:	e7e0      	b.n	8006e88 <_strtod_l+0x240>
 8006ec6:	2300      	movs	r3, #0
 8006ec8:	2201      	movs	r2, #1
 8006eca:	9304      	str	r3, [sp, #16]
 8006ecc:	e77c      	b.n	8006dc8 <_strtod_l+0x180>
 8006ece:	2700      	movs	r7, #0
 8006ed0:	1cb3      	adds	r3, r6, #2
 8006ed2:	931b      	str	r3, [sp, #108]	; 0x6c
 8006ed4:	78b3      	ldrb	r3, [r6, #2]
 8006ed6:	e784      	b.n	8006de2 <_strtod_l+0x19a>
 8006ed8:	2701      	movs	r7, #1
 8006eda:	e7f9      	b.n	8006ed0 <_strtod_l+0x288>
 8006edc:	0800a088 	.word	0x0800a088
 8006ee0:	08009e58 	.word	0x08009e58
 8006ee4:	7ff00000 	.word	0x7ff00000
 8006ee8:	9b1b      	ldr	r3, [sp, #108]	; 0x6c
 8006eea:	1c59      	adds	r1, r3, #1
 8006eec:	911b      	str	r1, [sp, #108]	; 0x6c
 8006eee:	785b      	ldrb	r3, [r3, #1]
 8006ef0:	2b30      	cmp	r3, #48	; 0x30
 8006ef2:	d0f9      	beq.n	8006ee8 <_strtod_l+0x2a0>
 8006ef4:	f1a3 0131 	sub.w	r1, r3, #49	; 0x31
 8006ef8:	2908      	cmp	r1, #8
 8006efa:	f63f af78 	bhi.w	8006dee <_strtod_l+0x1a6>
 8006efe:	f04f 0e0a 	mov.w	lr, #10
 8006f02:	f1a3 0c30 	sub.w	ip, r3, #48	; 0x30
 8006f06:	9b1b      	ldr	r3, [sp, #108]	; 0x6c
 8006f08:	9309      	str	r3, [sp, #36]	; 0x24
 8006f0a:	9b1b      	ldr	r3, [sp, #108]	; 0x6c
 8006f0c:	1c59      	adds	r1, r3, #1
 8006f0e:	911b      	str	r1, [sp, #108]	; 0x6c
 8006f10:	785b      	ldrb	r3, [r3, #1]
 8006f12:	f1a3 0530 	sub.w	r5, r3, #48	; 0x30
 8006f16:	2d09      	cmp	r5, #9
 8006f18:	d935      	bls.n	8006f86 <_strtod_l+0x33e>
 8006f1a:	9d09      	ldr	r5, [sp, #36]	; 0x24
 8006f1c:	1b49      	subs	r1, r1, r5
 8006f1e:	2908      	cmp	r1, #8
 8006f20:	f644 651f 	movw	r5, #19999	; 0x4e1f
 8006f24:	dc02      	bgt.n	8006f2c <_strtod_l+0x2e4>
 8006f26:	4565      	cmp	r5, ip
 8006f28:	bfa8      	it	ge
 8006f2a:	4665      	movge	r5, ip
 8006f2c:	b107      	cbz	r7, 8006f30 <_strtod_l+0x2e8>
 8006f2e:	426d      	negs	r5, r5
 8006f30:	2c00      	cmp	r4, #0
 8006f32:	d14c      	bne.n	8006fce <_strtod_l+0x386>
 8006f34:	9907      	ldr	r1, [sp, #28]
 8006f36:	4301      	orrs	r1, r0
 8006f38:	f47f aec7 	bne.w	8006cca <_strtod_l+0x82>
 8006f3c:	2a00      	cmp	r2, #0
 8006f3e:	f47f aee0 	bne.w	8006d02 <_strtod_l+0xba>
 8006f42:	2b69      	cmp	r3, #105	; 0x69
 8006f44:	d026      	beq.n	8006f94 <_strtod_l+0x34c>
 8006f46:	dc23      	bgt.n	8006f90 <_strtod_l+0x348>
 8006f48:	2b49      	cmp	r3, #73	; 0x49
 8006f4a:	d023      	beq.n	8006f94 <_strtod_l+0x34c>
 8006f4c:	2b4e      	cmp	r3, #78	; 0x4e
 8006f4e:	f47f aed8 	bne.w	8006d02 <_strtod_l+0xba>
 8006f52:	499c      	ldr	r1, [pc, #624]	; (80071c4 <_strtod_l+0x57c>)
 8006f54:	a81b      	add	r0, sp, #108	; 0x6c
 8006f56:	f001 f8b3 	bl	80080c0 <__match>
 8006f5a:	2800      	cmp	r0, #0
 8006f5c:	f43f aed1 	beq.w	8006d02 <_strtod_l+0xba>
 8006f60:	9b1b      	ldr	r3, [sp, #108]	; 0x6c
 8006f62:	781b      	ldrb	r3, [r3, #0]
 8006f64:	2b28      	cmp	r3, #40	; 0x28
 8006f66:	d12c      	bne.n	8006fc2 <_strtod_l+0x37a>
 8006f68:	4997      	ldr	r1, [pc, #604]	; (80071c8 <_strtod_l+0x580>)
 8006f6a:	aa1e      	add	r2, sp, #120	; 0x78
 8006f6c:	a81b      	add	r0, sp, #108	; 0x6c
 8006f6e:	f001 f8bb 	bl	80080e8 <__hexnan>
 8006f72:	2805      	cmp	r0, #5
 8006f74:	d125      	bne.n	8006fc2 <_strtod_l+0x37a>
 8006f76:	9b1f      	ldr	r3, [sp, #124]	; 0x7c
 8006f78:	f8dd 8078 	ldr.w	r8, [sp, #120]	; 0x78
 8006f7c:	f043 49ff 	orr.w	r9, r3, #2139095040	; 0x7f800000
 8006f80:	f449 09e0 	orr.w	r9, r9, #7340032	; 0x700000
 8006f84:	e6a1      	b.n	8006cca <_strtod_l+0x82>
 8006f86:	fb0e 3c0c 	mla	ip, lr, ip, r3
 8006f8a:	f1ac 0c30 	sub.w	ip, ip, #48	; 0x30
 8006f8e:	e7bc      	b.n	8006f0a <_strtod_l+0x2c2>
 8006f90:	2b6e      	cmp	r3, #110	; 0x6e
 8006f92:	e7dc      	b.n	8006f4e <_strtod_l+0x306>
 8006f94:	498d      	ldr	r1, [pc, #564]	; (80071cc <_strtod_l+0x584>)
 8006f96:	a81b      	add	r0, sp, #108	; 0x6c
 8006f98:	f001 f892 	bl	80080c0 <__match>
 8006f9c:	2800      	cmp	r0, #0
 8006f9e:	f43f aeb0 	beq.w	8006d02 <_strtod_l+0xba>
 8006fa2:	9b1b      	ldr	r3, [sp, #108]	; 0x6c
 8006fa4:	498a      	ldr	r1, [pc, #552]	; (80071d0 <_strtod_l+0x588>)
 8006fa6:	3b01      	subs	r3, #1
 8006fa8:	a81b      	add	r0, sp, #108	; 0x6c
 8006faa:	931b      	str	r3, [sp, #108]	; 0x6c
 8006fac:	f001 f888 	bl	80080c0 <__match>
 8006fb0:	b910      	cbnz	r0, 8006fb8 <_strtod_l+0x370>
 8006fb2:	9b1b      	ldr	r3, [sp, #108]	; 0x6c
 8006fb4:	3301      	adds	r3, #1
 8006fb6:	931b      	str	r3, [sp, #108]	; 0x6c
 8006fb8:	f04f 0800 	mov.w	r8, #0
 8006fbc:	f8df 9220 	ldr.w	r9, [pc, #544]	; 80071e0 <_strtod_l+0x598>
 8006fc0:	e683      	b.n	8006cca <_strtod_l+0x82>
 8006fc2:	4884      	ldr	r0, [pc, #528]	; (80071d4 <_strtod_l+0x58c>)
 8006fc4:	f002 fa6c 	bl	80094a0 <nan>
 8006fc8:	4680      	mov	r8, r0
 8006fca:	4689      	mov	r9, r1
 8006fcc:	e67d      	b.n	8006cca <_strtod_l+0x82>
 8006fce:	9b04      	ldr	r3, [sp, #16]
 8006fd0:	f1bb 0f00 	cmp.w	fp, #0
 8006fd4:	bf08      	it	eq
 8006fd6:	46a3      	moveq	fp, r4
 8006fd8:	1aeb      	subs	r3, r5, r3
 8006fda:	2c10      	cmp	r4, #16
 8006fdc:	9806      	ldr	r0, [sp, #24]
 8006fde:	4626      	mov	r6, r4
 8006fe0:	9307      	str	r3, [sp, #28]
 8006fe2:	bfa8      	it	ge
 8006fe4:	2610      	movge	r6, #16
 8006fe6:	f7f9 fa69 	bl	80004bc <__aeabi_ui2d>
 8006fea:	2c09      	cmp	r4, #9
 8006fec:	4680      	mov	r8, r0
 8006fee:	4689      	mov	r9, r1
 8006ff0:	dd13      	ble.n	800701a <_strtod_l+0x3d2>
 8006ff2:	4b79      	ldr	r3, [pc, #484]	; (80071d8 <_strtod_l+0x590>)
 8006ff4:	eb03 03c6 	add.w	r3, r3, r6, lsl #3
 8006ff8:	e953 2312 	ldrd	r2, r3, [r3, #-72]	; 0x48
 8006ffc:	f7f9 fad8 	bl	80005b0 <__aeabi_dmul>
 8007000:	4680      	mov	r8, r0
 8007002:	9805      	ldr	r0, [sp, #20]
 8007004:	4689      	mov	r9, r1
 8007006:	f7f9 fa59 	bl	80004bc <__aeabi_ui2d>
 800700a:	4602      	mov	r2, r0
 800700c:	460b      	mov	r3, r1
 800700e:	4640      	mov	r0, r8
 8007010:	4649      	mov	r1, r9
 8007012:	f7f9 f917 	bl	8000244 <__adddf3>
 8007016:	4680      	mov	r8, r0
 8007018:	4689      	mov	r9, r1
 800701a:	2c0f      	cmp	r4, #15
 800701c:	dc36      	bgt.n	800708c <_strtod_l+0x444>
 800701e:	9b07      	ldr	r3, [sp, #28]
 8007020:	2b00      	cmp	r3, #0
 8007022:	f43f ae52 	beq.w	8006cca <_strtod_l+0x82>
 8007026:	dd22      	ble.n	800706e <_strtod_l+0x426>
 8007028:	2b16      	cmp	r3, #22
 800702a:	dc09      	bgt.n	8007040 <_strtod_l+0x3f8>
 800702c:	4c6a      	ldr	r4, [pc, #424]	; (80071d8 <_strtod_l+0x590>)
 800702e:	4642      	mov	r2, r8
 8007030:	eb04 04c3 	add.w	r4, r4, r3, lsl #3
 8007034:	464b      	mov	r3, r9
 8007036:	e9d4 0100 	ldrd	r0, r1, [r4]
 800703a:	f7f9 fab9 	bl	80005b0 <__aeabi_dmul>
 800703e:	e7c3      	b.n	8006fc8 <_strtod_l+0x380>
 8007040:	9a07      	ldr	r2, [sp, #28]
 8007042:	f1c4 0325 	rsb	r3, r4, #37	; 0x25
 8007046:	4293      	cmp	r3, r2
 8007048:	db20      	blt.n	800708c <_strtod_l+0x444>
 800704a:	4d63      	ldr	r5, [pc, #396]	; (80071d8 <_strtod_l+0x590>)
 800704c:	f1c4 040f 	rsb	r4, r4, #15
 8007050:	eb05 01c4 	add.w	r1, r5, r4, lsl #3
 8007054:	4642      	mov	r2, r8
 8007056:	e9d1 0100 	ldrd	r0, r1, [r1]
 800705a:	464b      	mov	r3, r9
 800705c:	f7f9 faa8 	bl	80005b0 <__aeabi_dmul>
 8007060:	9b07      	ldr	r3, [sp, #28]
 8007062:	1b1c      	subs	r4, r3, r4
 8007064:	eb05 05c4 	add.w	r5, r5, r4, lsl #3
 8007068:	e9d5 2300 	ldrd	r2, r3, [r5]
 800706c:	e7e5      	b.n	800703a <_strtod_l+0x3f2>
 800706e:	9b07      	ldr	r3, [sp, #28]
 8007070:	3316      	adds	r3, #22
 8007072:	db0b      	blt.n	800708c <_strtod_l+0x444>
 8007074:	9b04      	ldr	r3, [sp, #16]
 8007076:	4a58      	ldr	r2, [pc, #352]	; (80071d8 <_strtod_l+0x590>)
 8007078:	1b5d      	subs	r5, r3, r5
 800707a:	eb02 05c5 	add.w	r5, r2, r5, lsl #3
 800707e:	4640      	mov	r0, r8
 8007080:	e9d5 2300 	ldrd	r2, r3, [r5]
 8007084:	4649      	mov	r1, r9
 8007086:	f7f9 fbbd 	bl	8000804 <__aeabi_ddiv>
 800708a:	e79d      	b.n	8006fc8 <_strtod_l+0x380>
 800708c:	9b07      	ldr	r3, [sp, #28]
 800708e:	1ba6      	subs	r6, r4, r6
 8007090:	441e      	add	r6, r3
 8007092:	2e00      	cmp	r6, #0
 8007094:	dd71      	ble.n	800717a <_strtod_l+0x532>
 8007096:	f016 030f 	ands.w	r3, r6, #15
 800709a:	d00a      	beq.n	80070b2 <_strtod_l+0x46a>
 800709c:	494e      	ldr	r1, [pc, #312]	; (80071d8 <_strtod_l+0x590>)
 800709e:	4642      	mov	r2, r8
 80070a0:	eb01 01c3 	add.w	r1, r1, r3, lsl #3
 80070a4:	e9d1 0100 	ldrd	r0, r1, [r1]
 80070a8:	464b      	mov	r3, r9
 80070aa:	f7f9 fa81 	bl	80005b0 <__aeabi_dmul>
 80070ae:	4680      	mov	r8, r0
 80070b0:	4689      	mov	r9, r1
 80070b2:	f036 060f 	bics.w	r6, r6, #15
 80070b6:	d050      	beq.n	800715a <_strtod_l+0x512>
 80070b8:	f5b6 7f9a 	cmp.w	r6, #308	; 0x134
 80070bc:	dd27      	ble.n	800710e <_strtod_l+0x4c6>
 80070be:	f04f 0b00 	mov.w	fp, #0
 80070c2:	f8cd b010 	str.w	fp, [sp, #16]
 80070c6:	f8cd b020 	str.w	fp, [sp, #32]
 80070ca:	f8cd b018 	str.w	fp, [sp, #24]
 80070ce:	2322      	movs	r3, #34	; 0x22
 80070d0:	f04f 0800 	mov.w	r8, #0
 80070d4:	f8df 9108 	ldr.w	r9, [pc, #264]	; 80071e0 <_strtod_l+0x598>
 80070d8:	f8ca 3000 	str.w	r3, [sl]
 80070dc:	9b08      	ldr	r3, [sp, #32]
 80070de:	2b00      	cmp	r3, #0
 80070e0:	f43f adf3 	beq.w	8006cca <_strtod_l+0x82>
 80070e4:	4650      	mov	r0, sl
 80070e6:	991c      	ldr	r1, [sp, #112]	; 0x70
 80070e8:	f001 f90a 	bl	8008300 <_Bfree>
 80070ec:	4650      	mov	r0, sl
 80070ee:	9906      	ldr	r1, [sp, #24]
 80070f0:	f001 f906 	bl	8008300 <_Bfree>
 80070f4:	4650      	mov	r0, sl
 80070f6:	9904      	ldr	r1, [sp, #16]
 80070f8:	f001 f902 	bl	8008300 <_Bfree>
 80070fc:	4650      	mov	r0, sl
 80070fe:	9908      	ldr	r1, [sp, #32]
 8007100:	f001 f8fe 	bl	8008300 <_Bfree>
 8007104:	4659      	mov	r1, fp
 8007106:	4650      	mov	r0, sl
 8007108:	f001 f8fa 	bl	8008300 <_Bfree>
 800710c:	e5dd      	b.n	8006cca <_strtod_l+0x82>
 800710e:	2300      	movs	r3, #0
 8007110:	4640      	mov	r0, r8
 8007112:	4649      	mov	r1, r9
 8007114:	461f      	mov	r7, r3
 8007116:	1136      	asrs	r6, r6, #4
 8007118:	2e01      	cmp	r6, #1
 800711a:	dc21      	bgt.n	8007160 <_strtod_l+0x518>
 800711c:	b10b      	cbz	r3, 8007122 <_strtod_l+0x4da>
 800711e:	4680      	mov	r8, r0
 8007120:	4689      	mov	r9, r1
 8007122:	4b2e      	ldr	r3, [pc, #184]	; (80071dc <_strtod_l+0x594>)
 8007124:	f1a9 7954 	sub.w	r9, r9, #55574528	; 0x3500000
 8007128:	eb03 07c7 	add.w	r7, r3, r7, lsl #3
 800712c:	4642      	mov	r2, r8
 800712e:	e9d7 0100 	ldrd	r0, r1, [r7]
 8007132:	464b      	mov	r3, r9
 8007134:	f7f9 fa3c 	bl	80005b0 <__aeabi_dmul>
 8007138:	4b29      	ldr	r3, [pc, #164]	; (80071e0 <_strtod_l+0x598>)
 800713a:	460a      	mov	r2, r1
 800713c:	400b      	ands	r3, r1
 800713e:	4929      	ldr	r1, [pc, #164]	; (80071e4 <_strtod_l+0x59c>)
 8007140:	4680      	mov	r8, r0
 8007142:	428b      	cmp	r3, r1
 8007144:	d8bb      	bhi.n	80070be <_strtod_l+0x476>
 8007146:	f5a1 1180 	sub.w	r1, r1, #1048576	; 0x100000
 800714a:	428b      	cmp	r3, r1
 800714c:	bf86      	itte	hi
 800714e:	f04f 38ff 	movhi.w	r8, #4294967295
 8007152:	f8df 9094 	ldrhi.w	r9, [pc, #148]	; 80071e8 <_strtod_l+0x5a0>
 8007156:	f102 7954 	addls.w	r9, r2, #55574528	; 0x3500000
 800715a:	2300      	movs	r3, #0
 800715c:	9305      	str	r3, [sp, #20]
 800715e:	e07e      	b.n	800725e <_strtod_l+0x616>
 8007160:	07f2      	lsls	r2, r6, #31
 8007162:	d507      	bpl.n	8007174 <_strtod_l+0x52c>
 8007164:	4b1d      	ldr	r3, [pc, #116]	; (80071dc <_strtod_l+0x594>)
 8007166:	eb03 03c7 	add.w	r3, r3, r7, lsl #3
 800716a:	e9d3 2300 	ldrd	r2, r3, [r3]
 800716e:	f7f9 fa1f 	bl	80005b0 <__aeabi_dmul>
 8007172:	2301      	movs	r3, #1
 8007174:	3701      	adds	r7, #1
 8007176:	1076      	asrs	r6, r6, #1
 8007178:	e7ce      	b.n	8007118 <_strtod_l+0x4d0>
 800717a:	d0ee      	beq.n	800715a <_strtod_l+0x512>
 800717c:	4276      	negs	r6, r6
 800717e:	f016 020f 	ands.w	r2, r6, #15
 8007182:	d00a      	beq.n	800719a <_strtod_l+0x552>
 8007184:	4b14      	ldr	r3, [pc, #80]	; (80071d8 <_strtod_l+0x590>)
 8007186:	4640      	mov	r0, r8
 8007188:	eb03 03c2 	add.w	r3, r3, r2, lsl #3
 800718c:	4649      	mov	r1, r9
 800718e:	e9d3 2300 	ldrd	r2, r3, [r3]
 8007192:	f7f9 fb37 	bl	8000804 <__aeabi_ddiv>
 8007196:	4680      	mov	r8, r0
 8007198:	4689      	mov	r9, r1
 800719a:	1136      	asrs	r6, r6, #4
 800719c:	d0dd      	beq.n	800715a <_strtod_l+0x512>
 800719e:	2e1f      	cmp	r6, #31
 80071a0:	dd24      	ble.n	80071ec <_strtod_l+0x5a4>
 80071a2:	f04f 0b00 	mov.w	fp, #0
 80071a6:	f8cd b010 	str.w	fp, [sp, #16]
 80071aa:	f8cd b020 	str.w	fp, [sp, #32]
 80071ae:	f8cd b018 	str.w	fp, [sp, #24]
 80071b2:	2322      	movs	r3, #34	; 0x22
 80071b4:	f04f 0800 	mov.w	r8, #0
 80071b8:	f04f 0900 	mov.w	r9, #0
 80071bc:	f8ca 3000 	str.w	r3, [sl]
 80071c0:	e78c      	b.n	80070dc <_strtod_l+0x494>
 80071c2:	bf00      	nop
 80071c4:	08009e55 	.word	0x08009e55
 80071c8:	08009e6c 	.word	0x08009e6c
 80071cc:	08009e4c 	.word	0x08009e4c
 80071d0:	08009e4f 	.word	0x08009e4f
 80071d4:	0800a282 	.word	0x0800a282
 80071d8:	0800a140 	.word	0x0800a140
 80071dc:	0800a118 	.word	0x0800a118
 80071e0:	7ff00000 	.word	0x7ff00000
 80071e4:	7ca00000 	.word	0x7ca00000
 80071e8:	7fefffff 	.word	0x7fefffff
 80071ec:	f016 0310 	ands.w	r3, r6, #16
 80071f0:	bf18      	it	ne
 80071f2:	236a      	movne	r3, #106	; 0x6a
 80071f4:	4640      	mov	r0, r8
 80071f6:	9305      	str	r3, [sp, #20]
 80071f8:	4649      	mov	r1, r9
 80071fa:	2300      	movs	r3, #0
 80071fc:	4fb2      	ldr	r7, [pc, #712]	; (80074c8 <_strtod_l+0x880>)
 80071fe:	07f2      	lsls	r2, r6, #31
 8007200:	d504      	bpl.n	800720c <_strtod_l+0x5c4>
 8007202:	e9d7 2300 	ldrd	r2, r3, [r7]
 8007206:	f7f9 f9d3 	bl	80005b0 <__aeabi_dmul>
 800720a:	2301      	movs	r3, #1
 800720c:	1076      	asrs	r6, r6, #1
 800720e:	f107 0708 	add.w	r7, r7, #8
 8007212:	d1f4      	bne.n	80071fe <_strtod_l+0x5b6>
 8007214:	b10b      	cbz	r3, 800721a <_strtod_l+0x5d2>
 8007216:	4680      	mov	r8, r0
 8007218:	4689      	mov	r9, r1
 800721a:	9b05      	ldr	r3, [sp, #20]
 800721c:	b1bb      	cbz	r3, 800724e <_strtod_l+0x606>
 800721e:	f3c9 530a 	ubfx	r3, r9, #20, #11
 8007222:	f1c3 036b 	rsb	r3, r3, #107	; 0x6b
 8007226:	2b00      	cmp	r3, #0
 8007228:	4649      	mov	r1, r9
 800722a:	dd10      	ble.n	800724e <_strtod_l+0x606>
 800722c:	2b1f      	cmp	r3, #31
 800722e:	f340 812b 	ble.w	8007488 <_strtod_l+0x840>
 8007232:	2b34      	cmp	r3, #52	; 0x34
 8007234:	bfd8      	it	le
 8007236:	f04f 32ff 	movle.w	r2, #4294967295
 800723a:	f04f 0800 	mov.w	r8, #0
 800723e:	bfcf      	iteee	gt
 8007240:	f04f 795c 	movgt.w	r9, #57671680	; 0x3700000
 8007244:	3b20      	suble	r3, #32
 8007246:	fa02 f303 	lslle.w	r3, r2, r3
 800724a:	ea03 0901 	andle.w	r9, r3, r1
 800724e:	2200      	movs	r2, #0
 8007250:	2300      	movs	r3, #0
 8007252:	4640      	mov	r0, r8
 8007254:	4649      	mov	r1, r9
 8007256:	f7f9 fc13 	bl	8000a80 <__aeabi_dcmpeq>
 800725a:	2800      	cmp	r0, #0
 800725c:	d1a1      	bne.n	80071a2 <_strtod_l+0x55a>
 800725e:	9b06      	ldr	r3, [sp, #24]
 8007260:	465a      	mov	r2, fp
 8007262:	9300      	str	r3, [sp, #0]
 8007264:	4650      	mov	r0, sl
 8007266:	4623      	mov	r3, r4
 8007268:	9908      	ldr	r1, [sp, #32]
 800726a:	f001 f8b5 	bl	80083d8 <__s2b>
 800726e:	9008      	str	r0, [sp, #32]
 8007270:	2800      	cmp	r0, #0
 8007272:	f43f af24 	beq.w	80070be <_strtod_l+0x476>
 8007276:	9b04      	ldr	r3, [sp, #16]
 8007278:	f04f 0b00 	mov.w	fp, #0
 800727c:	1b5d      	subs	r5, r3, r5
 800727e:	9b07      	ldr	r3, [sp, #28]
 8007280:	f8cd b010 	str.w	fp, [sp, #16]
 8007284:	2b00      	cmp	r3, #0
 8007286:	bfb4      	ite	lt
 8007288:	462b      	movlt	r3, r5
 800728a:	2300      	movge	r3, #0
 800728c:	930e      	str	r3, [sp, #56]	; 0x38
 800728e:	9b07      	ldr	r3, [sp, #28]
 8007290:	ea23 73e3 	bic.w	r3, r3, r3, asr #31
 8007294:	9316      	str	r3, [sp, #88]	; 0x58
 8007296:	9b08      	ldr	r3, [sp, #32]
 8007298:	4650      	mov	r0, sl
 800729a:	6859      	ldr	r1, [r3, #4]
 800729c:	f000 fff0 	bl	8008280 <_Balloc>
 80072a0:	9006      	str	r0, [sp, #24]
 80072a2:	2800      	cmp	r0, #0
 80072a4:	f43f af13 	beq.w	80070ce <_strtod_l+0x486>
 80072a8:	9b08      	ldr	r3, [sp, #32]
 80072aa:	300c      	adds	r0, #12
 80072ac:	691a      	ldr	r2, [r3, #16]
 80072ae:	f103 010c 	add.w	r1, r3, #12
 80072b2:	3202      	adds	r2, #2
 80072b4:	0092      	lsls	r2, r2, #2
 80072b6:	f000 ffc8 	bl	800824a <memcpy>
 80072ba:	ab1e      	add	r3, sp, #120	; 0x78
 80072bc:	9301      	str	r3, [sp, #4]
 80072be:	ab1d      	add	r3, sp, #116	; 0x74
 80072c0:	9300      	str	r3, [sp, #0]
 80072c2:	4642      	mov	r2, r8
 80072c4:	464b      	mov	r3, r9
 80072c6:	4650      	mov	r0, sl
 80072c8:	e9cd 890a 	strd	r8, r9, [sp, #40]	; 0x28
 80072cc:	f001 fbc2 	bl	8008a54 <__d2b>
 80072d0:	901c      	str	r0, [sp, #112]	; 0x70
 80072d2:	2800      	cmp	r0, #0
 80072d4:	f43f aefb 	beq.w	80070ce <_strtod_l+0x486>
 80072d8:	2101      	movs	r1, #1
 80072da:	4650      	mov	r0, sl
 80072dc:	f001 f914 	bl	8008508 <__i2b>
 80072e0:	4603      	mov	r3, r0
 80072e2:	9004      	str	r0, [sp, #16]
 80072e4:	2800      	cmp	r0, #0
 80072e6:	f43f aef2 	beq.w	80070ce <_strtod_l+0x486>
 80072ea:	9d1d      	ldr	r5, [sp, #116]	; 0x74
 80072ec:	9a1e      	ldr	r2, [sp, #120]	; 0x78
 80072ee:	2d00      	cmp	r5, #0
 80072f0:	bfab      	itete	ge
 80072f2:	9b0e      	ldrge	r3, [sp, #56]	; 0x38
 80072f4:	9b16      	ldrlt	r3, [sp, #88]	; 0x58
 80072f6:	18ee      	addge	r6, r5, r3
 80072f8:	1b5c      	sublt	r4, r3, r5
 80072fa:	9b05      	ldr	r3, [sp, #20]
 80072fc:	bfa8      	it	ge
 80072fe:	9c16      	ldrge	r4, [sp, #88]	; 0x58
 8007300:	eba5 0503 	sub.w	r5, r5, r3
 8007304:	4415      	add	r5, r2
 8007306:	4b71      	ldr	r3, [pc, #452]	; (80074cc <_strtod_l+0x884>)
 8007308:	f105 35ff 	add.w	r5, r5, #4294967295
 800730c:	bfb8      	it	lt
 800730e:	9e0e      	ldrlt	r6, [sp, #56]	; 0x38
 8007310:	429d      	cmp	r5, r3
 8007312:	f1c2 0236 	rsb	r2, r2, #54	; 0x36
 8007316:	f280 80c9 	bge.w	80074ac <_strtod_l+0x864>
 800731a:	1b5b      	subs	r3, r3, r5
 800731c:	2b1f      	cmp	r3, #31
 800731e:	f04f 0701 	mov.w	r7, #1
 8007322:	eba2 0203 	sub.w	r2, r2, r3
 8007326:	f300 80b6 	bgt.w	8007496 <_strtod_l+0x84e>
 800732a:	2500      	movs	r5, #0
 800732c:	fa07 f303 	lsl.w	r3, r7, r3
 8007330:	930f      	str	r3, [sp, #60]	; 0x3c
 8007332:	18b7      	adds	r7, r6, r2
 8007334:	9b05      	ldr	r3, [sp, #20]
 8007336:	42be      	cmp	r6, r7
 8007338:	4414      	add	r4, r2
 800733a:	441c      	add	r4, r3
 800733c:	4633      	mov	r3, r6
 800733e:	bfa8      	it	ge
 8007340:	463b      	movge	r3, r7
 8007342:	42a3      	cmp	r3, r4
 8007344:	bfa8      	it	ge
 8007346:	4623      	movge	r3, r4
 8007348:	2b00      	cmp	r3, #0
 800734a:	bfc2      	ittt	gt
 800734c:	1aff      	subgt	r7, r7, r3
 800734e:	1ae4      	subgt	r4, r4, r3
 8007350:	1af6      	subgt	r6, r6, r3
 8007352:	9b0e      	ldr	r3, [sp, #56]	; 0x38
 8007354:	2b00      	cmp	r3, #0
 8007356:	dd17      	ble.n	8007388 <_strtod_l+0x740>
 8007358:	461a      	mov	r2, r3
 800735a:	4650      	mov	r0, sl
 800735c:	9904      	ldr	r1, [sp, #16]
 800735e:	f001 f98d 	bl	800867c <__pow5mult>
 8007362:	9004      	str	r0, [sp, #16]
 8007364:	2800      	cmp	r0, #0
 8007366:	f43f aeb2 	beq.w	80070ce <_strtod_l+0x486>
 800736a:	4601      	mov	r1, r0
 800736c:	9a1c      	ldr	r2, [sp, #112]	; 0x70
 800736e:	4650      	mov	r0, sl
 8007370:	f001 f8e0 	bl	8008534 <__multiply>
 8007374:	9009      	str	r0, [sp, #36]	; 0x24
 8007376:	2800      	cmp	r0, #0
 8007378:	f43f aea9 	beq.w	80070ce <_strtod_l+0x486>
 800737c:	4650      	mov	r0, sl
 800737e:	991c      	ldr	r1, [sp, #112]	; 0x70
 8007380:	f000 ffbe 	bl	8008300 <_Bfree>
 8007384:	9b09      	ldr	r3, [sp, #36]	; 0x24
 8007386:	931c      	str	r3, [sp, #112]	; 0x70
 8007388:	2f00      	cmp	r7, #0
 800738a:	f300 8093 	bgt.w	80074b4 <_strtod_l+0x86c>
 800738e:	9b07      	ldr	r3, [sp, #28]
 8007390:	2b00      	cmp	r3, #0
 8007392:	dd08      	ble.n	80073a6 <_strtod_l+0x75e>
 8007394:	4650      	mov	r0, sl
 8007396:	9a16      	ldr	r2, [sp, #88]	; 0x58
 8007398:	9906      	ldr	r1, [sp, #24]
 800739a:	f001 f96f 	bl	800867c <__pow5mult>
 800739e:	9006      	str	r0, [sp, #24]
 80073a0:	2800      	cmp	r0, #0
 80073a2:	f43f ae94 	beq.w	80070ce <_strtod_l+0x486>
 80073a6:	2c00      	cmp	r4, #0
 80073a8:	dd08      	ble.n	80073bc <_strtod_l+0x774>
 80073aa:	4622      	mov	r2, r4
 80073ac:	4650      	mov	r0, sl
 80073ae:	9906      	ldr	r1, [sp, #24]
 80073b0:	f001 f9be 	bl	8008730 <__lshift>
 80073b4:	9006      	str	r0, [sp, #24]
 80073b6:	2800      	cmp	r0, #0
 80073b8:	f43f ae89 	beq.w	80070ce <_strtod_l+0x486>
 80073bc:	2e00      	cmp	r6, #0
 80073be:	dd08      	ble.n	80073d2 <_strtod_l+0x78a>
 80073c0:	4632      	mov	r2, r6
 80073c2:	4650      	mov	r0, sl
 80073c4:	9904      	ldr	r1, [sp, #16]
 80073c6:	f001 f9b3 	bl	8008730 <__lshift>
 80073ca:	9004      	str	r0, [sp, #16]
 80073cc:	2800      	cmp	r0, #0
 80073ce:	f43f ae7e 	beq.w	80070ce <_strtod_l+0x486>
 80073d2:	4650      	mov	r0, sl
 80073d4:	9a06      	ldr	r2, [sp, #24]
 80073d6:	991c      	ldr	r1, [sp, #112]	; 0x70
 80073d8:	f001 fa32 	bl	8008840 <__mdiff>
 80073dc:	4683      	mov	fp, r0
 80073de:	2800      	cmp	r0, #0
 80073e0:	f43f ae75 	beq.w	80070ce <_strtod_l+0x486>
 80073e4:	2400      	movs	r4, #0
 80073e6:	68c3      	ldr	r3, [r0, #12]
 80073e8:	9904      	ldr	r1, [sp, #16]
 80073ea:	60c4      	str	r4, [r0, #12]
 80073ec:	930d      	str	r3, [sp, #52]	; 0x34
 80073ee:	f001 fa0b 	bl	8008808 <__mcmp>
 80073f2:	42a0      	cmp	r0, r4
 80073f4:	da70      	bge.n	80074d8 <_strtod_l+0x890>
 80073f6:	9b0d      	ldr	r3, [sp, #52]	; 0x34
 80073f8:	ea53 0308 	orrs.w	r3, r3, r8
 80073fc:	f040 8096 	bne.w	800752c <_strtod_l+0x8e4>
 8007400:	f3c9 0313 	ubfx	r3, r9, #0, #20
 8007404:	2b00      	cmp	r3, #0
 8007406:	f040 8091 	bne.w	800752c <_strtod_l+0x8e4>
 800740a:	f029 4300 	bic.w	r3, r9, #2147483648	; 0x80000000
 800740e:	0d1b      	lsrs	r3, r3, #20
 8007410:	051b      	lsls	r3, r3, #20
 8007412:	f1b3 6fd6 	cmp.w	r3, #112197632	; 0x6b00000
 8007416:	f240 8089 	bls.w	800752c <_strtod_l+0x8e4>
 800741a:	f8db 3014 	ldr.w	r3, [fp, #20]
 800741e:	b923      	cbnz	r3, 800742a <_strtod_l+0x7e2>
 8007420:	f8db 3010 	ldr.w	r3, [fp, #16]
 8007424:	2b01      	cmp	r3, #1
 8007426:	f340 8081 	ble.w	800752c <_strtod_l+0x8e4>
 800742a:	4659      	mov	r1, fp
 800742c:	2201      	movs	r2, #1
 800742e:	4650      	mov	r0, sl
 8007430:	f001 f97e 	bl	8008730 <__lshift>
 8007434:	9904      	ldr	r1, [sp, #16]
 8007436:	4683      	mov	fp, r0
 8007438:	f001 f9e6 	bl	8008808 <__mcmp>
 800743c:	2800      	cmp	r0, #0
 800743e:	dd75      	ble.n	800752c <_strtod_l+0x8e4>
 8007440:	9905      	ldr	r1, [sp, #20]
 8007442:	464b      	mov	r3, r9
 8007444:	4a22      	ldr	r2, [pc, #136]	; (80074d0 <_strtod_l+0x888>)
 8007446:	2900      	cmp	r1, #0
 8007448:	f000 8091 	beq.w	800756e <_strtod_l+0x926>
 800744c:	ea02 0109 	and.w	r1, r2, r9
 8007450:	f1b1 6fd6 	cmp.w	r1, #112197632	; 0x6b00000
 8007454:	f300 808b 	bgt.w	800756e <_strtod_l+0x926>
 8007458:	f1b1 7f5c 	cmp.w	r1, #57671680	; 0x3700000
 800745c:	f77f aea9 	ble.w	80071b2 <_strtod_l+0x56a>
 8007460:	2300      	movs	r3, #0
 8007462:	4a1c      	ldr	r2, [pc, #112]	; (80074d4 <_strtod_l+0x88c>)
 8007464:	4640      	mov	r0, r8
 8007466:	e9cd 3214 	strd	r3, r2, [sp, #80]	; 0x50
 800746a:	4649      	mov	r1, r9
 800746c:	e9dd 2314 	ldrd	r2, r3, [sp, #80]	; 0x50
 8007470:	f7f9 f89e 	bl	80005b0 <__aeabi_dmul>
 8007474:	460b      	mov	r3, r1
 8007476:	4303      	orrs	r3, r0
 8007478:	bf08      	it	eq
 800747a:	2322      	moveq	r3, #34	; 0x22
 800747c:	4680      	mov	r8, r0
 800747e:	4689      	mov	r9, r1
 8007480:	bf08      	it	eq
 8007482:	f8ca 3000 	streq.w	r3, [sl]
 8007486:	e62d      	b.n	80070e4 <_strtod_l+0x49c>
 8007488:	f04f 32ff 	mov.w	r2, #4294967295
 800748c:	fa02 f303 	lsl.w	r3, r2, r3
 8007490:	ea03 0808 	and.w	r8, r3, r8
 8007494:	e6db      	b.n	800724e <_strtod_l+0x606>
 8007496:	f1c5 457f 	rsb	r5, r5, #4278190080	; 0xff000000
 800749a:	f505 057f 	add.w	r5, r5, #16711680	; 0xff0000
 800749e:	f505 457b 	add.w	r5, r5, #64256	; 0xfb00
 80074a2:	35e2      	adds	r5, #226	; 0xe2
 80074a4:	fa07 f505 	lsl.w	r5, r7, r5
 80074a8:	970f      	str	r7, [sp, #60]	; 0x3c
 80074aa:	e742      	b.n	8007332 <_strtod_l+0x6ea>
 80074ac:	2301      	movs	r3, #1
 80074ae:	2500      	movs	r5, #0
 80074b0:	930f      	str	r3, [sp, #60]	; 0x3c
 80074b2:	e73e      	b.n	8007332 <_strtod_l+0x6ea>
 80074b4:	463a      	mov	r2, r7
 80074b6:	4650      	mov	r0, sl
 80074b8:	991c      	ldr	r1, [sp, #112]	; 0x70
 80074ba:	f001 f939 	bl	8008730 <__lshift>
 80074be:	901c      	str	r0, [sp, #112]	; 0x70
 80074c0:	2800      	cmp	r0, #0
 80074c2:	f47f af64 	bne.w	800738e <_strtod_l+0x746>
 80074c6:	e602      	b.n	80070ce <_strtod_l+0x486>
 80074c8:	08009e80 	.word	0x08009e80
 80074cc:	fffffc02 	.word	0xfffffc02
 80074d0:	7ff00000 	.word	0x7ff00000
 80074d4:	39500000 	.word	0x39500000
 80074d8:	f8cd 9024 	str.w	r9, [sp, #36]	; 0x24
 80074dc:	d166      	bne.n	80075ac <_strtod_l+0x964>
 80074de:	9a0d      	ldr	r2, [sp, #52]	; 0x34
 80074e0:	f3c9 0313 	ubfx	r3, r9, #0, #20
 80074e4:	b35a      	cbz	r2, 800753e <_strtod_l+0x8f6>
 80074e6:	4a9c      	ldr	r2, [pc, #624]	; (8007758 <_strtod_l+0xb10>)
 80074e8:	4293      	cmp	r3, r2
 80074ea:	d12c      	bne.n	8007546 <_strtod_l+0x8fe>
 80074ec:	9b05      	ldr	r3, [sp, #20]
 80074ee:	4640      	mov	r0, r8
 80074f0:	b303      	cbz	r3, 8007534 <_strtod_l+0x8ec>
 80074f2:	464b      	mov	r3, r9
 80074f4:	4a99      	ldr	r2, [pc, #612]	; (800775c <_strtod_l+0xb14>)
 80074f6:	f04f 31ff 	mov.w	r1, #4294967295
 80074fa:	401a      	ands	r2, r3
 80074fc:	f1b2 6fd4 	cmp.w	r2, #111149056	; 0x6a00000
 8007500:	d81b      	bhi.n	800753a <_strtod_l+0x8f2>
 8007502:	0d12      	lsrs	r2, r2, #20
 8007504:	f1c2 036b 	rsb	r3, r2, #107	; 0x6b
 8007508:	fa01 f303 	lsl.w	r3, r1, r3
 800750c:	4298      	cmp	r0, r3
 800750e:	d11a      	bne.n	8007546 <_strtod_l+0x8fe>
 8007510:	4b93      	ldr	r3, [pc, #588]	; (8007760 <_strtod_l+0xb18>)
 8007512:	9a09      	ldr	r2, [sp, #36]	; 0x24
 8007514:	429a      	cmp	r2, r3
 8007516:	d102      	bne.n	800751e <_strtod_l+0x8d6>
 8007518:	3001      	adds	r0, #1
 800751a:	f43f add8 	beq.w	80070ce <_strtod_l+0x486>
 800751e:	f04f 0800 	mov.w	r8, #0
 8007522:	4b8e      	ldr	r3, [pc, #568]	; (800775c <_strtod_l+0xb14>)
 8007524:	9a09      	ldr	r2, [sp, #36]	; 0x24
 8007526:	401a      	ands	r2, r3
 8007528:	f502 1980 	add.w	r9, r2, #1048576	; 0x100000
 800752c:	9b05      	ldr	r3, [sp, #20]
 800752e:	2b00      	cmp	r3, #0
 8007530:	d196      	bne.n	8007460 <_strtod_l+0x818>
 8007532:	e5d7      	b.n	80070e4 <_strtod_l+0x49c>
 8007534:	f04f 33ff 	mov.w	r3, #4294967295
 8007538:	e7e8      	b.n	800750c <_strtod_l+0x8c4>
 800753a:	460b      	mov	r3, r1
 800753c:	e7e6      	b.n	800750c <_strtod_l+0x8c4>
 800753e:	ea53 0308 	orrs.w	r3, r3, r8
 8007542:	f43f af7d 	beq.w	8007440 <_strtod_l+0x7f8>
 8007546:	b1e5      	cbz	r5, 8007582 <_strtod_l+0x93a>
 8007548:	9b09      	ldr	r3, [sp, #36]	; 0x24
 800754a:	421d      	tst	r5, r3
 800754c:	d0ee      	beq.n	800752c <_strtod_l+0x8e4>
 800754e:	9b0d      	ldr	r3, [sp, #52]	; 0x34
 8007550:	4640      	mov	r0, r8
 8007552:	4649      	mov	r1, r9
 8007554:	9a05      	ldr	r2, [sp, #20]
 8007556:	b1c3      	cbz	r3, 800758a <_strtod_l+0x942>
 8007558:	f7ff fb55 	bl	8006c06 <sulp>
 800755c:	4602      	mov	r2, r0
 800755e:	460b      	mov	r3, r1
 8007560:	e9dd 010a 	ldrd	r0, r1, [sp, #40]	; 0x28
 8007564:	f7f8 fe6e 	bl	8000244 <__adddf3>
 8007568:	4680      	mov	r8, r0
 800756a:	4689      	mov	r9, r1
 800756c:	e7de      	b.n	800752c <_strtod_l+0x8e4>
 800756e:	4013      	ands	r3, r2
 8007570:	f5a3 1380 	sub.w	r3, r3, #1048576	; 0x100000
 8007574:	ea6f 5913 	mvn.w	r9, r3, lsr #20
 8007578:	f04f 38ff 	mov.w	r8, #4294967295
 800757c:	ea6f 5909 	mvn.w	r9, r9, lsl #20
 8007580:	e7d4      	b.n	800752c <_strtod_l+0x8e4>
 8007582:	9b0f      	ldr	r3, [sp, #60]	; 0x3c
 8007584:	ea13 0f08 	tst.w	r3, r8
 8007588:	e7e0      	b.n	800754c <_strtod_l+0x904>
 800758a:	f7ff fb3c 	bl	8006c06 <sulp>
 800758e:	4602      	mov	r2, r0
 8007590:	460b      	mov	r3, r1
 8007592:	e9dd 010a 	ldrd	r0, r1, [sp, #40]	; 0x28
 8007596:	f7f8 fe53 	bl	8000240 <__aeabi_dsub>
 800759a:	2200      	movs	r2, #0
 800759c:	2300      	movs	r3, #0
 800759e:	4680      	mov	r8, r0
 80075a0:	4689      	mov	r9, r1
 80075a2:	f7f9 fa6d 	bl	8000a80 <__aeabi_dcmpeq>
 80075a6:	2800      	cmp	r0, #0
 80075a8:	d0c0      	beq.n	800752c <_strtod_l+0x8e4>
 80075aa:	e602      	b.n	80071b2 <_strtod_l+0x56a>
 80075ac:	4658      	mov	r0, fp
 80075ae:	9904      	ldr	r1, [sp, #16]
 80075b0:	f001 faac 	bl	8008b0c <__ratio>
 80075b4:	2200      	movs	r2, #0
 80075b6:	f04f 4380 	mov.w	r3, #1073741824	; 0x40000000
 80075ba:	4606      	mov	r6, r0
 80075bc:	460f      	mov	r7, r1
 80075be:	f7f9 fa73 	bl	8000aa8 <__aeabi_dcmple>
 80075c2:	2800      	cmp	r0, #0
 80075c4:	d075      	beq.n	80076b2 <_strtod_l+0xa6a>
 80075c6:	9b0d      	ldr	r3, [sp, #52]	; 0x34
 80075c8:	2b00      	cmp	r3, #0
 80075ca:	d047      	beq.n	800765c <_strtod_l+0xa14>
 80075cc:	2600      	movs	r6, #0
 80075ce:	4f65      	ldr	r7, [pc, #404]	; (8007764 <_strtod_l+0xb1c>)
 80075d0:	4d64      	ldr	r5, [pc, #400]	; (8007764 <_strtod_l+0xb1c>)
 80075d2:	9b09      	ldr	r3, [sp, #36]	; 0x24
 80075d4:	f023 4300 	bic.w	r3, r3, #2147483648	; 0x80000000
 80075d8:	0d1b      	lsrs	r3, r3, #20
 80075da:	051b      	lsls	r3, r3, #20
 80075dc:	930f      	str	r3, [sp, #60]	; 0x3c
 80075de:	9a0f      	ldr	r2, [sp, #60]	; 0x3c
 80075e0:	4b61      	ldr	r3, [pc, #388]	; (8007768 <_strtod_l+0xb20>)
 80075e2:	429a      	cmp	r2, r3
 80075e4:	f040 80c8 	bne.w	8007778 <_strtod_l+0xb30>
 80075e8:	e9dd 230a 	ldrd	r2, r3, [sp, #40]	; 0x28
 80075ec:	e9cd 2314 	strd	r2, r3, [sp, #80]	; 0x50
 80075f0:	9b09      	ldr	r3, [sp, #36]	; 0x24
 80075f2:	4640      	mov	r0, r8
 80075f4:	f1a3 7954 	sub.w	r9, r3, #55574528	; 0x3500000
 80075f8:	4649      	mov	r1, r9
 80075fa:	f001 f9b1 	bl	8008960 <__ulp>
 80075fe:	4602      	mov	r2, r0
 8007600:	460b      	mov	r3, r1
 8007602:	4630      	mov	r0, r6
 8007604:	4639      	mov	r1, r7
 8007606:	f7f8 ffd3 	bl	80005b0 <__aeabi_dmul>
 800760a:	4642      	mov	r2, r8
 800760c:	464b      	mov	r3, r9
 800760e:	f7f8 fe19 	bl	8000244 <__adddf3>
 8007612:	460b      	mov	r3, r1
 8007614:	4951      	ldr	r1, [pc, #324]	; (800775c <_strtod_l+0xb14>)
 8007616:	4a55      	ldr	r2, [pc, #340]	; (800776c <_strtod_l+0xb24>)
 8007618:	4019      	ands	r1, r3
 800761a:	4291      	cmp	r1, r2
 800761c:	4680      	mov	r8, r0
 800761e:	d95e      	bls.n	80076de <_strtod_l+0xa96>
 8007620:	9b0b      	ldr	r3, [sp, #44]	; 0x2c
 8007622:	f102 7254 	add.w	r2, r2, #55574528	; 0x3500000
 8007626:	4293      	cmp	r3, r2
 8007628:	d103      	bne.n	8007632 <_strtod_l+0x9ea>
 800762a:	9b0a      	ldr	r3, [sp, #40]	; 0x28
 800762c:	3301      	adds	r3, #1
 800762e:	f43f ad4e 	beq.w	80070ce <_strtod_l+0x486>
 8007632:	f04f 38ff 	mov.w	r8, #4294967295
 8007636:	f8df 9128 	ldr.w	r9, [pc, #296]	; 8007760 <_strtod_l+0xb18>
 800763a:	4650      	mov	r0, sl
 800763c:	991c      	ldr	r1, [sp, #112]	; 0x70
 800763e:	f000 fe5f 	bl	8008300 <_Bfree>
 8007642:	4650      	mov	r0, sl
 8007644:	9906      	ldr	r1, [sp, #24]
 8007646:	f000 fe5b 	bl	8008300 <_Bfree>
 800764a:	4650      	mov	r0, sl
 800764c:	9904      	ldr	r1, [sp, #16]
 800764e:	f000 fe57 	bl	8008300 <_Bfree>
 8007652:	4659      	mov	r1, fp
 8007654:	4650      	mov	r0, sl
 8007656:	f000 fe53 	bl	8008300 <_Bfree>
 800765a:	e61c      	b.n	8007296 <_strtod_l+0x64e>
 800765c:	f1b8 0f00 	cmp.w	r8, #0
 8007660:	d119      	bne.n	8007696 <_strtod_l+0xa4e>
 8007662:	9b09      	ldr	r3, [sp, #36]	; 0x24
 8007664:	f3c3 0313 	ubfx	r3, r3, #0, #20
 8007668:	b9e3      	cbnz	r3, 80076a4 <_strtod_l+0xa5c>
 800766a:	2200      	movs	r2, #0
 800766c:	4630      	mov	r0, r6
 800766e:	4639      	mov	r1, r7
 8007670:	4b3c      	ldr	r3, [pc, #240]	; (8007764 <_strtod_l+0xb1c>)
 8007672:	f7f9 fa0f 	bl	8000a94 <__aeabi_dcmplt>
 8007676:	b9c8      	cbnz	r0, 80076ac <_strtod_l+0xa64>
 8007678:	2200      	movs	r2, #0
 800767a:	4630      	mov	r0, r6
 800767c:	4639      	mov	r1, r7
 800767e:	4b3c      	ldr	r3, [pc, #240]	; (8007770 <_strtod_l+0xb28>)
 8007680:	f7f8 ff96 	bl	80005b0 <__aeabi_dmul>
 8007684:	4604      	mov	r4, r0
 8007686:	460d      	mov	r5, r1
 8007688:	f105 4300 	add.w	r3, r5, #2147483648	; 0x80000000
 800768c:	9418      	str	r4, [sp, #96]	; 0x60
 800768e:	9319      	str	r3, [sp, #100]	; 0x64
 8007690:	e9dd 6718 	ldrd	r6, r7, [sp, #96]	; 0x60
 8007694:	e79d      	b.n	80075d2 <_strtod_l+0x98a>
 8007696:	f1b8 0f01 	cmp.w	r8, #1
 800769a:	d103      	bne.n	80076a4 <_strtod_l+0xa5c>
 800769c:	9b09      	ldr	r3, [sp, #36]	; 0x24
 800769e:	2b00      	cmp	r3, #0
 80076a0:	f43f ad87 	beq.w	80071b2 <_strtod_l+0x56a>
 80076a4:	2600      	movs	r6, #0
 80076a6:	2400      	movs	r4, #0
 80076a8:	4f32      	ldr	r7, [pc, #200]	; (8007774 <_strtod_l+0xb2c>)
 80076aa:	e791      	b.n	80075d0 <_strtod_l+0x988>
 80076ac:	9c0d      	ldr	r4, [sp, #52]	; 0x34
 80076ae:	4d30      	ldr	r5, [pc, #192]	; (8007770 <_strtod_l+0xb28>)
 80076b0:	e7ea      	b.n	8007688 <_strtod_l+0xa40>
 80076b2:	4b2f      	ldr	r3, [pc, #188]	; (8007770 <_strtod_l+0xb28>)
 80076b4:	2200      	movs	r2, #0
 80076b6:	4630      	mov	r0, r6
 80076b8:	4639      	mov	r1, r7
 80076ba:	f7f8 ff79 	bl	80005b0 <__aeabi_dmul>
 80076be:	9b0d      	ldr	r3, [sp, #52]	; 0x34
 80076c0:	4604      	mov	r4, r0
 80076c2:	460d      	mov	r5, r1
 80076c4:	b933      	cbnz	r3, 80076d4 <_strtod_l+0xa8c>
 80076c6:	f101 4300 	add.w	r3, r1, #2147483648	; 0x80000000
 80076ca:	9010      	str	r0, [sp, #64]	; 0x40
 80076cc:	9311      	str	r3, [sp, #68]	; 0x44
 80076ce:	e9dd 6710 	ldrd	r6, r7, [sp, #64]	; 0x40
 80076d2:	e77e      	b.n	80075d2 <_strtod_l+0x98a>
 80076d4:	4602      	mov	r2, r0
 80076d6:	460b      	mov	r3, r1
 80076d8:	e9cd 2310 	strd	r2, r3, [sp, #64]	; 0x40
 80076dc:	e7f7      	b.n	80076ce <_strtod_l+0xa86>
 80076de:	f103 7954 	add.w	r9, r3, #55574528	; 0x3500000
 80076e2:	9b05      	ldr	r3, [sp, #20]
 80076e4:	2b00      	cmp	r3, #0
 80076e6:	d1a8      	bne.n	800763a <_strtod_l+0x9f2>
 80076e8:	f029 4300 	bic.w	r3, r9, #2147483648	; 0x80000000
 80076ec:	9a0f      	ldr	r2, [sp, #60]	; 0x3c
 80076ee:	0d1b      	lsrs	r3, r3, #20
 80076f0:	051b      	lsls	r3, r3, #20
 80076f2:	429a      	cmp	r2, r3
 80076f4:	d1a1      	bne.n	800763a <_strtod_l+0x9f2>
 80076f6:	4620      	mov	r0, r4
 80076f8:	4629      	mov	r1, r5
 80076fa:	f7f9 fd07 	bl	800110c <__aeabi_d2lz>
 80076fe:	f7f8 ff29 	bl	8000554 <__aeabi_l2d>
 8007702:	4602      	mov	r2, r0
 8007704:	460b      	mov	r3, r1
 8007706:	4620      	mov	r0, r4
 8007708:	4629      	mov	r1, r5
 800770a:	f7f8 fd99 	bl	8000240 <__aeabi_dsub>
 800770e:	9a0d      	ldr	r2, [sp, #52]	; 0x34
 8007710:	f3c9 0313 	ubfx	r3, r9, #0, #20
 8007714:	ea43 0308 	orr.w	r3, r3, r8
 8007718:	4313      	orrs	r3, r2
 800771a:	4604      	mov	r4, r0
 800771c:	460d      	mov	r5, r1
 800771e:	d066      	beq.n	80077ee <_strtod_l+0xba6>
 8007720:	a309      	add	r3, pc, #36	; (adr r3, 8007748 <_strtod_l+0xb00>)
 8007722:	e9d3 2300 	ldrd	r2, r3, [r3]
 8007726:	f7f9 f9b5 	bl	8000a94 <__aeabi_dcmplt>
 800772a:	2800      	cmp	r0, #0
 800772c:	f47f acda 	bne.w	80070e4 <_strtod_l+0x49c>
 8007730:	a307      	add	r3, pc, #28	; (adr r3, 8007750 <_strtod_l+0xb08>)
 8007732:	e9d3 2300 	ldrd	r2, r3, [r3]
 8007736:	4620      	mov	r0, r4
 8007738:	4629      	mov	r1, r5
 800773a:	f7f9 f9c9 	bl	8000ad0 <__aeabi_dcmpgt>
 800773e:	2800      	cmp	r0, #0
 8007740:	f43f af7b 	beq.w	800763a <_strtod_l+0x9f2>
 8007744:	e4ce      	b.n	80070e4 <_strtod_l+0x49c>
 8007746:	bf00      	nop
 8007748:	94a03595 	.word	0x94a03595
 800774c:	3fdfffff 	.word	0x3fdfffff
 8007750:	35afe535 	.word	0x35afe535
 8007754:	3fe00000 	.word	0x3fe00000
 8007758:	000fffff 	.word	0x000fffff
 800775c:	7ff00000 	.word	0x7ff00000
 8007760:	7fefffff 	.word	0x7fefffff
 8007764:	3ff00000 	.word	0x3ff00000
 8007768:	7fe00000 	.word	0x7fe00000
 800776c:	7c9fffff 	.word	0x7c9fffff
 8007770:	3fe00000 	.word	0x3fe00000
 8007774:	bff00000 	.word	0xbff00000
 8007778:	9b05      	ldr	r3, [sp, #20]
 800777a:	b313      	cbz	r3, 80077c2 <_strtod_l+0xb7a>
 800777c:	9b0f      	ldr	r3, [sp, #60]	; 0x3c
 800777e:	f1b3 6fd4 	cmp.w	r3, #111149056	; 0x6a00000
 8007782:	d81e      	bhi.n	80077c2 <_strtod_l+0xb7a>
 8007784:	a326      	add	r3, pc, #152	; (adr r3, 8007820 <_strtod_l+0xbd8>)
 8007786:	e9d3 2300 	ldrd	r2, r3, [r3]
 800778a:	4620      	mov	r0, r4
 800778c:	4629      	mov	r1, r5
 800778e:	f7f9 f98b 	bl	8000aa8 <__aeabi_dcmple>
 8007792:	b190      	cbz	r0, 80077ba <_strtod_l+0xb72>
 8007794:	4629      	mov	r1, r5
 8007796:	4620      	mov	r0, r4
 8007798:	f7f9 f9a4 	bl	8000ae4 <__aeabi_d2uiz>
 800779c:	2801      	cmp	r0, #1
 800779e:	bf38      	it	cc
 80077a0:	2001      	movcc	r0, #1
 80077a2:	f7f8 fe8b 	bl	80004bc <__aeabi_ui2d>
 80077a6:	9b0d      	ldr	r3, [sp, #52]	; 0x34
 80077a8:	4604      	mov	r4, r0
 80077aa:	460d      	mov	r5, r1
 80077ac:	b9d3      	cbnz	r3, 80077e4 <_strtod_l+0xb9c>
 80077ae:	f101 4300 	add.w	r3, r1, #2147483648	; 0x80000000
 80077b2:	9012      	str	r0, [sp, #72]	; 0x48
 80077b4:	9313      	str	r3, [sp, #76]	; 0x4c
 80077b6:	e9dd 6712 	ldrd	r6, r7, [sp, #72]	; 0x48
 80077ba:	9a0f      	ldr	r2, [sp, #60]	; 0x3c
 80077bc:	f107 63d6 	add.w	r3, r7, #112197632	; 0x6b00000
 80077c0:	1a9f      	subs	r7, r3, r2
 80077c2:	e9dd 010a 	ldrd	r0, r1, [sp, #40]	; 0x28
 80077c6:	f001 f8cb 	bl	8008960 <__ulp>
 80077ca:	4602      	mov	r2, r0
 80077cc:	460b      	mov	r3, r1
 80077ce:	4630      	mov	r0, r6
 80077d0:	4639      	mov	r1, r7
 80077d2:	f7f8 feed 	bl	80005b0 <__aeabi_dmul>
 80077d6:	e9dd 230a 	ldrd	r2, r3, [sp, #40]	; 0x28
 80077da:	f7f8 fd33 	bl	8000244 <__adddf3>
 80077de:	4680      	mov	r8, r0
 80077e0:	4689      	mov	r9, r1
 80077e2:	e77e      	b.n	80076e2 <_strtod_l+0xa9a>
 80077e4:	4602      	mov	r2, r0
 80077e6:	460b      	mov	r3, r1
 80077e8:	e9cd 2312 	strd	r2, r3, [sp, #72]	; 0x48
 80077ec:	e7e3      	b.n	80077b6 <_strtod_l+0xb6e>
 80077ee:	a30e      	add	r3, pc, #56	; (adr r3, 8007828 <_strtod_l+0xbe0>)
 80077f0:	e9d3 2300 	ldrd	r2, r3, [r3]
 80077f4:	f7f9 f94e 	bl	8000a94 <__aeabi_dcmplt>
 80077f8:	e7a1      	b.n	800773e <_strtod_l+0xaf6>
 80077fa:	2300      	movs	r3, #0
 80077fc:	930c      	str	r3, [sp, #48]	; 0x30
 80077fe:	9b1b      	ldr	r3, [sp, #108]	; 0x6c
 8007800:	9a17      	ldr	r2, [sp, #92]	; 0x5c
 8007802:	6013      	str	r3, [r2, #0]
 8007804:	f7ff ba65 	b.w	8006cd2 <_strtod_l+0x8a>
 8007808:	2b65      	cmp	r3, #101	; 0x65
 800780a:	f43f ab5c 	beq.w	8006ec6 <_strtod_l+0x27e>
 800780e:	2b45      	cmp	r3, #69	; 0x45
 8007810:	f43f ab59 	beq.w	8006ec6 <_strtod_l+0x27e>
 8007814:	2201      	movs	r2, #1
 8007816:	f7ff bb8d 	b.w	8006f34 <_strtod_l+0x2ec>
 800781a:	bf00      	nop
 800781c:	f3af 8000 	nop.w
 8007820:	ffc00000 	.word	0xffc00000
 8007824:	41dfffff 	.word	0x41dfffff
 8007828:	94a03595 	.word	0x94a03595
 800782c:	3fcfffff 	.word	0x3fcfffff

08007830 <strtod>:
 8007830:	460a      	mov	r2, r1
 8007832:	4601      	mov	r1, r0
 8007834:	4802      	ldr	r0, [pc, #8]	; (8007840 <strtod+0x10>)
 8007836:	4b03      	ldr	r3, [pc, #12]	; (8007844 <strtod+0x14>)
 8007838:	6800      	ldr	r0, [r0, #0]
 800783a:	f7ff ba05 	b.w	8006c48 <_strtod_l>
 800783e:	bf00      	nop
 8007840:	20000010 	.word	0x20000010
 8007844:	20000078 	.word	0x20000078

08007848 <_strtol_l.isra.0>:
 8007848:	2b01      	cmp	r3, #1
 800784a:	e92d 47f0 	stmdb	sp!, {r4, r5, r6, r7, r8, r9, sl, lr}
 800784e:	4686      	mov	lr, r0
 8007850:	d001      	beq.n	8007856 <_strtol_l.isra.0+0xe>
 8007852:	2b24      	cmp	r3, #36	; 0x24
 8007854:	d906      	bls.n	8007864 <_strtol_l.isra.0+0x1c>
 8007856:	f7ff f897 	bl	8006988 <__errno>
 800785a:	2316      	movs	r3, #22
 800785c:	6003      	str	r3, [r0, #0]
 800785e:	2000      	movs	r0, #0
 8007860:	e8bd 87f0 	ldmia.w	sp!, {r4, r5, r6, r7, r8, r9, sl, pc}
 8007864:	468c      	mov	ip, r1
 8007866:	4e3a      	ldr	r6, [pc, #232]	; (8007950 <_strtol_l.isra.0+0x108>)
 8007868:	4660      	mov	r0, ip
 800786a:	f81c 4b01 	ldrb.w	r4, [ip], #1
 800786e:	5da5      	ldrb	r5, [r4, r6]
 8007870:	f015 0508 	ands.w	r5, r5, #8
 8007874:	d1f8      	bne.n	8007868 <_strtol_l.isra.0+0x20>
 8007876:	2c2d      	cmp	r4, #45	; 0x2d
 8007878:	d133      	bne.n	80078e2 <_strtol_l.isra.0+0x9a>
 800787a:	f04f 0801 	mov.w	r8, #1
 800787e:	f89c 4000 	ldrb.w	r4, [ip]
 8007882:	f100 0c02 	add.w	ip, r0, #2
 8007886:	2b00      	cmp	r3, #0
 8007888:	d05d      	beq.n	8007946 <_strtol_l.isra.0+0xfe>
 800788a:	2b10      	cmp	r3, #16
 800788c:	d10c      	bne.n	80078a8 <_strtol_l.isra.0+0x60>
 800788e:	2c30      	cmp	r4, #48	; 0x30
 8007890:	d10a      	bne.n	80078a8 <_strtol_l.isra.0+0x60>
 8007892:	f89c 0000 	ldrb.w	r0, [ip]
 8007896:	f000 00df 	and.w	r0, r0, #223	; 0xdf
 800789a:	2858      	cmp	r0, #88	; 0x58
 800789c:	d14e      	bne.n	800793c <_strtol_l.isra.0+0xf4>
 800789e:	2310      	movs	r3, #16
 80078a0:	f89c 4001 	ldrb.w	r4, [ip, #1]
 80078a4:	f10c 0c02 	add.w	ip, ip, #2
 80078a8:	2500      	movs	r5, #0
 80078aa:	f108 4700 	add.w	r7, r8, #2147483648	; 0x80000000
 80078ae:	3f01      	subs	r7, #1
 80078b0:	fbb7 f9f3 	udiv	r9, r7, r3
 80078b4:	4628      	mov	r0, r5
 80078b6:	fb03 7a19 	mls	sl, r3, r9, r7
 80078ba:	f1a4 0630 	sub.w	r6, r4, #48	; 0x30
 80078be:	2e09      	cmp	r6, #9
 80078c0:	d818      	bhi.n	80078f4 <_strtol_l.isra.0+0xac>
 80078c2:	4634      	mov	r4, r6
 80078c4:	42a3      	cmp	r3, r4
 80078c6:	dd24      	ble.n	8007912 <_strtol_l.isra.0+0xca>
 80078c8:	2d00      	cmp	r5, #0
 80078ca:	db1f      	blt.n	800790c <_strtol_l.isra.0+0xc4>
 80078cc:	4581      	cmp	r9, r0
 80078ce:	d31d      	bcc.n	800790c <_strtol_l.isra.0+0xc4>
 80078d0:	d101      	bne.n	80078d6 <_strtol_l.isra.0+0x8e>
 80078d2:	45a2      	cmp	sl, r4
 80078d4:	db1a      	blt.n	800790c <_strtol_l.isra.0+0xc4>
 80078d6:	2501      	movs	r5, #1
 80078d8:	fb00 4003 	mla	r0, r0, r3, r4
 80078dc:	f81c 4b01 	ldrb.w	r4, [ip], #1
 80078e0:	e7eb      	b.n	80078ba <_strtol_l.isra.0+0x72>
 80078e2:	2c2b      	cmp	r4, #43	; 0x2b
 80078e4:	bf08      	it	eq
 80078e6:	f89c 4000 	ldrbeq.w	r4, [ip]
 80078ea:	46a8      	mov	r8, r5
 80078ec:	bf08      	it	eq
 80078ee:	f100 0c02 	addeq.w	ip, r0, #2
 80078f2:	e7c8      	b.n	8007886 <_strtol_l.isra.0+0x3e>
 80078f4:	f1a4 0641 	sub.w	r6, r4, #65	; 0x41
 80078f8:	2e19      	cmp	r6, #25
 80078fa:	d801      	bhi.n	8007900 <_strtol_l.isra.0+0xb8>
 80078fc:	3c37      	subs	r4, #55	; 0x37
 80078fe:	e7e1      	b.n	80078c4 <_strtol_l.isra.0+0x7c>
 8007900:	f1a4 0661 	sub.w	r6, r4, #97	; 0x61
 8007904:	2e19      	cmp	r6, #25
 8007906:	d804      	bhi.n	8007912 <_strtol_l.isra.0+0xca>
 8007908:	3c57      	subs	r4, #87	; 0x57
 800790a:	e7db      	b.n	80078c4 <_strtol_l.isra.0+0x7c>
 800790c:	f04f 35ff 	mov.w	r5, #4294967295
 8007910:	e7e4      	b.n	80078dc <_strtol_l.isra.0+0x94>
 8007912:	2d00      	cmp	r5, #0
 8007914:	da08      	bge.n	8007928 <_strtol_l.isra.0+0xe0>
 8007916:	2322      	movs	r3, #34	; 0x22
 8007918:	4638      	mov	r0, r7
 800791a:	f8ce 3000 	str.w	r3, [lr]
 800791e:	2a00      	cmp	r2, #0
 8007920:	d09e      	beq.n	8007860 <_strtol_l.isra.0+0x18>
 8007922:	f10c 31ff 	add.w	r1, ip, #4294967295
 8007926:	e007      	b.n	8007938 <_strtol_l.isra.0+0xf0>
 8007928:	f1b8 0f00 	cmp.w	r8, #0
 800792c:	d000      	beq.n	8007930 <_strtol_l.isra.0+0xe8>
 800792e:	4240      	negs	r0, r0
 8007930:	2a00      	cmp	r2, #0
 8007932:	d095      	beq.n	8007860 <_strtol_l.isra.0+0x18>
 8007934:	2d00      	cmp	r5, #0
 8007936:	d1f4      	bne.n	8007922 <_strtol_l.isra.0+0xda>
 8007938:	6011      	str	r1, [r2, #0]
 800793a:	e791      	b.n	8007860 <_strtol_l.isra.0+0x18>
 800793c:	2430      	movs	r4, #48	; 0x30
 800793e:	2b00      	cmp	r3, #0
 8007940:	d1b2      	bne.n	80078a8 <_strtol_l.isra.0+0x60>
 8007942:	2308      	movs	r3, #8
 8007944:	e7b0      	b.n	80078a8 <_strtol_l.isra.0+0x60>
 8007946:	2c30      	cmp	r4, #48	; 0x30
 8007948:	d0a3      	beq.n	8007892 <_strtol_l.isra.0+0x4a>
 800794a:	230a      	movs	r3, #10
 800794c:	e7ac      	b.n	80078a8 <_strtol_l.isra.0+0x60>
 800794e:	bf00      	nop
 8007950:	08009ea9 	.word	0x08009ea9

08007954 <strtol>:
 8007954:	4613      	mov	r3, r2
 8007956:	460a      	mov	r2, r1
 8007958:	4601      	mov	r1, r0
 800795a:	4802      	ldr	r0, [pc, #8]	; (8007964 <strtol+0x10>)
 800795c:	6800      	ldr	r0, [r0, #0]
 800795e:	f7ff bf73 	b.w	8007848 <_strtol_l.isra.0>
 8007962:	bf00      	nop
 8007964:	20000010 	.word	0x20000010

08007968 <std>:
 8007968:	2300      	movs	r3, #0
 800796a:	b510      	push	{r4, lr}
 800796c:	4604      	mov	r4, r0
 800796e:	e9c0 3300 	strd	r3, r3, [r0]
 8007972:	e9c0 3304 	strd	r3, r3, [r0, #16]
 8007976:	6083      	str	r3, [r0, #8]
 8007978:	8181      	strh	r1, [r0, #12]
 800797a:	6643      	str	r3, [r0, #100]	; 0x64
 800797c:	81c2      	strh	r2, [r0, #14]
 800797e:	6183      	str	r3, [r0, #24]
 8007980:	4619      	mov	r1, r3
 8007982:	2208      	movs	r2, #8
 8007984:	305c      	adds	r0, #92	; 0x5c
 8007986:	f7ff f839 	bl	80069fc <memset>
 800798a:	4b05      	ldr	r3, [pc, #20]	; (80079a0 <std+0x38>)
 800798c:	6224      	str	r4, [r4, #32]
 800798e:	6263      	str	r3, [r4, #36]	; 0x24
 8007990:	4b04      	ldr	r3, [pc, #16]	; (80079a4 <std+0x3c>)
 8007992:	62a3      	str	r3, [r4, #40]	; 0x28
 8007994:	4b04      	ldr	r3, [pc, #16]	; (80079a8 <std+0x40>)
 8007996:	62e3      	str	r3, [r4, #44]	; 0x2c
 8007998:	4b04      	ldr	r3, [pc, #16]	; (80079ac <std+0x44>)
 800799a:	6323      	str	r3, [r4, #48]	; 0x30
 800799c:	bd10      	pop	{r4, pc}
 800799e:	bf00      	nop
 80079a0:	080094ad 	.word	0x080094ad
 80079a4:	080094cf 	.word	0x080094cf
 80079a8:	08009507 	.word	0x08009507
 80079ac:	0800952b 	.word	0x0800952b

080079b0 <_cleanup_r>:
 80079b0:	4901      	ldr	r1, [pc, #4]	; (80079b8 <_cleanup_r+0x8>)
 80079b2:	f000 b8af 	b.w	8007b14 <_fwalk_reent>
 80079b6:	bf00      	nop
 80079b8:	08009881 	.word	0x08009881

080079bc <__sfmoreglue>:
 80079bc:	b570      	push	{r4, r5, r6, lr}
 80079be:	2568      	movs	r5, #104	; 0x68
 80079c0:	1e4a      	subs	r2, r1, #1
 80079c2:	4355      	muls	r5, r2
 80079c4:	460e      	mov	r6, r1
 80079c6:	f105 0174 	add.w	r1, r5, #116	; 0x74
 80079ca:	f7ff f86b 	bl	8006aa4 <_malloc_r>
 80079ce:	4604      	mov	r4, r0
 80079d0:	b140      	cbz	r0, 80079e4 <__sfmoreglue+0x28>
 80079d2:	2100      	movs	r1, #0
 80079d4:	e9c0 1600 	strd	r1, r6, [r0]
 80079d8:	300c      	adds	r0, #12
 80079da:	60a0      	str	r0, [r4, #8]
 80079dc:	f105 0268 	add.w	r2, r5, #104	; 0x68
 80079e0:	f7ff f80c 	bl	80069fc <memset>
 80079e4:	4620      	mov	r0, r4
 80079e6:	bd70      	pop	{r4, r5, r6, pc}

080079e8 <__sfp_lock_acquire>:
 80079e8:	4801      	ldr	r0, [pc, #4]	; (80079f0 <__sfp_lock_acquire+0x8>)
 80079ea:	f000 bc1a 	b.w	8008222 <__retarget_lock_acquire_recursive>
 80079ee:	bf00      	nop
 80079f0:	20000bc8 	.word	0x20000bc8

080079f4 <__sfp_lock_release>:
 80079f4:	4801      	ldr	r0, [pc, #4]	; (80079fc <__sfp_lock_release+0x8>)
 80079f6:	f000 bc15 	b.w	8008224 <__retarget_lock_release_recursive>
 80079fa:	bf00      	nop
 80079fc:	20000bc8 	.word	0x20000bc8

08007a00 <__sinit_lock_acquire>:
 8007a00:	4801      	ldr	r0, [pc, #4]	; (8007a08 <__sinit_lock_acquire+0x8>)
 8007a02:	f000 bc0e 	b.w	8008222 <__retarget_lock_acquire_recursive>
 8007a06:	bf00      	nop
 8007a08:	20000bc3 	.word	0x20000bc3

08007a0c <__sinit_lock_release>:
 8007a0c:	4801      	ldr	r0, [pc, #4]	; (8007a14 <__sinit_lock_release+0x8>)
 8007a0e:	f000 bc09 	b.w	8008224 <__retarget_lock_release_recursive>
 8007a12:	bf00      	nop
 8007a14:	20000bc3 	.word	0x20000bc3

08007a18 <__sinit>:
 8007a18:	b510      	push	{r4, lr}
 8007a1a:	4604      	mov	r4, r0
 8007a1c:	f7ff fff0 	bl	8007a00 <__sinit_lock_acquire>
 8007a20:	69a3      	ldr	r3, [r4, #24]
 8007a22:	b11b      	cbz	r3, 8007a2c <__sinit+0x14>
 8007a24:	e8bd 4010 	ldmia.w	sp!, {r4, lr}
 8007a28:	f7ff bff0 	b.w	8007a0c <__sinit_lock_release>
 8007a2c:	e9c4 3312 	strd	r3, r3, [r4, #72]	; 0x48
 8007a30:	6523      	str	r3, [r4, #80]	; 0x50
 8007a32:	4b13      	ldr	r3, [pc, #76]	; (8007a80 <__sinit+0x68>)
 8007a34:	4a13      	ldr	r2, [pc, #76]	; (8007a84 <__sinit+0x6c>)
 8007a36:	681b      	ldr	r3, [r3, #0]
 8007a38:	62a2      	str	r2, [r4, #40]	; 0x28
 8007a3a:	42a3      	cmp	r3, r4
 8007a3c:	bf08      	it	eq
 8007a3e:	2301      	moveq	r3, #1
 8007a40:	4620      	mov	r0, r4
 8007a42:	bf08      	it	eq
 8007a44:	61a3      	streq	r3, [r4, #24]
 8007a46:	f000 f81f 	bl	8007a88 <__sfp>
 8007a4a:	6060      	str	r0, [r4, #4]
 8007a4c:	4620      	mov	r0, r4
 8007a4e:	f000 f81b 	bl	8007a88 <__sfp>
 8007a52:	60a0      	str	r0, [r4, #8]
 8007a54:	4620      	mov	r0, r4
 8007a56:	f000 f817 	bl	8007a88 <__sfp>
 8007a5a:	2200      	movs	r2, #0
 8007a5c:	2104      	movs	r1, #4
 8007a5e:	60e0      	str	r0, [r4, #12]
 8007a60:	6860      	ldr	r0, [r4, #4]
 8007a62:	f7ff ff81 	bl	8007968 <std>
 8007a66:	2201      	movs	r2, #1
 8007a68:	2109      	movs	r1, #9
 8007a6a:	68a0      	ldr	r0, [r4, #8]
 8007a6c:	f7ff ff7c 	bl	8007968 <std>
 8007a70:	2202      	movs	r2, #2
 8007a72:	2112      	movs	r1, #18
 8007a74:	68e0      	ldr	r0, [r4, #12]
 8007a76:	f7ff ff77 	bl	8007968 <std>
 8007a7a:	2301      	movs	r3, #1
 8007a7c:	61a3      	str	r3, [r4, #24]
 8007a7e:	e7d1      	b.n	8007a24 <__sinit+0xc>
 8007a80:	08009e48 	.word	0x08009e48
 8007a84:	080079b1 	.word	0x080079b1

08007a88 <__sfp>:
 8007a88:	b5f8      	push	{r3, r4, r5, r6, r7, lr}
 8007a8a:	4607      	mov	r7, r0
 8007a8c:	f7ff ffac 	bl	80079e8 <__sfp_lock_acquire>
 8007a90:	4b1e      	ldr	r3, [pc, #120]	; (8007b0c <__sfp+0x84>)
 8007a92:	681e      	ldr	r6, [r3, #0]
 8007a94:	69b3      	ldr	r3, [r6, #24]
 8007a96:	b913      	cbnz	r3, 8007a9e <__sfp+0x16>
 8007a98:	4630      	mov	r0, r6
 8007a9a:	f7ff ffbd 	bl	8007a18 <__sinit>
 8007a9e:	3648      	adds	r6, #72	; 0x48
 8007aa0:	e9d6 3401 	ldrd	r3, r4, [r6, #4]
 8007aa4:	3b01      	subs	r3, #1
 8007aa6:	d503      	bpl.n	8007ab0 <__sfp+0x28>
 8007aa8:	6833      	ldr	r3, [r6, #0]
 8007aaa:	b30b      	cbz	r3, 8007af0 <__sfp+0x68>
 8007aac:	6836      	ldr	r6, [r6, #0]
 8007aae:	e7f7      	b.n	8007aa0 <__sfp+0x18>
 8007ab0:	f9b4 500c 	ldrsh.w	r5, [r4, #12]
 8007ab4:	b9d5      	cbnz	r5, 8007aec <__sfp+0x64>
 8007ab6:	4b16      	ldr	r3, [pc, #88]	; (8007b10 <__sfp+0x88>)
 8007ab8:	f104 0058 	add.w	r0, r4, #88	; 0x58
 8007abc:	60e3      	str	r3, [r4, #12]
 8007abe:	6665      	str	r5, [r4, #100]	; 0x64
 8007ac0:	f000 fbae 	bl	8008220 <__retarget_lock_init_recursive>
 8007ac4:	f7ff ff96 	bl	80079f4 <__sfp_lock_release>
 8007ac8:	2208      	movs	r2, #8
 8007aca:	4629      	mov	r1, r5
 8007acc:	e9c4 5501 	strd	r5, r5, [r4, #4]
 8007ad0:	e9c4 5504 	strd	r5, r5, [r4, #16]
 8007ad4:	6025      	str	r5, [r4, #0]
 8007ad6:	61a5      	str	r5, [r4, #24]
 8007ad8:	f104 005c 	add.w	r0, r4, #92	; 0x5c
 8007adc:	f7fe ff8e 	bl	80069fc <memset>
 8007ae0:	e9c4 550d 	strd	r5, r5, [r4, #52]	; 0x34
 8007ae4:	e9c4 5512 	strd	r5, r5, [r4, #72]	; 0x48
 8007ae8:	4620      	mov	r0, r4
 8007aea:	bdf8      	pop	{r3, r4, r5, r6, r7, pc}
 8007aec:	3468      	adds	r4, #104	; 0x68
 8007aee:	e7d9      	b.n	8007aa4 <__sfp+0x1c>
 8007af0:	2104      	movs	r1, #4
 8007af2:	4638      	mov	r0, r7
 8007af4:	f7ff ff62 	bl	80079bc <__sfmoreglue>
 8007af8:	4604      	mov	r4, r0
 8007afa:	6030      	str	r0, [r6, #0]
 8007afc:	2800      	cmp	r0, #0
 8007afe:	d1d5      	bne.n	8007aac <__sfp+0x24>
 8007b00:	f7ff ff78 	bl	80079f4 <__sfp_lock_release>
 8007b04:	230c      	movs	r3, #12
 8007b06:	603b      	str	r3, [r7, #0]
 8007b08:	e7ee      	b.n	8007ae8 <__sfp+0x60>
 8007b0a:	bf00      	nop
 8007b0c:	08009e48 	.word	0x08009e48
 8007b10:	ffff0001 	.word	0xffff0001

08007b14 <_fwalk_reent>:
 8007b14:	e92d 43f8 	stmdb	sp!, {r3, r4, r5, r6, r7, r8, r9, lr}
 8007b18:	4606      	mov	r6, r0
 8007b1a:	4688      	mov	r8, r1
 8007b1c:	2700      	movs	r7, #0
 8007b1e:	f100 0448 	add.w	r4, r0, #72	; 0x48
 8007b22:	e9d4 9501 	ldrd	r9, r5, [r4, #4]
 8007b26:	f1b9 0901 	subs.w	r9, r9, #1
 8007b2a:	d505      	bpl.n	8007b38 <_fwalk_reent+0x24>
 8007b2c:	6824      	ldr	r4, [r4, #0]
 8007b2e:	2c00      	cmp	r4, #0
 8007b30:	d1f7      	bne.n	8007b22 <_fwalk_reent+0xe>
 8007b32:	4638      	mov	r0, r7
 8007b34:	e8bd 83f8 	ldmia.w	sp!, {r3, r4, r5, r6, r7, r8, r9, pc}
 8007b38:	89ab      	ldrh	r3, [r5, #12]
 8007b3a:	2b01      	cmp	r3, #1
 8007b3c:	d907      	bls.n	8007b4e <_fwalk_reent+0x3a>
 8007b3e:	f9b5 300e 	ldrsh.w	r3, [r5, #14]
 8007b42:	3301      	adds	r3, #1
 8007b44:	d003      	beq.n	8007b4e <_fwalk_reent+0x3a>
 8007b46:	4629      	mov	r1, r5
 8007b48:	4630      	mov	r0, r6
 8007b4a:	47c0      	blx	r8
 8007b4c:	4307      	orrs	r7, r0
 8007b4e:	3568      	adds	r5, #104	; 0x68
 8007b50:	e7e9      	b.n	8007b26 <_fwalk_reent+0x12>

08007b52 <rshift>:
 8007b52:	6903      	ldr	r3, [r0, #16]
 8007b54:	e92d 43f0 	stmdb	sp!, {r4, r5, r6, r7, r8, r9, lr}
 8007b58:	ebb3 1f61 	cmp.w	r3, r1, asr #5
 8007b5c:	f100 0414 	add.w	r4, r0, #20
 8007b60:	ea4f 1261 	mov.w	r2, r1, asr #5
 8007b64:	dd46      	ble.n	8007bf4 <rshift+0xa2>
 8007b66:	f011 011f 	ands.w	r1, r1, #31
 8007b6a:	eb04 0683 	add.w	r6, r4, r3, lsl #2
 8007b6e:	eb04 0582 	add.w	r5, r4, r2, lsl #2
 8007b72:	d10c      	bne.n	8007b8e <rshift+0x3c>
 8007b74:	4629      	mov	r1, r5
 8007b76:	f100 0710 	add.w	r7, r0, #16
 8007b7a:	42b1      	cmp	r1, r6
 8007b7c:	d335      	bcc.n	8007bea <rshift+0x98>
 8007b7e:	1a9b      	subs	r3, r3, r2
 8007b80:	009b      	lsls	r3, r3, #2
 8007b82:	1eea      	subs	r2, r5, #3
 8007b84:	4296      	cmp	r6, r2
 8007b86:	bf38      	it	cc
 8007b88:	2300      	movcc	r3, #0
 8007b8a:	4423      	add	r3, r4
 8007b8c:	e015      	b.n	8007bba <rshift+0x68>
 8007b8e:	46a1      	mov	r9, r4
 8007b90:	f854 7022 	ldr.w	r7, [r4, r2, lsl #2]
 8007b94:	f1c1 0820 	rsb	r8, r1, #32
 8007b98:	40cf      	lsrs	r7, r1
 8007b9a:	f105 0e04 	add.w	lr, r5, #4
 8007b9e:	4576      	cmp	r6, lr
 8007ba0:	46f4      	mov	ip, lr
 8007ba2:	d816      	bhi.n	8007bd2 <rshift+0x80>
 8007ba4:	1a9b      	subs	r3, r3, r2
 8007ba6:	009a      	lsls	r2, r3, #2
 8007ba8:	3a04      	subs	r2, #4
 8007baa:	3501      	adds	r5, #1
 8007bac:	42ae      	cmp	r6, r5
 8007bae:	bf38      	it	cc
 8007bb0:	2200      	movcc	r2, #0
 8007bb2:	18a3      	adds	r3, r4, r2
 8007bb4:	50a7      	str	r7, [r4, r2]
 8007bb6:	b107      	cbz	r7, 8007bba <rshift+0x68>
 8007bb8:	3304      	adds	r3, #4
 8007bba:	42a3      	cmp	r3, r4
 8007bbc:	eba3 0204 	sub.w	r2, r3, r4
 8007bc0:	bf08      	it	eq
 8007bc2:	2300      	moveq	r3, #0
 8007bc4:	ea4f 02a2 	mov.w	r2, r2, asr #2
 8007bc8:	6102      	str	r2, [r0, #16]
 8007bca:	bf08      	it	eq
 8007bcc:	6143      	streq	r3, [r0, #20]
 8007bce:	e8bd 83f0 	ldmia.w	sp!, {r4, r5, r6, r7, r8, r9, pc}
 8007bd2:	f8dc c000 	ldr.w	ip, [ip]
 8007bd6:	fa0c fc08 	lsl.w	ip, ip, r8
 8007bda:	ea4c 0707 	orr.w	r7, ip, r7
 8007bde:	f849 7b04 	str.w	r7, [r9], #4
 8007be2:	f85e 7b04 	ldr.w	r7, [lr], #4
 8007be6:	40cf      	lsrs	r7, r1
 8007be8:	e7d9      	b.n	8007b9e <rshift+0x4c>
 8007bea:	f851 cb04 	ldr.w	ip, [r1], #4
 8007bee:	f847 cf04 	str.w	ip, [r7, #4]!
 8007bf2:	e7c2      	b.n	8007b7a <rshift+0x28>
 8007bf4:	4623      	mov	r3, r4
 8007bf6:	e7e0      	b.n	8007bba <rshift+0x68>

08007bf8 <__hexdig_fun>:
 8007bf8:	f1a0 0330 	sub.w	r3, r0, #48	; 0x30
 8007bfc:	2b09      	cmp	r3, #9
 8007bfe:	d802      	bhi.n	8007c06 <__hexdig_fun+0xe>
 8007c00:	3820      	subs	r0, #32
 8007c02:	b2c0      	uxtb	r0, r0
 8007c04:	4770      	bx	lr
 8007c06:	f1a0 0361 	sub.w	r3, r0, #97	; 0x61
 8007c0a:	2b05      	cmp	r3, #5
 8007c0c:	d801      	bhi.n	8007c12 <__hexdig_fun+0x1a>
 8007c0e:	3847      	subs	r0, #71	; 0x47
 8007c10:	e7f7      	b.n	8007c02 <__hexdig_fun+0xa>
 8007c12:	f1a0 0341 	sub.w	r3, r0, #65	; 0x41
 8007c16:	2b05      	cmp	r3, #5
 8007c18:	d801      	bhi.n	8007c1e <__hexdig_fun+0x26>
 8007c1a:	3827      	subs	r0, #39	; 0x27
 8007c1c:	e7f1      	b.n	8007c02 <__hexdig_fun+0xa>
 8007c1e:	2000      	movs	r0, #0
 8007c20:	4770      	bx	lr
	...

08007c24 <__gethex>:
 8007c24:	e92d 4ff0 	stmdb	sp!, {r4, r5, r6, r7, r8, r9, sl, fp, lr}
 8007c28:	b08b      	sub	sp, #44	; 0x2c
 8007c2a:	9306      	str	r3, [sp, #24]
 8007c2c:	4bb9      	ldr	r3, [pc, #740]	; (8007f14 <__gethex+0x2f0>)
 8007c2e:	9002      	str	r0, [sp, #8]
 8007c30:	681b      	ldr	r3, [r3, #0]
 8007c32:	468b      	mov	fp, r1
 8007c34:	4618      	mov	r0, r3
 8007c36:	4690      	mov	r8, r2
 8007c38:	9303      	str	r3, [sp, #12]
 8007c3a:	f7f8 faf5 	bl	8000228 <strlen>
 8007c3e:	4682      	mov	sl, r0
 8007c40:	9b03      	ldr	r3, [sp, #12]
 8007c42:	f8db 2000 	ldr.w	r2, [fp]
 8007c46:	4403      	add	r3, r0
 8007c48:	f813 3c01 	ldrb.w	r3, [r3, #-1]
 8007c4c:	9307      	str	r3, [sp, #28]
 8007c4e:	1c93      	adds	r3, r2, #2
 8007c50:	f1c2 22ff 	rsb	r2, r2, #4278255360	; 0xff00ff00
 8007c54:	f502 027f 	add.w	r2, r2, #16711680	; 0xff0000
 8007c58:	32fe      	adds	r2, #254	; 0xfe
 8007c5a:	18d1      	adds	r1, r2, r3
 8007c5c:	461f      	mov	r7, r3
 8007c5e:	f813 0b01 	ldrb.w	r0, [r3], #1
 8007c62:	9101      	str	r1, [sp, #4]
 8007c64:	2830      	cmp	r0, #48	; 0x30
 8007c66:	d0f8      	beq.n	8007c5a <__gethex+0x36>
 8007c68:	f7ff ffc6 	bl	8007bf8 <__hexdig_fun>
 8007c6c:	4604      	mov	r4, r0
 8007c6e:	2800      	cmp	r0, #0
 8007c70:	d13a      	bne.n	8007ce8 <__gethex+0xc4>
 8007c72:	4652      	mov	r2, sl
 8007c74:	4638      	mov	r0, r7
 8007c76:	9903      	ldr	r1, [sp, #12]
 8007c78:	f001 fc5b 	bl	8009532 <strncmp>
 8007c7c:	4605      	mov	r5, r0
 8007c7e:	2800      	cmp	r0, #0
 8007c80:	d166      	bne.n	8007d50 <__gethex+0x12c>
 8007c82:	f817 000a 	ldrb.w	r0, [r7, sl]
 8007c86:	eb07 060a 	add.w	r6, r7, sl
 8007c8a:	f7ff ffb5 	bl	8007bf8 <__hexdig_fun>
 8007c8e:	2800      	cmp	r0, #0
 8007c90:	d060      	beq.n	8007d54 <__gethex+0x130>
 8007c92:	4633      	mov	r3, r6
 8007c94:	7818      	ldrb	r0, [r3, #0]
 8007c96:	461f      	mov	r7, r3
 8007c98:	2830      	cmp	r0, #48	; 0x30
 8007c9a:	f103 0301 	add.w	r3, r3, #1
 8007c9e:	d0f9      	beq.n	8007c94 <__gethex+0x70>
 8007ca0:	f7ff ffaa 	bl	8007bf8 <__hexdig_fun>
 8007ca4:	2301      	movs	r3, #1
 8007ca6:	fab0 f480 	clz	r4, r0
 8007caa:	4635      	mov	r5, r6
 8007cac:	0964      	lsrs	r4, r4, #5
 8007cae:	9301      	str	r3, [sp, #4]
 8007cb0:	463a      	mov	r2, r7
 8007cb2:	4616      	mov	r6, r2
 8007cb4:	7830      	ldrb	r0, [r6, #0]
 8007cb6:	3201      	adds	r2, #1
 8007cb8:	f7ff ff9e 	bl	8007bf8 <__hexdig_fun>
 8007cbc:	2800      	cmp	r0, #0
 8007cbe:	d1f8      	bne.n	8007cb2 <__gethex+0x8e>
 8007cc0:	4652      	mov	r2, sl
 8007cc2:	4630      	mov	r0, r6
 8007cc4:	9903      	ldr	r1, [sp, #12]
 8007cc6:	f001 fc34 	bl	8009532 <strncmp>
 8007cca:	b980      	cbnz	r0, 8007cee <__gethex+0xca>
 8007ccc:	b94d      	cbnz	r5, 8007ce2 <__gethex+0xbe>
 8007cce:	eb06 050a 	add.w	r5, r6, sl
 8007cd2:	462a      	mov	r2, r5
 8007cd4:	4616      	mov	r6, r2
 8007cd6:	7830      	ldrb	r0, [r6, #0]
 8007cd8:	3201      	adds	r2, #1
 8007cda:	f7ff ff8d 	bl	8007bf8 <__hexdig_fun>
 8007cde:	2800      	cmp	r0, #0
 8007ce0:	d1f8      	bne.n	8007cd4 <__gethex+0xb0>
 8007ce2:	1bad      	subs	r5, r5, r6
 8007ce4:	00ad      	lsls	r5, r5, #2
 8007ce6:	e004      	b.n	8007cf2 <__gethex+0xce>
 8007ce8:	2400      	movs	r4, #0
 8007cea:	4625      	mov	r5, r4
 8007cec:	e7e0      	b.n	8007cb0 <__gethex+0x8c>
 8007cee:	2d00      	cmp	r5, #0
 8007cf0:	d1f7      	bne.n	8007ce2 <__gethex+0xbe>
 8007cf2:	7833      	ldrb	r3, [r6, #0]
 8007cf4:	f003 03df 	and.w	r3, r3, #223	; 0xdf
 8007cf8:	2b50      	cmp	r3, #80	; 0x50
 8007cfa:	d139      	bne.n	8007d70 <__gethex+0x14c>
 8007cfc:	7873      	ldrb	r3, [r6, #1]
 8007cfe:	2b2b      	cmp	r3, #43	; 0x2b
 8007d00:	d02a      	beq.n	8007d58 <__gethex+0x134>
 8007d02:	2b2d      	cmp	r3, #45	; 0x2d
 8007d04:	d02c      	beq.n	8007d60 <__gethex+0x13c>
 8007d06:	f04f 0900 	mov.w	r9, #0
 8007d0a:	1c71      	adds	r1, r6, #1
 8007d0c:	7808      	ldrb	r0, [r1, #0]
 8007d0e:	f7ff ff73 	bl	8007bf8 <__hexdig_fun>
 8007d12:	1e43      	subs	r3, r0, #1
 8007d14:	b2db      	uxtb	r3, r3
 8007d16:	2b18      	cmp	r3, #24
 8007d18:	d82a      	bhi.n	8007d70 <__gethex+0x14c>
 8007d1a:	f1a0 0210 	sub.w	r2, r0, #16
 8007d1e:	f811 0f01 	ldrb.w	r0, [r1, #1]!
 8007d22:	f7ff ff69 	bl	8007bf8 <__hexdig_fun>
 8007d26:	1e43      	subs	r3, r0, #1
 8007d28:	b2db      	uxtb	r3, r3
 8007d2a:	2b18      	cmp	r3, #24
 8007d2c:	d91b      	bls.n	8007d66 <__gethex+0x142>
 8007d2e:	f1b9 0f00 	cmp.w	r9, #0
 8007d32:	d000      	beq.n	8007d36 <__gethex+0x112>
 8007d34:	4252      	negs	r2, r2
 8007d36:	4415      	add	r5, r2
 8007d38:	f8cb 1000 	str.w	r1, [fp]
 8007d3c:	b1d4      	cbz	r4, 8007d74 <__gethex+0x150>
 8007d3e:	9b01      	ldr	r3, [sp, #4]
 8007d40:	2b00      	cmp	r3, #0
 8007d42:	bf14      	ite	ne
 8007d44:	2700      	movne	r7, #0
 8007d46:	2706      	moveq	r7, #6
 8007d48:	4638      	mov	r0, r7
 8007d4a:	b00b      	add	sp, #44	; 0x2c
 8007d4c:	e8bd 8ff0 	ldmia.w	sp!, {r4, r5, r6, r7, r8, r9, sl, fp, pc}
 8007d50:	463e      	mov	r6, r7
 8007d52:	4625      	mov	r5, r4
 8007d54:	2401      	movs	r4, #1
 8007d56:	e7cc      	b.n	8007cf2 <__gethex+0xce>
 8007d58:	f04f 0900 	mov.w	r9, #0
 8007d5c:	1cb1      	adds	r1, r6, #2
 8007d5e:	e7d5      	b.n	8007d0c <__gethex+0xe8>
 8007d60:	f04f 0901 	mov.w	r9, #1
 8007d64:	e7fa      	b.n	8007d5c <__gethex+0x138>
 8007d66:	230a      	movs	r3, #10
 8007d68:	fb03 0202 	mla	r2, r3, r2, r0
 8007d6c:	3a10      	subs	r2, #16
 8007d6e:	e7d6      	b.n	8007d1e <__gethex+0xfa>
 8007d70:	4631      	mov	r1, r6
 8007d72:	e7e1      	b.n	8007d38 <__gethex+0x114>
 8007d74:	4621      	mov	r1, r4
 8007d76:	1bf3      	subs	r3, r6, r7
 8007d78:	3b01      	subs	r3, #1
 8007d7a:	2b07      	cmp	r3, #7
 8007d7c:	dc0a      	bgt.n	8007d94 <__gethex+0x170>
 8007d7e:	9802      	ldr	r0, [sp, #8]
 8007d80:	f000 fa7e 	bl	8008280 <_Balloc>
 8007d84:	4604      	mov	r4, r0
 8007d86:	b940      	cbnz	r0, 8007d9a <__gethex+0x176>
 8007d88:	4602      	mov	r2, r0
 8007d8a:	21de      	movs	r1, #222	; 0xde
 8007d8c:	4b62      	ldr	r3, [pc, #392]	; (8007f18 <__gethex+0x2f4>)
 8007d8e:	4863      	ldr	r0, [pc, #396]	; (8007f1c <__gethex+0x2f8>)
 8007d90:	f001 fcc2 	bl	8009718 <__assert_func>
 8007d94:	3101      	adds	r1, #1
 8007d96:	105b      	asrs	r3, r3, #1
 8007d98:	e7ef      	b.n	8007d7a <__gethex+0x156>
 8007d9a:	f04f 0b00 	mov.w	fp, #0
 8007d9e:	f100 0914 	add.w	r9, r0, #20
 8007da2:	f1ca 0301 	rsb	r3, sl, #1
 8007da6:	f8cd 9010 	str.w	r9, [sp, #16]
 8007daa:	f8cd b004 	str.w	fp, [sp, #4]
 8007dae:	9308      	str	r3, [sp, #32]
 8007db0:	42b7      	cmp	r7, r6
 8007db2:	d33f      	bcc.n	8007e34 <__gethex+0x210>
 8007db4:	9f04      	ldr	r7, [sp, #16]
 8007db6:	9b01      	ldr	r3, [sp, #4]
 8007db8:	f847 3b04 	str.w	r3, [r7], #4
 8007dbc:	eba7 0709 	sub.w	r7, r7, r9
 8007dc0:	10bf      	asrs	r7, r7, #2
 8007dc2:	6127      	str	r7, [r4, #16]
 8007dc4:	4618      	mov	r0, r3
 8007dc6:	f000 fb51 	bl	800846c <__hi0bits>
 8007dca:	017f      	lsls	r7, r7, #5
 8007dcc:	f8d8 6000 	ldr.w	r6, [r8]
 8007dd0:	1a3f      	subs	r7, r7, r0
 8007dd2:	42b7      	cmp	r7, r6
 8007dd4:	dd62      	ble.n	8007e9c <__gethex+0x278>
 8007dd6:	1bbf      	subs	r7, r7, r6
 8007dd8:	4639      	mov	r1, r7
 8007dda:	4620      	mov	r0, r4
 8007ddc:	f000 fee7 	bl	8008bae <__any_on>
 8007de0:	4682      	mov	sl, r0
 8007de2:	b1a8      	cbz	r0, 8007e10 <__gethex+0x1ec>
 8007de4:	f04f 0a01 	mov.w	sl, #1
 8007de8:	1e7b      	subs	r3, r7, #1
 8007dea:	1159      	asrs	r1, r3, #5
 8007dec:	f859 1021 	ldr.w	r1, [r9, r1, lsl #2]
 8007df0:	f003 021f 	and.w	r2, r3, #31
 8007df4:	fa0a f202 	lsl.w	r2, sl, r2
 8007df8:	420a      	tst	r2, r1
 8007dfa:	d009      	beq.n	8007e10 <__gethex+0x1ec>
 8007dfc:	4553      	cmp	r3, sl
 8007dfe:	dd05      	ble.n	8007e0c <__gethex+0x1e8>
 8007e00:	4620      	mov	r0, r4
 8007e02:	1eb9      	subs	r1, r7, #2
 8007e04:	f000 fed3 	bl	8008bae <__any_on>
 8007e08:	2800      	cmp	r0, #0
 8007e0a:	d144      	bne.n	8007e96 <__gethex+0x272>
 8007e0c:	f04f 0a02 	mov.w	sl, #2
 8007e10:	4639      	mov	r1, r7
 8007e12:	4620      	mov	r0, r4
 8007e14:	f7ff fe9d 	bl	8007b52 <rshift>
 8007e18:	443d      	add	r5, r7
 8007e1a:	f8d8 3008 	ldr.w	r3, [r8, #8]
 8007e1e:	42ab      	cmp	r3, r5
 8007e20:	da4a      	bge.n	8007eb8 <__gethex+0x294>
 8007e22:	4621      	mov	r1, r4
 8007e24:	9802      	ldr	r0, [sp, #8]
 8007e26:	f000 fa6b 	bl	8008300 <_Bfree>
 8007e2a:	2300      	movs	r3, #0
 8007e2c:	9a14      	ldr	r2, [sp, #80]	; 0x50
 8007e2e:	27a3      	movs	r7, #163	; 0xa3
 8007e30:	6013      	str	r3, [r2, #0]
 8007e32:	e789      	b.n	8007d48 <__gethex+0x124>
 8007e34:	1e73      	subs	r3, r6, #1
 8007e36:	9a07      	ldr	r2, [sp, #28]
 8007e38:	9305      	str	r3, [sp, #20]
 8007e3a:	f816 3c01 	ldrb.w	r3, [r6, #-1]
 8007e3e:	4293      	cmp	r3, r2
 8007e40:	d019      	beq.n	8007e76 <__gethex+0x252>
 8007e42:	f1bb 0f20 	cmp.w	fp, #32
 8007e46:	d107      	bne.n	8007e58 <__gethex+0x234>
 8007e48:	9b04      	ldr	r3, [sp, #16]
 8007e4a:	9a01      	ldr	r2, [sp, #4]
 8007e4c:	f843 2b04 	str.w	r2, [r3], #4
 8007e50:	9304      	str	r3, [sp, #16]
 8007e52:	2300      	movs	r3, #0
 8007e54:	469b      	mov	fp, r3
 8007e56:	9301      	str	r3, [sp, #4]
 8007e58:	f816 0c01 	ldrb.w	r0, [r6, #-1]
 8007e5c:	f7ff fecc 	bl	8007bf8 <__hexdig_fun>
 8007e60:	9b01      	ldr	r3, [sp, #4]
 8007e62:	f000 000f 	and.w	r0, r0, #15
 8007e66:	fa00 f00b 	lsl.w	r0, r0, fp
 8007e6a:	4303      	orrs	r3, r0
 8007e6c:	9301      	str	r3, [sp, #4]
 8007e6e:	f10b 0b04 	add.w	fp, fp, #4
 8007e72:	9b05      	ldr	r3, [sp, #20]
 8007e74:	e00d      	b.n	8007e92 <__gethex+0x26e>
 8007e76:	9b05      	ldr	r3, [sp, #20]
 8007e78:	9a08      	ldr	r2, [sp, #32]
 8007e7a:	4413      	add	r3, r2
 8007e7c:	42bb      	cmp	r3, r7
 8007e7e:	d3e0      	bcc.n	8007e42 <__gethex+0x21e>
 8007e80:	4618      	mov	r0, r3
 8007e82:	4652      	mov	r2, sl
 8007e84:	9903      	ldr	r1, [sp, #12]
 8007e86:	9309      	str	r3, [sp, #36]	; 0x24
 8007e88:	f001 fb53 	bl	8009532 <strncmp>
 8007e8c:	9b09      	ldr	r3, [sp, #36]	; 0x24
 8007e8e:	2800      	cmp	r0, #0
 8007e90:	d1d7      	bne.n	8007e42 <__gethex+0x21e>
 8007e92:	461e      	mov	r6, r3
 8007e94:	e78c      	b.n	8007db0 <__gethex+0x18c>
 8007e96:	f04f 0a03 	mov.w	sl, #3
 8007e9a:	e7b9      	b.n	8007e10 <__gethex+0x1ec>
 8007e9c:	da09      	bge.n	8007eb2 <__gethex+0x28e>
 8007e9e:	1bf7      	subs	r7, r6, r7
 8007ea0:	4621      	mov	r1, r4
 8007ea2:	463a      	mov	r2, r7
 8007ea4:	9802      	ldr	r0, [sp, #8]
 8007ea6:	f000 fc43 	bl	8008730 <__lshift>
 8007eaa:	4604      	mov	r4, r0
 8007eac:	1bed      	subs	r5, r5, r7
 8007eae:	f100 0914 	add.w	r9, r0, #20
 8007eb2:	f04f 0a00 	mov.w	sl, #0
 8007eb6:	e7b0      	b.n	8007e1a <__gethex+0x1f6>
 8007eb8:	f8d8 0004 	ldr.w	r0, [r8, #4]
 8007ebc:	42a8      	cmp	r0, r5
 8007ebe:	dd71      	ble.n	8007fa4 <__gethex+0x380>
 8007ec0:	1b45      	subs	r5, r0, r5
 8007ec2:	42ae      	cmp	r6, r5
 8007ec4:	dc34      	bgt.n	8007f30 <__gethex+0x30c>
 8007ec6:	f8d8 300c 	ldr.w	r3, [r8, #12]
 8007eca:	2b02      	cmp	r3, #2
 8007ecc:	d028      	beq.n	8007f20 <__gethex+0x2fc>
 8007ece:	2b03      	cmp	r3, #3
 8007ed0:	d02a      	beq.n	8007f28 <__gethex+0x304>
 8007ed2:	2b01      	cmp	r3, #1
 8007ed4:	d115      	bne.n	8007f02 <__gethex+0x2de>
 8007ed6:	42ae      	cmp	r6, r5
 8007ed8:	d113      	bne.n	8007f02 <__gethex+0x2de>
 8007eda:	2e01      	cmp	r6, #1
 8007edc:	d10b      	bne.n	8007ef6 <__gethex+0x2d2>
 8007ede:	f8d8 3004 	ldr.w	r3, [r8, #4]
 8007ee2:	9a06      	ldr	r2, [sp, #24]
 8007ee4:	2762      	movs	r7, #98	; 0x62
 8007ee6:	6013      	str	r3, [r2, #0]
 8007ee8:	2301      	movs	r3, #1
 8007eea:	6123      	str	r3, [r4, #16]
 8007eec:	f8c9 3000 	str.w	r3, [r9]
 8007ef0:	9b14      	ldr	r3, [sp, #80]	; 0x50
 8007ef2:	601c      	str	r4, [r3, #0]
 8007ef4:	e728      	b.n	8007d48 <__gethex+0x124>
 8007ef6:	4620      	mov	r0, r4
 8007ef8:	1e71      	subs	r1, r6, #1
 8007efa:	f000 fe58 	bl	8008bae <__any_on>
 8007efe:	2800      	cmp	r0, #0
 8007f00:	d1ed      	bne.n	8007ede <__gethex+0x2ba>
 8007f02:	4621      	mov	r1, r4
 8007f04:	9802      	ldr	r0, [sp, #8]
 8007f06:	f000 f9fb 	bl	8008300 <_Bfree>
 8007f0a:	2300      	movs	r3, #0
 8007f0c:	9a14      	ldr	r2, [sp, #80]	; 0x50
 8007f0e:	2750      	movs	r7, #80	; 0x50
 8007f10:	6013      	str	r3, [r2, #0]
 8007f12:	e719      	b.n	8007d48 <__gethex+0x124>
 8007f14:	0800a088 	.word	0x0800a088
 8007f18:	0800a00c 	.word	0x0800a00c
 8007f1c:	0800a01d 	.word	0x0800a01d
 8007f20:	9b15      	ldr	r3, [sp, #84]	; 0x54
 8007f22:	2b00      	cmp	r3, #0
 8007f24:	d1ed      	bne.n	8007f02 <__gethex+0x2de>
 8007f26:	e7da      	b.n	8007ede <__gethex+0x2ba>
 8007f28:	9b15      	ldr	r3, [sp, #84]	; 0x54
 8007f2a:	2b00      	cmp	r3, #0
 8007f2c:	d1d7      	bne.n	8007ede <__gethex+0x2ba>
 8007f2e:	e7e8      	b.n	8007f02 <__gethex+0x2de>
 8007f30:	1e6f      	subs	r7, r5, #1
 8007f32:	f1ba 0f00 	cmp.w	sl, #0
 8007f36:	d132      	bne.n	8007f9e <__gethex+0x37a>
 8007f38:	b127      	cbz	r7, 8007f44 <__gethex+0x320>
 8007f3a:	4639      	mov	r1, r7
 8007f3c:	4620      	mov	r0, r4
 8007f3e:	f000 fe36 	bl	8008bae <__any_on>
 8007f42:	4682      	mov	sl, r0
 8007f44:	2101      	movs	r1, #1
 8007f46:	117b      	asrs	r3, r7, #5
 8007f48:	f859 3023 	ldr.w	r3, [r9, r3, lsl #2]
 8007f4c:	f007 071f 	and.w	r7, r7, #31
 8007f50:	fa01 f707 	lsl.w	r7, r1, r7
 8007f54:	421f      	tst	r7, r3
 8007f56:	f04f 0702 	mov.w	r7, #2
 8007f5a:	4629      	mov	r1, r5
 8007f5c:	4620      	mov	r0, r4
 8007f5e:	bf18      	it	ne
 8007f60:	f04a 0a02 	orrne.w	sl, sl, #2
 8007f64:	1b76      	subs	r6, r6, r5
 8007f66:	f7ff fdf4 	bl	8007b52 <rshift>
 8007f6a:	f8d8 5004 	ldr.w	r5, [r8, #4]
 8007f6e:	f1ba 0f00 	cmp.w	sl, #0
 8007f72:	d048      	beq.n	8008006 <__gethex+0x3e2>
 8007f74:	f8d8 300c 	ldr.w	r3, [r8, #12]
 8007f78:	2b02      	cmp	r3, #2
 8007f7a:	d015      	beq.n	8007fa8 <__gethex+0x384>
 8007f7c:	2b03      	cmp	r3, #3
 8007f7e:	d017      	beq.n	8007fb0 <__gethex+0x38c>
 8007f80:	2b01      	cmp	r3, #1
 8007f82:	d109      	bne.n	8007f98 <__gethex+0x374>
 8007f84:	f01a 0f02 	tst.w	sl, #2
 8007f88:	d006      	beq.n	8007f98 <__gethex+0x374>
 8007f8a:	f8d9 0000 	ldr.w	r0, [r9]
 8007f8e:	ea4a 0a00 	orr.w	sl, sl, r0
 8007f92:	f01a 0f01 	tst.w	sl, #1
 8007f96:	d10e      	bne.n	8007fb6 <__gethex+0x392>
 8007f98:	f047 0710 	orr.w	r7, r7, #16
 8007f9c:	e033      	b.n	8008006 <__gethex+0x3e2>
 8007f9e:	f04f 0a01 	mov.w	sl, #1
 8007fa2:	e7cf      	b.n	8007f44 <__gethex+0x320>
 8007fa4:	2701      	movs	r7, #1
 8007fa6:	e7e2      	b.n	8007f6e <__gethex+0x34a>
 8007fa8:	9b15      	ldr	r3, [sp, #84]	; 0x54
 8007faa:	f1c3 0301 	rsb	r3, r3, #1
 8007fae:	9315      	str	r3, [sp, #84]	; 0x54
 8007fb0:	9b15      	ldr	r3, [sp, #84]	; 0x54
 8007fb2:	2b00      	cmp	r3, #0
 8007fb4:	d0f0      	beq.n	8007f98 <__gethex+0x374>
 8007fb6:	f04f 0c00 	mov.w	ip, #0
 8007fba:	f8d4 b010 	ldr.w	fp, [r4, #16]
 8007fbe:	f104 0314 	add.w	r3, r4, #20
 8007fc2:	ea4f 0a8b 	mov.w	sl, fp, lsl #2
 8007fc6:	eb03 018b 	add.w	r1, r3, fp, lsl #2
 8007fca:	4618      	mov	r0, r3
 8007fcc:	f853 2b04 	ldr.w	r2, [r3], #4
 8007fd0:	f1b2 3fff 	cmp.w	r2, #4294967295
 8007fd4:	d01c      	beq.n	8008010 <__gethex+0x3ec>
 8007fd6:	3201      	adds	r2, #1
 8007fd8:	6002      	str	r2, [r0, #0]
 8007fda:	2f02      	cmp	r7, #2
 8007fdc:	f104 0314 	add.w	r3, r4, #20
 8007fe0:	d13d      	bne.n	800805e <__gethex+0x43a>
 8007fe2:	f8d8 2000 	ldr.w	r2, [r8]
 8007fe6:	3a01      	subs	r2, #1
 8007fe8:	42b2      	cmp	r2, r6
 8007fea:	d10a      	bne.n	8008002 <__gethex+0x3de>
 8007fec:	2201      	movs	r2, #1
 8007fee:	1171      	asrs	r1, r6, #5
 8007ff0:	f853 3021 	ldr.w	r3, [r3, r1, lsl #2]
 8007ff4:	f006 061f 	and.w	r6, r6, #31
 8007ff8:	fa02 f606 	lsl.w	r6, r2, r6
 8007ffc:	421e      	tst	r6, r3
 8007ffe:	bf18      	it	ne
 8008000:	4617      	movne	r7, r2
 8008002:	f047 0720 	orr.w	r7, r7, #32
 8008006:	9b14      	ldr	r3, [sp, #80]	; 0x50
 8008008:	601c      	str	r4, [r3, #0]
 800800a:	9b06      	ldr	r3, [sp, #24]
 800800c:	601d      	str	r5, [r3, #0]
 800800e:	e69b      	b.n	8007d48 <__gethex+0x124>
 8008010:	4299      	cmp	r1, r3
 8008012:	f843 cc04 	str.w	ip, [r3, #-4]
 8008016:	d8d8      	bhi.n	8007fca <__gethex+0x3a6>
 8008018:	68a3      	ldr	r3, [r4, #8]
 800801a:	459b      	cmp	fp, r3
 800801c:	db17      	blt.n	800804e <__gethex+0x42a>
 800801e:	6861      	ldr	r1, [r4, #4]
 8008020:	9802      	ldr	r0, [sp, #8]
 8008022:	3101      	adds	r1, #1
 8008024:	f000 f92c 	bl	8008280 <_Balloc>
 8008028:	4681      	mov	r9, r0
 800802a:	b918      	cbnz	r0, 8008034 <__gethex+0x410>
 800802c:	4602      	mov	r2, r0
 800802e:	2184      	movs	r1, #132	; 0x84
 8008030:	4b19      	ldr	r3, [pc, #100]	; (8008098 <__gethex+0x474>)
 8008032:	e6ac      	b.n	8007d8e <__gethex+0x16a>
 8008034:	6922      	ldr	r2, [r4, #16]
 8008036:	f104 010c 	add.w	r1, r4, #12
 800803a:	3202      	adds	r2, #2
 800803c:	0092      	lsls	r2, r2, #2
 800803e:	300c      	adds	r0, #12
 8008040:	f000 f903 	bl	800824a <memcpy>
 8008044:	4621      	mov	r1, r4
 8008046:	9802      	ldr	r0, [sp, #8]
 8008048:	f000 f95a 	bl	8008300 <_Bfree>
 800804c:	464c      	mov	r4, r9
 800804e:	6923      	ldr	r3, [r4, #16]
 8008050:	1c5a      	adds	r2, r3, #1
 8008052:	6122      	str	r2, [r4, #16]
 8008054:	2201      	movs	r2, #1
 8008056:	eb04 0383 	add.w	r3, r4, r3, lsl #2
 800805a:	615a      	str	r2, [r3, #20]
 800805c:	e7bd      	b.n	8007fda <__gethex+0x3b6>
 800805e:	6922      	ldr	r2, [r4, #16]
 8008060:	455a      	cmp	r2, fp
 8008062:	dd0b      	ble.n	800807c <__gethex+0x458>
 8008064:	2101      	movs	r1, #1
 8008066:	4620      	mov	r0, r4
 8008068:	f7ff fd73 	bl	8007b52 <rshift>
 800806c:	f8d8 3008 	ldr.w	r3, [r8, #8]
 8008070:	3501      	adds	r5, #1
 8008072:	42ab      	cmp	r3, r5
 8008074:	f6ff aed5 	blt.w	8007e22 <__gethex+0x1fe>
 8008078:	2701      	movs	r7, #1
 800807a:	e7c2      	b.n	8008002 <__gethex+0x3de>
 800807c:	f016 061f 	ands.w	r6, r6, #31
 8008080:	d0fa      	beq.n	8008078 <__gethex+0x454>
 8008082:	449a      	add	sl, r3
 8008084:	f85a 0c04 	ldr.w	r0, [sl, #-4]
 8008088:	f000 f9f0 	bl	800846c <__hi0bits>
 800808c:	f1c6 0620 	rsb	r6, r6, #32
 8008090:	42b0      	cmp	r0, r6
 8008092:	dbe7      	blt.n	8008064 <__gethex+0x440>
 8008094:	e7f0      	b.n	8008078 <__gethex+0x454>
 8008096:	bf00      	nop
 8008098:	0800a00c 	.word	0x0800a00c

0800809c <L_shift>:
 800809c:	f1c2 0208 	rsb	r2, r2, #8
 80080a0:	0092      	lsls	r2, r2, #2
 80080a2:	b570      	push	{r4, r5, r6, lr}
 80080a4:	f1c2 0620 	rsb	r6, r2, #32
 80080a8:	6843      	ldr	r3, [r0, #4]
 80080aa:	6804      	ldr	r4, [r0, #0]
 80080ac:	fa03 f506 	lsl.w	r5, r3, r6
 80080b0:	432c      	orrs	r4, r5
 80080b2:	40d3      	lsrs	r3, r2
 80080b4:	6004      	str	r4, [r0, #0]
 80080b6:	f840 3f04 	str.w	r3, [r0, #4]!
 80080ba:	4288      	cmp	r0, r1
 80080bc:	d3f4      	bcc.n	80080a8 <L_shift+0xc>
 80080be:	bd70      	pop	{r4, r5, r6, pc}

080080c0 <__match>:
 80080c0:	b530      	push	{r4, r5, lr}
 80080c2:	6803      	ldr	r3, [r0, #0]
 80080c4:	3301      	adds	r3, #1
 80080c6:	f811 4b01 	ldrb.w	r4, [r1], #1
 80080ca:	b914      	cbnz	r4, 80080d2 <__match+0x12>
 80080cc:	6003      	str	r3, [r0, #0]
 80080ce:	2001      	movs	r0, #1
 80080d0:	bd30      	pop	{r4, r5, pc}
 80080d2:	f813 2b01 	ldrb.w	r2, [r3], #1
 80080d6:	f1a2 0541 	sub.w	r5, r2, #65	; 0x41
 80080da:	2d19      	cmp	r5, #25
 80080dc:	bf98      	it	ls
 80080de:	3220      	addls	r2, #32
 80080e0:	42a2      	cmp	r2, r4
 80080e2:	d0f0      	beq.n	80080c6 <__match+0x6>
 80080e4:	2000      	movs	r0, #0
 80080e6:	e7f3      	b.n	80080d0 <__match+0x10>

080080e8 <__hexnan>:
 80080e8:	e92d 4ff0 	stmdb	sp!, {r4, r5, r6, r7, r8, r9, sl, fp, lr}
 80080ec:	2500      	movs	r5, #0
 80080ee:	680b      	ldr	r3, [r1, #0]
 80080f0:	4682      	mov	sl, r0
 80080f2:	115e      	asrs	r6, r3, #5
 80080f4:	eb02 0686 	add.w	r6, r2, r6, lsl #2
 80080f8:	f013 031f 	ands.w	r3, r3, #31
 80080fc:	bf18      	it	ne
 80080fe:	3604      	addne	r6, #4
 8008100:	1f37      	subs	r7, r6, #4
 8008102:	4690      	mov	r8, r2
 8008104:	46b9      	mov	r9, r7
 8008106:	463c      	mov	r4, r7
 8008108:	46ab      	mov	fp, r5
 800810a:	b087      	sub	sp, #28
 800810c:	6801      	ldr	r1, [r0, #0]
 800810e:	9301      	str	r3, [sp, #4]
 8008110:	f846 5c04 	str.w	r5, [r6, #-4]
 8008114:	9502      	str	r5, [sp, #8]
 8008116:	784a      	ldrb	r2, [r1, #1]
 8008118:	1c4b      	adds	r3, r1, #1
 800811a:	9303      	str	r3, [sp, #12]
 800811c:	b342      	cbz	r2, 8008170 <__hexnan+0x88>
 800811e:	4610      	mov	r0, r2
 8008120:	9105      	str	r1, [sp, #20]
 8008122:	9204      	str	r2, [sp, #16]
 8008124:	f7ff fd68 	bl	8007bf8 <__hexdig_fun>
 8008128:	2800      	cmp	r0, #0
 800812a:	d14f      	bne.n	80081cc <__hexnan+0xe4>
 800812c:	9a04      	ldr	r2, [sp, #16]
 800812e:	9905      	ldr	r1, [sp, #20]
 8008130:	2a20      	cmp	r2, #32
 8008132:	d818      	bhi.n	8008166 <__hexnan+0x7e>
 8008134:	9b02      	ldr	r3, [sp, #8]
 8008136:	459b      	cmp	fp, r3
 8008138:	dd13      	ble.n	8008162 <__hexnan+0x7a>
 800813a:	454c      	cmp	r4, r9
 800813c:	d206      	bcs.n	800814c <__hexnan+0x64>
 800813e:	2d07      	cmp	r5, #7
 8008140:	dc04      	bgt.n	800814c <__hexnan+0x64>
 8008142:	462a      	mov	r2, r5
 8008144:	4649      	mov	r1, r9
 8008146:	4620      	mov	r0, r4
 8008148:	f7ff ffa8 	bl	800809c <L_shift>
 800814c:	4544      	cmp	r4, r8
 800814e:	d950      	bls.n	80081f2 <__hexnan+0x10a>
 8008150:	2300      	movs	r3, #0
 8008152:	f1a4 0904 	sub.w	r9, r4, #4
 8008156:	f844 3c04 	str.w	r3, [r4, #-4]
 800815a:	461d      	mov	r5, r3
 800815c:	464c      	mov	r4, r9
 800815e:	f8cd b008 	str.w	fp, [sp, #8]
 8008162:	9903      	ldr	r1, [sp, #12]
 8008164:	e7d7      	b.n	8008116 <__hexnan+0x2e>
 8008166:	2a29      	cmp	r2, #41	; 0x29
 8008168:	d156      	bne.n	8008218 <__hexnan+0x130>
 800816a:	3102      	adds	r1, #2
 800816c:	f8ca 1000 	str.w	r1, [sl]
 8008170:	f1bb 0f00 	cmp.w	fp, #0
 8008174:	d050      	beq.n	8008218 <__hexnan+0x130>
 8008176:	454c      	cmp	r4, r9
 8008178:	d206      	bcs.n	8008188 <__hexnan+0xa0>
 800817a:	2d07      	cmp	r5, #7
 800817c:	dc04      	bgt.n	8008188 <__hexnan+0xa0>
 800817e:	462a      	mov	r2, r5
 8008180:	4649      	mov	r1, r9
 8008182:	4620      	mov	r0, r4
 8008184:	f7ff ff8a 	bl	800809c <L_shift>
 8008188:	4544      	cmp	r4, r8
 800818a:	d934      	bls.n	80081f6 <__hexnan+0x10e>
 800818c:	4623      	mov	r3, r4
 800818e:	f1a8 0204 	sub.w	r2, r8, #4
 8008192:	f853 1b04 	ldr.w	r1, [r3], #4
 8008196:	429f      	cmp	r7, r3
 8008198:	f842 1f04 	str.w	r1, [r2, #4]!
 800819c:	d2f9      	bcs.n	8008192 <__hexnan+0xaa>
 800819e:	1b3b      	subs	r3, r7, r4
 80081a0:	f023 0303 	bic.w	r3, r3, #3
 80081a4:	3304      	adds	r3, #4
 80081a6:	3401      	adds	r4, #1
 80081a8:	3e03      	subs	r6, #3
 80081aa:	42b4      	cmp	r4, r6
 80081ac:	bf88      	it	hi
 80081ae:	2304      	movhi	r3, #4
 80081b0:	2200      	movs	r2, #0
 80081b2:	4443      	add	r3, r8
 80081b4:	f843 2b04 	str.w	r2, [r3], #4
 80081b8:	429f      	cmp	r7, r3
 80081ba:	d2fb      	bcs.n	80081b4 <__hexnan+0xcc>
 80081bc:	683b      	ldr	r3, [r7, #0]
 80081be:	b91b      	cbnz	r3, 80081c8 <__hexnan+0xe0>
 80081c0:	4547      	cmp	r7, r8
 80081c2:	d127      	bne.n	8008214 <__hexnan+0x12c>
 80081c4:	2301      	movs	r3, #1
 80081c6:	603b      	str	r3, [r7, #0]
 80081c8:	2005      	movs	r0, #5
 80081ca:	e026      	b.n	800821a <__hexnan+0x132>
 80081cc:	3501      	adds	r5, #1
 80081ce:	2d08      	cmp	r5, #8
 80081d0:	f10b 0b01 	add.w	fp, fp, #1
 80081d4:	dd06      	ble.n	80081e4 <__hexnan+0xfc>
 80081d6:	4544      	cmp	r4, r8
 80081d8:	d9c3      	bls.n	8008162 <__hexnan+0x7a>
 80081da:	2300      	movs	r3, #0
 80081dc:	2501      	movs	r5, #1
 80081de:	f844 3c04 	str.w	r3, [r4, #-4]
 80081e2:	3c04      	subs	r4, #4
 80081e4:	6822      	ldr	r2, [r4, #0]
 80081e6:	f000 000f 	and.w	r0, r0, #15
 80081ea:	ea40 1202 	orr.w	r2, r0, r2, lsl #4
 80081ee:	6022      	str	r2, [r4, #0]
 80081f0:	e7b7      	b.n	8008162 <__hexnan+0x7a>
 80081f2:	2508      	movs	r5, #8
 80081f4:	e7b5      	b.n	8008162 <__hexnan+0x7a>
 80081f6:	9b01      	ldr	r3, [sp, #4]
 80081f8:	2b00      	cmp	r3, #0
 80081fa:	d0df      	beq.n	80081bc <__hexnan+0xd4>
 80081fc:	f04f 32ff 	mov.w	r2, #4294967295
 8008200:	f1c3 0320 	rsb	r3, r3, #32
 8008204:	fa22 f303 	lsr.w	r3, r2, r3
 8008208:	f856 2c04 	ldr.w	r2, [r6, #-4]
 800820c:	401a      	ands	r2, r3
 800820e:	f846 2c04 	str.w	r2, [r6, #-4]
 8008212:	e7d3      	b.n	80081bc <__hexnan+0xd4>
 8008214:	3f04      	subs	r7, #4
 8008216:	e7d1      	b.n	80081bc <__hexnan+0xd4>
 8008218:	2004      	movs	r0, #4
 800821a:	b007      	add	sp, #28
 800821c:	e8bd 8ff0 	ldmia.w	sp!, {r4, r5, r6, r7, r8, r9, sl, fp, pc}

08008220 <__retarget_lock_init_recursive>:
 8008220:	4770      	bx	lr

08008222 <__retarget_lock_acquire_recursive>:
 8008222:	4770      	bx	lr

08008224 <__retarget_lock_release_recursive>:
 8008224:	4770      	bx	lr

08008226 <__ascii_mbtowc>:
 8008226:	b082      	sub	sp, #8
 8008228:	b901      	cbnz	r1, 800822c <__ascii_mbtowc+0x6>
 800822a:	a901      	add	r1, sp, #4
 800822c:	b142      	cbz	r2, 8008240 <__ascii_mbtowc+0x1a>
 800822e:	b14b      	cbz	r3, 8008244 <__ascii_mbtowc+0x1e>
 8008230:	7813      	ldrb	r3, [r2, #0]
 8008232:	600b      	str	r3, [r1, #0]
 8008234:	7812      	ldrb	r2, [r2, #0]
 8008236:	1e10      	subs	r0, r2, #0
 8008238:	bf18      	it	ne
 800823a:	2001      	movne	r0, #1
 800823c:	b002      	add	sp, #8
 800823e:	4770      	bx	lr
 8008240:	4610      	mov	r0, r2
 8008242:	e7fb      	b.n	800823c <__ascii_mbtowc+0x16>
 8008244:	f06f 0001 	mvn.w	r0, #1
 8008248:	e7f8      	b.n	800823c <__ascii_mbtowc+0x16>

0800824a <memcpy>:
 800824a:	440a      	add	r2, r1
 800824c:	4291      	cmp	r1, r2
 800824e:	f100 33ff 	add.w	r3, r0, #4294967295
 8008252:	d100      	bne.n	8008256 <memcpy+0xc>
 8008254:	4770      	bx	lr
 8008256:	b510      	push	{r4, lr}
 8008258:	f811 4b01 	ldrb.w	r4, [r1], #1
 800825c:	4291      	cmp	r1, r2
 800825e:	f803 4f01 	strb.w	r4, [r3, #1]!
 8008262:	d1f9      	bne.n	8008258 <memcpy+0xe>
 8008264:	bd10      	pop	{r4, pc}
	...

08008268 <__malloc_lock>:
 8008268:	4801      	ldr	r0, [pc, #4]	; (8008270 <__malloc_lock+0x8>)
 800826a:	f7ff bfda 	b.w	8008222 <__retarget_lock_acquire_recursive>
 800826e:	bf00      	nop
 8008270:	20000bc4 	.word	0x20000bc4

08008274 <__malloc_unlock>:
 8008274:	4801      	ldr	r0, [pc, #4]	; (800827c <__malloc_unlock+0x8>)
 8008276:	f7ff bfd5 	b.w	8008224 <__retarget_lock_release_recursive>
 800827a:	bf00      	nop
 800827c:	20000bc4 	.word	0x20000bc4

08008280 <_Balloc>:
 8008280:	b570      	push	{r4, r5, r6, lr}
 8008282:	6a46      	ldr	r6, [r0, #36]	; 0x24
 8008284:	4604      	mov	r4, r0
 8008286:	460d      	mov	r5, r1
 8008288:	b976      	cbnz	r6, 80082a8 <_Balloc+0x28>
 800828a:	2010      	movs	r0, #16
 800828c:	f7fe fba6 	bl	80069dc <malloc>
 8008290:	4602      	mov	r2, r0
 8008292:	6260      	str	r0, [r4, #36]	; 0x24
 8008294:	b920      	cbnz	r0, 80082a0 <_Balloc+0x20>
 8008296:	2166      	movs	r1, #102	; 0x66
 8008298:	4b17      	ldr	r3, [pc, #92]	; (80082f8 <_Balloc+0x78>)
 800829a:	4818      	ldr	r0, [pc, #96]	; (80082fc <_Balloc+0x7c>)
 800829c:	f001 fa3c 	bl	8009718 <__assert_func>
 80082a0:	e9c0 6601 	strd	r6, r6, [r0, #4]
 80082a4:	6006      	str	r6, [r0, #0]
 80082a6:	60c6      	str	r6, [r0, #12]
 80082a8:	6a66      	ldr	r6, [r4, #36]	; 0x24
 80082aa:	68f3      	ldr	r3, [r6, #12]
 80082ac:	b183      	cbz	r3, 80082d0 <_Balloc+0x50>
 80082ae:	6a63      	ldr	r3, [r4, #36]	; 0x24
 80082b0:	68db      	ldr	r3, [r3, #12]
 80082b2:	f853 0025 	ldr.w	r0, [r3, r5, lsl #2]
 80082b6:	b9b8      	cbnz	r0, 80082e8 <_Balloc+0x68>
 80082b8:	2101      	movs	r1, #1
 80082ba:	fa01 f605 	lsl.w	r6, r1, r5
 80082be:	1d72      	adds	r2, r6, #5
 80082c0:	4620      	mov	r0, r4
 80082c2:	0092      	lsls	r2, r2, #2
 80082c4:	f000 fc94 	bl	8008bf0 <_calloc_r>
 80082c8:	b160      	cbz	r0, 80082e4 <_Balloc+0x64>
 80082ca:	e9c0 5601 	strd	r5, r6, [r0, #4]
 80082ce:	e00e      	b.n	80082ee <_Balloc+0x6e>
 80082d0:	2221      	movs	r2, #33	; 0x21
 80082d2:	2104      	movs	r1, #4
 80082d4:	4620      	mov	r0, r4
 80082d6:	f000 fc8b 	bl	8008bf0 <_calloc_r>
 80082da:	6a63      	ldr	r3, [r4, #36]	; 0x24
 80082dc:	60f0      	str	r0, [r6, #12]
 80082de:	68db      	ldr	r3, [r3, #12]
 80082e0:	2b00      	cmp	r3, #0
 80082e2:	d1e4      	bne.n	80082ae <_Balloc+0x2e>
 80082e4:	2000      	movs	r0, #0
 80082e6:	bd70      	pop	{r4, r5, r6, pc}
 80082e8:	6802      	ldr	r2, [r0, #0]
 80082ea:	f843 2025 	str.w	r2, [r3, r5, lsl #2]
 80082ee:	2300      	movs	r3, #0
 80082f0:	e9c0 3303 	strd	r3, r3, [r0, #12]
 80082f4:	e7f7      	b.n	80082e6 <_Balloc+0x66>
 80082f6:	bf00      	nop
 80082f8:	0800a09c 	.word	0x0800a09c
 80082fc:	0800a0b3 	.word	0x0800a0b3

08008300 <_Bfree>:
 8008300:	b570      	push	{r4, r5, r6, lr}
 8008302:	6a46      	ldr	r6, [r0, #36]	; 0x24
 8008304:	4605      	mov	r5, r0
 8008306:	460c      	mov	r4, r1
 8008308:	b976      	cbnz	r6, 8008328 <_Bfree+0x28>
 800830a:	2010      	movs	r0, #16
 800830c:	f7fe fb66 	bl	80069dc <malloc>
 8008310:	4602      	mov	r2, r0
 8008312:	6268      	str	r0, [r5, #36]	; 0x24
 8008314:	b920      	cbnz	r0, 8008320 <_Bfree+0x20>
 8008316:	218a      	movs	r1, #138	; 0x8a
 8008318:	4b08      	ldr	r3, [pc, #32]	; (800833c <_Bfree+0x3c>)
 800831a:	4809      	ldr	r0, [pc, #36]	; (8008340 <_Bfree+0x40>)
 800831c:	f001 f9fc 	bl	8009718 <__assert_func>
 8008320:	e9c0 6601 	strd	r6, r6, [r0, #4]
 8008324:	6006      	str	r6, [r0, #0]
 8008326:	60c6      	str	r6, [r0, #12]
 8008328:	b13c      	cbz	r4, 800833a <_Bfree+0x3a>
 800832a:	6a6b      	ldr	r3, [r5, #36]	; 0x24
 800832c:	6862      	ldr	r2, [r4, #4]
 800832e:	68db      	ldr	r3, [r3, #12]
 8008330:	f853 1022 	ldr.w	r1, [r3, r2, lsl #2]
 8008334:	6021      	str	r1, [r4, #0]
 8008336:	f843 4022 	str.w	r4, [r3, r2, lsl #2]
 800833a:	bd70      	pop	{r4, r5, r6, pc}
 800833c:	0800a09c 	.word	0x0800a09c
 8008340:	0800a0b3 	.word	0x0800a0b3

08008344 <__multadd>:
 8008344:	e92d 41f0 	stmdb	sp!, {r4, r5, r6, r7, r8, lr}
 8008348:	4698      	mov	r8, r3
 800834a:	460c      	mov	r4, r1
 800834c:	2300      	movs	r3, #0
 800834e:	690e      	ldr	r6, [r1, #16]
 8008350:	4607      	mov	r7, r0
 8008352:	f101 0014 	add.w	r0, r1, #20
 8008356:	6805      	ldr	r5, [r0, #0]
 8008358:	3301      	adds	r3, #1
 800835a:	b2a9      	uxth	r1, r5
 800835c:	fb02 8101 	mla	r1, r2, r1, r8
 8008360:	0c2d      	lsrs	r5, r5, #16
 8008362:	ea4f 4c11 	mov.w	ip, r1, lsr #16
 8008366:	fb02 c505 	mla	r5, r2, r5, ip
 800836a:	b289      	uxth	r1, r1
 800836c:	eb01 4105 	add.w	r1, r1, r5, lsl #16
 8008370:	429e      	cmp	r6, r3
 8008372:	ea4f 4815 	mov.w	r8, r5, lsr #16
 8008376:	f840 1b04 	str.w	r1, [r0], #4
 800837a:	dcec      	bgt.n	8008356 <__multadd+0x12>
 800837c:	f1b8 0f00 	cmp.w	r8, #0
 8008380:	d022      	beq.n	80083c8 <__multadd+0x84>
 8008382:	68a3      	ldr	r3, [r4, #8]
 8008384:	42b3      	cmp	r3, r6
 8008386:	dc19      	bgt.n	80083bc <__multadd+0x78>
 8008388:	6861      	ldr	r1, [r4, #4]
 800838a:	4638      	mov	r0, r7
 800838c:	3101      	adds	r1, #1
 800838e:	f7ff ff77 	bl	8008280 <_Balloc>
 8008392:	4605      	mov	r5, r0
 8008394:	b928      	cbnz	r0, 80083a2 <__multadd+0x5e>
 8008396:	4602      	mov	r2, r0
 8008398:	21b5      	movs	r1, #181	; 0xb5
 800839a:	4b0d      	ldr	r3, [pc, #52]	; (80083d0 <__multadd+0x8c>)
 800839c:	480d      	ldr	r0, [pc, #52]	; (80083d4 <__multadd+0x90>)
 800839e:	f001 f9bb 	bl	8009718 <__assert_func>
 80083a2:	6922      	ldr	r2, [r4, #16]
 80083a4:	f104 010c 	add.w	r1, r4, #12
 80083a8:	3202      	adds	r2, #2
 80083aa:	0092      	lsls	r2, r2, #2
 80083ac:	300c      	adds	r0, #12
 80083ae:	f7ff ff4c 	bl	800824a <memcpy>
 80083b2:	4621      	mov	r1, r4
 80083b4:	4638      	mov	r0, r7
 80083b6:	f7ff ffa3 	bl	8008300 <_Bfree>
 80083ba:	462c      	mov	r4, r5
 80083bc:	eb04 0386 	add.w	r3, r4, r6, lsl #2
 80083c0:	3601      	adds	r6, #1
 80083c2:	f8c3 8014 	str.w	r8, [r3, #20]
 80083c6:	6126      	str	r6, [r4, #16]
 80083c8:	4620      	mov	r0, r4
 80083ca:	e8bd 81f0 	ldmia.w	sp!, {r4, r5, r6, r7, r8, pc}
 80083ce:	bf00      	nop
 80083d0:	0800a00c 	.word	0x0800a00c
 80083d4:	0800a0b3 	.word	0x0800a0b3

080083d8 <__s2b>:
 80083d8:	e92d 43f8 	stmdb	sp!, {r3, r4, r5, r6, r7, r8, r9, lr}
 80083dc:	4615      	mov	r5, r2
 80083de:	2209      	movs	r2, #9
 80083e0:	461f      	mov	r7, r3
 80083e2:	3308      	adds	r3, #8
 80083e4:	460c      	mov	r4, r1
 80083e6:	fb93 f3f2 	sdiv	r3, r3, r2
 80083ea:	4606      	mov	r6, r0
 80083ec:	2201      	movs	r2, #1
 80083ee:	2100      	movs	r1, #0
 80083f0:	429a      	cmp	r2, r3
 80083f2:	db09      	blt.n	8008408 <__s2b+0x30>
 80083f4:	4630      	mov	r0, r6
 80083f6:	f7ff ff43 	bl	8008280 <_Balloc>
 80083fa:	b940      	cbnz	r0, 800840e <__s2b+0x36>
 80083fc:	4602      	mov	r2, r0
 80083fe:	21ce      	movs	r1, #206	; 0xce
 8008400:	4b18      	ldr	r3, [pc, #96]	; (8008464 <__s2b+0x8c>)
 8008402:	4819      	ldr	r0, [pc, #100]	; (8008468 <__s2b+0x90>)
 8008404:	f001 f988 	bl	8009718 <__assert_func>
 8008408:	0052      	lsls	r2, r2, #1
 800840a:	3101      	adds	r1, #1
 800840c:	e7f0      	b.n	80083f0 <__s2b+0x18>
 800840e:	9b08      	ldr	r3, [sp, #32]
 8008410:	2d09      	cmp	r5, #9
 8008412:	6143      	str	r3, [r0, #20]
 8008414:	f04f 0301 	mov.w	r3, #1
 8008418:	6103      	str	r3, [r0, #16]
 800841a:	dd16      	ble.n	800844a <__s2b+0x72>
 800841c:	f104 0909 	add.w	r9, r4, #9
 8008420:	46c8      	mov	r8, r9
 8008422:	442c      	add	r4, r5
 8008424:	f818 3b01 	ldrb.w	r3, [r8], #1
 8008428:	4601      	mov	r1, r0
 800842a:	220a      	movs	r2, #10
 800842c:	4630      	mov	r0, r6
 800842e:	3b30      	subs	r3, #48	; 0x30
 8008430:	f7ff ff88 	bl	8008344 <__multadd>
 8008434:	45a0      	cmp	r8, r4
 8008436:	d1f5      	bne.n	8008424 <__s2b+0x4c>
 8008438:	f1a5 0408 	sub.w	r4, r5, #8
 800843c:	444c      	add	r4, r9
 800843e:	1b2d      	subs	r5, r5, r4
 8008440:	1963      	adds	r3, r4, r5
 8008442:	42bb      	cmp	r3, r7
 8008444:	db04      	blt.n	8008450 <__s2b+0x78>
 8008446:	e8bd 83f8 	ldmia.w	sp!, {r3, r4, r5, r6, r7, r8, r9, pc}
 800844a:	2509      	movs	r5, #9
 800844c:	340a      	adds	r4, #10
 800844e:	e7f6      	b.n	800843e <__s2b+0x66>
 8008450:	f814 3b01 	ldrb.w	r3, [r4], #1
 8008454:	4601      	mov	r1, r0
 8008456:	220a      	movs	r2, #10
 8008458:	4630      	mov	r0, r6
 800845a:	3b30      	subs	r3, #48	; 0x30
 800845c:	f7ff ff72 	bl	8008344 <__multadd>
 8008460:	e7ee      	b.n	8008440 <__s2b+0x68>
 8008462:	bf00      	nop
 8008464:	0800a00c 	.word	0x0800a00c
 8008468:	0800a0b3 	.word	0x0800a0b3

0800846c <__hi0bits>:
 800846c:	0c02      	lsrs	r2, r0, #16
 800846e:	0412      	lsls	r2, r2, #16
 8008470:	4603      	mov	r3, r0
 8008472:	b9ca      	cbnz	r2, 80084a8 <__hi0bits+0x3c>
 8008474:	0403      	lsls	r3, r0, #16
 8008476:	2010      	movs	r0, #16
 8008478:	f013 4f7f 	tst.w	r3, #4278190080	; 0xff000000
 800847c:	bf04      	itt	eq
 800847e:	021b      	lsleq	r3, r3, #8
 8008480:	3008      	addeq	r0, #8
 8008482:	f013 4f70 	tst.w	r3, #4026531840	; 0xf0000000
 8008486:	bf04      	itt	eq
 8008488:	011b      	lsleq	r3, r3, #4
 800848a:	3004      	addeq	r0, #4
 800848c:	f013 4f40 	tst.w	r3, #3221225472	; 0xc0000000
 8008490:	bf04      	itt	eq
 8008492:	009b      	lsleq	r3, r3, #2
 8008494:	3002      	addeq	r0, #2
 8008496:	2b00      	cmp	r3, #0
 8008498:	db05      	blt.n	80084a6 <__hi0bits+0x3a>
 800849a:	f013 4f80 	tst.w	r3, #1073741824	; 0x40000000
 800849e:	f100 0001 	add.w	r0, r0, #1
 80084a2:	bf08      	it	eq
 80084a4:	2020      	moveq	r0, #32
 80084a6:	4770      	bx	lr
 80084a8:	2000      	movs	r0, #0
 80084aa:	e7e5      	b.n	8008478 <__hi0bits+0xc>

080084ac <__lo0bits>:
 80084ac:	6803      	ldr	r3, [r0, #0]
 80084ae:	4602      	mov	r2, r0
 80084b0:	f013 0007 	ands.w	r0, r3, #7
 80084b4:	d00b      	beq.n	80084ce <__lo0bits+0x22>
 80084b6:	07d9      	lsls	r1, r3, #31
 80084b8:	d422      	bmi.n	8008500 <__lo0bits+0x54>
 80084ba:	0798      	lsls	r0, r3, #30
 80084bc:	bf49      	itett	mi
 80084be:	085b      	lsrmi	r3, r3, #1
 80084c0:	089b      	lsrpl	r3, r3, #2
 80084c2:	2001      	movmi	r0, #1
 80084c4:	6013      	strmi	r3, [r2, #0]
 80084c6:	bf5c      	itt	pl
 80084c8:	2002      	movpl	r0, #2
 80084ca:	6013      	strpl	r3, [r2, #0]
 80084cc:	4770      	bx	lr
 80084ce:	b299      	uxth	r1, r3
 80084d0:	b909      	cbnz	r1, 80084d6 <__lo0bits+0x2a>
 80084d2:	2010      	movs	r0, #16
 80084d4:	0c1b      	lsrs	r3, r3, #16
 80084d6:	f013 0fff 	tst.w	r3, #255	; 0xff
 80084da:	bf04      	itt	eq
 80084dc:	0a1b      	lsreq	r3, r3, #8
 80084de:	3008      	addeq	r0, #8
 80084e0:	0719      	lsls	r1, r3, #28
 80084e2:	bf04      	itt	eq
 80084e4:	091b      	lsreq	r3, r3, #4
 80084e6:	3004      	addeq	r0, #4
 80084e8:	0799      	lsls	r1, r3, #30
 80084ea:	bf04      	itt	eq
 80084ec:	089b      	lsreq	r3, r3, #2
 80084ee:	3002      	addeq	r0, #2
 80084f0:	07d9      	lsls	r1, r3, #31
 80084f2:	d403      	bmi.n	80084fc <__lo0bits+0x50>
 80084f4:	085b      	lsrs	r3, r3, #1
 80084f6:	f100 0001 	add.w	r0, r0, #1
 80084fa:	d003      	beq.n	8008504 <__lo0bits+0x58>
 80084fc:	6013      	str	r3, [r2, #0]
 80084fe:	4770      	bx	lr
 8008500:	2000      	movs	r0, #0
 8008502:	4770      	bx	lr
 8008504:	2020      	movs	r0, #32
 8008506:	4770      	bx	lr

08008508 <__i2b>:
 8008508:	b510      	push	{r4, lr}
 800850a:	460c      	mov	r4, r1
 800850c:	2101      	movs	r1, #1
 800850e:	f7ff feb7 	bl	8008280 <_Balloc>
 8008512:	4602      	mov	r2, r0
 8008514:	b928      	cbnz	r0, 8008522 <__i2b+0x1a>
 8008516:	f44f 71a0 	mov.w	r1, #320	; 0x140
 800851a:	4b04      	ldr	r3, [pc, #16]	; (800852c <__i2b+0x24>)
 800851c:	4804      	ldr	r0, [pc, #16]	; (8008530 <__i2b+0x28>)
 800851e:	f001 f8fb 	bl	8009718 <__assert_func>
 8008522:	2301      	movs	r3, #1
 8008524:	6144      	str	r4, [r0, #20]
 8008526:	6103      	str	r3, [r0, #16]
 8008528:	bd10      	pop	{r4, pc}
 800852a:	bf00      	nop
 800852c:	0800a00c 	.word	0x0800a00c
 8008530:	0800a0b3 	.word	0x0800a0b3

08008534 <__multiply>:
 8008534:	e92d 4ff0 	stmdb	sp!, {r4, r5, r6, r7, r8, r9, sl, fp, lr}
 8008538:	4614      	mov	r4, r2
 800853a:	690a      	ldr	r2, [r1, #16]
 800853c:	6923      	ldr	r3, [r4, #16]
 800853e:	460d      	mov	r5, r1
 8008540:	429a      	cmp	r2, r3
 8008542:	bfbe      	ittt	lt
 8008544:	460b      	movlt	r3, r1
 8008546:	4625      	movlt	r5, r4
 8008548:	461c      	movlt	r4, r3
 800854a:	f8d5 a010 	ldr.w	sl, [r5, #16]
 800854e:	f8d4 9010 	ldr.w	r9, [r4, #16]
 8008552:	68ab      	ldr	r3, [r5, #8]
 8008554:	6869      	ldr	r1, [r5, #4]
 8008556:	eb0a 0709 	add.w	r7, sl, r9
 800855a:	42bb      	cmp	r3, r7
 800855c:	b085      	sub	sp, #20
 800855e:	bfb8      	it	lt
 8008560:	3101      	addlt	r1, #1
 8008562:	f7ff fe8d 	bl	8008280 <_Balloc>
 8008566:	b930      	cbnz	r0, 8008576 <__multiply+0x42>
 8008568:	4602      	mov	r2, r0
 800856a:	f240 115d 	movw	r1, #349	; 0x15d
 800856e:	4b41      	ldr	r3, [pc, #260]	; (8008674 <__multiply+0x140>)
 8008570:	4841      	ldr	r0, [pc, #260]	; (8008678 <__multiply+0x144>)
 8008572:	f001 f8d1 	bl	8009718 <__assert_func>
 8008576:	f100 0614 	add.w	r6, r0, #20
 800857a:	4633      	mov	r3, r6
 800857c:	2200      	movs	r2, #0
 800857e:	eb06 0887 	add.w	r8, r6, r7, lsl #2
 8008582:	4543      	cmp	r3, r8
 8008584:	d31e      	bcc.n	80085c4 <__multiply+0x90>
 8008586:	f105 0c14 	add.w	ip, r5, #20
 800858a:	f104 0314 	add.w	r3, r4, #20
 800858e:	eb0c 0c8a 	add.w	ip, ip, sl, lsl #2
 8008592:	eb03 0289 	add.w	r2, r3, r9, lsl #2
 8008596:	9202      	str	r2, [sp, #8]
 8008598:	ebac 0205 	sub.w	r2, ip, r5
 800859c:	3a15      	subs	r2, #21
 800859e:	f022 0203 	bic.w	r2, r2, #3
 80085a2:	3204      	adds	r2, #4
 80085a4:	f105 0115 	add.w	r1, r5, #21
 80085a8:	458c      	cmp	ip, r1
 80085aa:	bf38      	it	cc
 80085ac:	2204      	movcc	r2, #4
 80085ae:	9201      	str	r2, [sp, #4]
 80085b0:	9a02      	ldr	r2, [sp, #8]
 80085b2:	9303      	str	r3, [sp, #12]
 80085b4:	429a      	cmp	r2, r3
 80085b6:	d808      	bhi.n	80085ca <__multiply+0x96>
 80085b8:	2f00      	cmp	r7, #0
 80085ba:	dc55      	bgt.n	8008668 <__multiply+0x134>
 80085bc:	6107      	str	r7, [r0, #16]
 80085be:	b005      	add	sp, #20
 80085c0:	e8bd 8ff0 	ldmia.w	sp!, {r4, r5, r6, r7, r8, r9, sl, fp, pc}
 80085c4:	f843 2b04 	str.w	r2, [r3], #4
 80085c8:	e7db      	b.n	8008582 <__multiply+0x4e>
 80085ca:	f8b3 a000 	ldrh.w	sl, [r3]
 80085ce:	f1ba 0f00 	cmp.w	sl, #0
 80085d2:	d020      	beq.n	8008616 <__multiply+0xe2>
 80085d4:	46b1      	mov	r9, r6
 80085d6:	2200      	movs	r2, #0
 80085d8:	f105 0e14 	add.w	lr, r5, #20
 80085dc:	f85e 4b04 	ldr.w	r4, [lr], #4
 80085e0:	f8d9 b000 	ldr.w	fp, [r9]
 80085e4:	b2a1      	uxth	r1, r4
 80085e6:	fa1f fb8b 	uxth.w	fp, fp
 80085ea:	fb0a b101 	mla	r1, sl, r1, fp
 80085ee:	4411      	add	r1, r2
 80085f0:	f8d9 2000 	ldr.w	r2, [r9]
 80085f4:	0c24      	lsrs	r4, r4, #16
 80085f6:	0c12      	lsrs	r2, r2, #16
 80085f8:	fb0a 2404 	mla	r4, sl, r4, r2
 80085fc:	eb04 4411 	add.w	r4, r4, r1, lsr #16
 8008600:	b289      	uxth	r1, r1
 8008602:	ea41 4104 	orr.w	r1, r1, r4, lsl #16
 8008606:	45f4      	cmp	ip, lr
 8008608:	ea4f 4214 	mov.w	r2, r4, lsr #16
 800860c:	f849 1b04 	str.w	r1, [r9], #4
 8008610:	d8e4      	bhi.n	80085dc <__multiply+0xa8>
 8008612:	9901      	ldr	r1, [sp, #4]
 8008614:	5072      	str	r2, [r6, r1]
 8008616:	9a03      	ldr	r2, [sp, #12]
 8008618:	3304      	adds	r3, #4
 800861a:	f8b2 9002 	ldrh.w	r9, [r2, #2]
 800861e:	f1b9 0f00 	cmp.w	r9, #0
 8008622:	d01f      	beq.n	8008664 <__multiply+0x130>
 8008624:	46b6      	mov	lr, r6
 8008626:	f04f 0a00 	mov.w	sl, #0
 800862a:	6834      	ldr	r4, [r6, #0]
 800862c:	f105 0114 	add.w	r1, r5, #20
 8008630:	880a      	ldrh	r2, [r1, #0]
 8008632:	f8be b002 	ldrh.w	fp, [lr, #2]
 8008636:	b2a4      	uxth	r4, r4
 8008638:	fb09 b202 	mla	r2, r9, r2, fp
 800863c:	4492      	add	sl, r2
 800863e:	ea44 440a 	orr.w	r4, r4, sl, lsl #16
 8008642:	f84e 4b04 	str.w	r4, [lr], #4
 8008646:	f851 4b04 	ldr.w	r4, [r1], #4
 800864a:	f8be 2000 	ldrh.w	r2, [lr]
 800864e:	0c24      	lsrs	r4, r4, #16
 8008650:	fb09 2404 	mla	r4, r9, r4, r2
 8008654:	458c      	cmp	ip, r1
 8008656:	eb04 441a 	add.w	r4, r4, sl, lsr #16
 800865a:	ea4f 4a14 	mov.w	sl, r4, lsr #16
 800865e:	d8e7      	bhi.n	8008630 <__multiply+0xfc>
 8008660:	9a01      	ldr	r2, [sp, #4]
 8008662:	50b4      	str	r4, [r6, r2]
 8008664:	3604      	adds	r6, #4
 8008666:	e7a3      	b.n	80085b0 <__multiply+0x7c>
 8008668:	f858 3d04 	ldr.w	r3, [r8, #-4]!
 800866c:	2b00      	cmp	r3, #0
 800866e:	d1a5      	bne.n	80085bc <__multiply+0x88>
 8008670:	3f01      	subs	r7, #1
 8008672:	e7a1      	b.n	80085b8 <__multiply+0x84>
 8008674:	0800a00c 	.word	0x0800a00c
 8008678:	0800a0b3 	.word	0x0800a0b3

0800867c <__pow5mult>:
 800867c:	e92d 43f8 	stmdb	sp!, {r3, r4, r5, r6, r7, r8, r9, lr}
 8008680:	4615      	mov	r5, r2
 8008682:	f012 0203 	ands.w	r2, r2, #3
 8008686:	4606      	mov	r6, r0
 8008688:	460f      	mov	r7, r1
 800868a:	d007      	beq.n	800869c <__pow5mult+0x20>
 800868c:	4c25      	ldr	r4, [pc, #148]	; (8008724 <__pow5mult+0xa8>)
 800868e:	3a01      	subs	r2, #1
 8008690:	2300      	movs	r3, #0
 8008692:	f854 2022 	ldr.w	r2, [r4, r2, lsl #2]
 8008696:	f7ff fe55 	bl	8008344 <__multadd>
 800869a:	4607      	mov	r7, r0
 800869c:	10ad      	asrs	r5, r5, #2
 800869e:	d03d      	beq.n	800871c <__pow5mult+0xa0>
 80086a0:	6a74      	ldr	r4, [r6, #36]	; 0x24
 80086a2:	b97c      	cbnz	r4, 80086c4 <__pow5mult+0x48>
 80086a4:	2010      	movs	r0, #16
 80086a6:	f7fe f999 	bl	80069dc <malloc>
 80086aa:	4602      	mov	r2, r0
 80086ac:	6270      	str	r0, [r6, #36]	; 0x24
 80086ae:	b928      	cbnz	r0, 80086bc <__pow5mult+0x40>
 80086b0:	f44f 71d7 	mov.w	r1, #430	; 0x1ae
 80086b4:	4b1c      	ldr	r3, [pc, #112]	; (8008728 <__pow5mult+0xac>)
 80086b6:	481d      	ldr	r0, [pc, #116]	; (800872c <__pow5mult+0xb0>)
 80086b8:	f001 f82e 	bl	8009718 <__assert_func>
 80086bc:	e9c0 4401 	strd	r4, r4, [r0, #4]
 80086c0:	6004      	str	r4, [r0, #0]
 80086c2:	60c4      	str	r4, [r0, #12]
 80086c4:	f8d6 8024 	ldr.w	r8, [r6, #36]	; 0x24
 80086c8:	f8d8 4008 	ldr.w	r4, [r8, #8]
 80086cc:	b94c      	cbnz	r4, 80086e2 <__pow5mult+0x66>
 80086ce:	f240 2171 	movw	r1, #625	; 0x271
 80086d2:	4630      	mov	r0, r6
 80086d4:	f7ff ff18 	bl	8008508 <__i2b>
 80086d8:	2300      	movs	r3, #0
 80086da:	4604      	mov	r4, r0
 80086dc:	f8c8 0008 	str.w	r0, [r8, #8]
 80086e0:	6003      	str	r3, [r0, #0]
 80086e2:	f04f 0900 	mov.w	r9, #0
 80086e6:	07eb      	lsls	r3, r5, #31
 80086e8:	d50a      	bpl.n	8008700 <__pow5mult+0x84>
 80086ea:	4639      	mov	r1, r7
 80086ec:	4622      	mov	r2, r4
 80086ee:	4630      	mov	r0, r6
 80086f0:	f7ff ff20 	bl	8008534 <__multiply>
 80086f4:	4680      	mov	r8, r0
 80086f6:	4639      	mov	r1, r7
 80086f8:	4630      	mov	r0, r6
 80086fa:	f7ff fe01 	bl	8008300 <_Bfree>
 80086fe:	4647      	mov	r7, r8
 8008700:	106d      	asrs	r5, r5, #1
 8008702:	d00b      	beq.n	800871c <__pow5mult+0xa0>
 8008704:	6820      	ldr	r0, [r4, #0]
 8008706:	b938      	cbnz	r0, 8008718 <__pow5mult+0x9c>
 8008708:	4622      	mov	r2, r4
 800870a:	4621      	mov	r1, r4
 800870c:	4630      	mov	r0, r6
 800870e:	f7ff ff11 	bl	8008534 <__multiply>
 8008712:	6020      	str	r0, [r4, #0]
 8008714:	f8c0 9000 	str.w	r9, [r0]
 8008718:	4604      	mov	r4, r0
 800871a:	e7e4      	b.n	80086e6 <__pow5mult+0x6a>
 800871c:	4638      	mov	r0, r7
 800871e:	e8bd 83f8 	ldmia.w	sp!, {r3, r4, r5, r6, r7, r8, r9, pc}
 8008722:	bf00      	nop
 8008724:	0800a208 	.word	0x0800a208
 8008728:	0800a09c 	.word	0x0800a09c
 800872c:	0800a0b3 	.word	0x0800a0b3

08008730 <__lshift>:
 8008730:	e92d 47f0 	stmdb	sp!, {r4, r5, r6, r7, r8, r9, sl, lr}
 8008734:	460c      	mov	r4, r1
 8008736:	4607      	mov	r7, r0
 8008738:	4691      	mov	r9, r2
 800873a:	6923      	ldr	r3, [r4, #16]
 800873c:	6849      	ldr	r1, [r1, #4]
 800873e:	eb03 1862 	add.w	r8, r3, r2, asr #5
 8008742:	68a3      	ldr	r3, [r4, #8]
 8008744:	ea4f 1a62 	mov.w	sl, r2, asr #5
 8008748:	f108 0601 	add.w	r6, r8, #1
 800874c:	42b3      	cmp	r3, r6
 800874e:	db0b      	blt.n	8008768 <__lshift+0x38>
 8008750:	4638      	mov	r0, r7
 8008752:	f7ff fd95 	bl	8008280 <_Balloc>
 8008756:	4605      	mov	r5, r0
 8008758:	b948      	cbnz	r0, 800876e <__lshift+0x3e>
 800875a:	4602      	mov	r2, r0
 800875c:	f240 11d9 	movw	r1, #473	; 0x1d9
 8008760:	4b27      	ldr	r3, [pc, #156]	; (8008800 <__lshift+0xd0>)
 8008762:	4828      	ldr	r0, [pc, #160]	; (8008804 <__lshift+0xd4>)
 8008764:	f000 ffd8 	bl	8009718 <__assert_func>
 8008768:	3101      	adds	r1, #1
 800876a:	005b      	lsls	r3, r3, #1
 800876c:	e7ee      	b.n	800874c <__lshift+0x1c>
 800876e:	2300      	movs	r3, #0
 8008770:	f100 0114 	add.w	r1, r0, #20
 8008774:	f100 0210 	add.w	r2, r0, #16
 8008778:	4618      	mov	r0, r3
 800877a:	4553      	cmp	r3, sl
 800877c:	db33      	blt.n	80087e6 <__lshift+0xb6>
 800877e:	6920      	ldr	r0, [r4, #16]
 8008780:	ea2a 7aea 	bic.w	sl, sl, sl, asr #31
 8008784:	f104 0314 	add.w	r3, r4, #20
 8008788:	f019 091f 	ands.w	r9, r9, #31
 800878c:	eb01 018a 	add.w	r1, r1, sl, lsl #2
 8008790:	eb03 0c80 	add.w	ip, r3, r0, lsl #2
 8008794:	d02b      	beq.n	80087ee <__lshift+0xbe>
 8008796:	468a      	mov	sl, r1
 8008798:	2200      	movs	r2, #0
 800879a:	f1c9 0e20 	rsb	lr, r9, #32
 800879e:	6818      	ldr	r0, [r3, #0]
 80087a0:	fa00 f009 	lsl.w	r0, r0, r9
 80087a4:	4302      	orrs	r2, r0
 80087a6:	f84a 2b04 	str.w	r2, [sl], #4
 80087aa:	f853 2b04 	ldr.w	r2, [r3], #4
 80087ae:	459c      	cmp	ip, r3
 80087b0:	fa22 f20e 	lsr.w	r2, r2, lr
 80087b4:	d8f3      	bhi.n	800879e <__lshift+0x6e>
 80087b6:	ebac 0304 	sub.w	r3, ip, r4
 80087ba:	3b15      	subs	r3, #21
 80087bc:	f023 0303 	bic.w	r3, r3, #3
 80087c0:	3304      	adds	r3, #4
 80087c2:	f104 0015 	add.w	r0, r4, #21
 80087c6:	4584      	cmp	ip, r0
 80087c8:	bf38      	it	cc
 80087ca:	2304      	movcc	r3, #4
 80087cc:	50ca      	str	r2, [r1, r3]
 80087ce:	b10a      	cbz	r2, 80087d4 <__lshift+0xa4>
 80087d0:	f108 0602 	add.w	r6, r8, #2
 80087d4:	3e01      	subs	r6, #1
 80087d6:	4638      	mov	r0, r7
 80087d8:	4621      	mov	r1, r4
 80087da:	612e      	str	r6, [r5, #16]
 80087dc:	f7ff fd90 	bl	8008300 <_Bfree>
 80087e0:	4628      	mov	r0, r5
 80087e2:	e8bd 87f0 	ldmia.w	sp!, {r4, r5, r6, r7, r8, r9, sl, pc}
 80087e6:	f842 0f04 	str.w	r0, [r2, #4]!
 80087ea:	3301      	adds	r3, #1
 80087ec:	e7c5      	b.n	800877a <__lshift+0x4a>
 80087ee:	3904      	subs	r1, #4
 80087f0:	f853 2b04 	ldr.w	r2, [r3], #4
 80087f4:	459c      	cmp	ip, r3
 80087f6:	f841 2f04 	str.w	r2, [r1, #4]!
 80087fa:	d8f9      	bhi.n	80087f0 <__lshift+0xc0>
 80087fc:	e7ea      	b.n	80087d4 <__lshift+0xa4>
 80087fe:	bf00      	nop
 8008800:	0800a00c 	.word	0x0800a00c
 8008804:	0800a0b3 	.word	0x0800a0b3

08008808 <__mcmp>:
 8008808:	4603      	mov	r3, r0
 800880a:	690a      	ldr	r2, [r1, #16]
 800880c:	6900      	ldr	r0, [r0, #16]
 800880e:	b530      	push	{r4, r5, lr}
 8008810:	1a80      	subs	r0, r0, r2
 8008812:	d10d      	bne.n	8008830 <__mcmp+0x28>
 8008814:	3314      	adds	r3, #20
 8008816:	3114      	adds	r1, #20
 8008818:	eb03 0482 	add.w	r4, r3, r2, lsl #2
 800881c:	eb01 0182 	add.w	r1, r1, r2, lsl #2
 8008820:	f854 5d04 	ldr.w	r5, [r4, #-4]!
 8008824:	f851 2d04 	ldr.w	r2, [r1, #-4]!
 8008828:	4295      	cmp	r5, r2
 800882a:	d002      	beq.n	8008832 <__mcmp+0x2a>
 800882c:	d304      	bcc.n	8008838 <__mcmp+0x30>
 800882e:	2001      	movs	r0, #1
 8008830:	bd30      	pop	{r4, r5, pc}
 8008832:	42a3      	cmp	r3, r4
 8008834:	d3f4      	bcc.n	8008820 <__mcmp+0x18>
 8008836:	e7fb      	b.n	8008830 <__mcmp+0x28>
 8008838:	f04f 30ff 	mov.w	r0, #4294967295
 800883c:	e7f8      	b.n	8008830 <__mcmp+0x28>
	...

08008840 <__mdiff>:
 8008840:	e92d 4ff8 	stmdb	sp!, {r3, r4, r5, r6, r7, r8, r9, sl, fp, lr}
 8008844:	460c      	mov	r4, r1
 8008846:	4606      	mov	r6, r0
 8008848:	4611      	mov	r1, r2
 800884a:	4620      	mov	r0, r4
 800884c:	4692      	mov	sl, r2
 800884e:	f7ff ffdb 	bl	8008808 <__mcmp>
 8008852:	1e05      	subs	r5, r0, #0
 8008854:	d111      	bne.n	800887a <__mdiff+0x3a>
 8008856:	4629      	mov	r1, r5
 8008858:	4630      	mov	r0, r6
 800885a:	f7ff fd11 	bl	8008280 <_Balloc>
 800885e:	4602      	mov	r2, r0
 8008860:	b928      	cbnz	r0, 800886e <__mdiff+0x2e>
 8008862:	f240 2132 	movw	r1, #562	; 0x232
 8008866:	4b3c      	ldr	r3, [pc, #240]	; (8008958 <__mdiff+0x118>)
 8008868:	483c      	ldr	r0, [pc, #240]	; (800895c <__mdiff+0x11c>)
 800886a:	f000 ff55 	bl	8009718 <__assert_func>
 800886e:	2301      	movs	r3, #1
 8008870:	e9c0 3504 	strd	r3, r5, [r0, #16]
 8008874:	4610      	mov	r0, r2
 8008876:	e8bd 8ff8 	ldmia.w	sp!, {r3, r4, r5, r6, r7, r8, r9, sl, fp, pc}
 800887a:	bfa4      	itt	ge
 800887c:	4653      	movge	r3, sl
 800887e:	46a2      	movge	sl, r4
 8008880:	4630      	mov	r0, r6
 8008882:	f8da 1004 	ldr.w	r1, [sl, #4]
 8008886:	bfa6      	itte	ge
 8008888:	461c      	movge	r4, r3
 800888a:	2500      	movge	r5, #0
 800888c:	2501      	movlt	r5, #1
 800888e:	f7ff fcf7 	bl	8008280 <_Balloc>
 8008892:	4602      	mov	r2, r0
 8008894:	b918      	cbnz	r0, 800889e <__mdiff+0x5e>
 8008896:	f44f 7110 	mov.w	r1, #576	; 0x240
 800889a:	4b2f      	ldr	r3, [pc, #188]	; (8008958 <__mdiff+0x118>)
 800889c:	e7e4      	b.n	8008868 <__mdiff+0x28>
 800889e:	f100 0814 	add.w	r8, r0, #20
 80088a2:	f8da 7010 	ldr.w	r7, [sl, #16]
 80088a6:	60c5      	str	r5, [r0, #12]
 80088a8:	f04f 0c00 	mov.w	ip, #0
 80088ac:	f10a 0514 	add.w	r5, sl, #20
 80088b0:	f10a 0010 	add.w	r0, sl, #16
 80088b4:	46c2      	mov	sl, r8
 80088b6:	6926      	ldr	r6, [r4, #16]
 80088b8:	f104 0914 	add.w	r9, r4, #20
 80088bc:	eb05 0e87 	add.w	lr, r5, r7, lsl #2
 80088c0:	eb09 0686 	add.w	r6, r9, r6, lsl #2
 80088c4:	f850 bf04 	ldr.w	fp, [r0, #4]!
 80088c8:	f859 3b04 	ldr.w	r3, [r9], #4
 80088cc:	fa1f f18b 	uxth.w	r1, fp
 80088d0:	4461      	add	r1, ip
 80088d2:	fa1f fc83 	uxth.w	ip, r3
 80088d6:	0c1b      	lsrs	r3, r3, #16
 80088d8:	eba1 010c 	sub.w	r1, r1, ip
 80088dc:	ebc3 431b 	rsb	r3, r3, fp, lsr #16
 80088e0:	eb03 4321 	add.w	r3, r3, r1, asr #16
 80088e4:	b289      	uxth	r1, r1
 80088e6:	ea4f 4c23 	mov.w	ip, r3, asr #16
 80088ea:	454e      	cmp	r6, r9
 80088ec:	ea41 4303 	orr.w	r3, r1, r3, lsl #16
 80088f0:	f84a 3b04 	str.w	r3, [sl], #4
 80088f4:	d8e6      	bhi.n	80088c4 <__mdiff+0x84>
 80088f6:	1b33      	subs	r3, r6, r4
 80088f8:	3b15      	subs	r3, #21
 80088fa:	f023 0303 	bic.w	r3, r3, #3
 80088fe:	3415      	adds	r4, #21
 8008900:	3304      	adds	r3, #4
 8008902:	42a6      	cmp	r6, r4
 8008904:	bf38      	it	cc
 8008906:	2304      	movcc	r3, #4
 8008908:	441d      	add	r5, r3
 800890a:	4443      	add	r3, r8
 800890c:	461e      	mov	r6, r3
 800890e:	462c      	mov	r4, r5
 8008910:	4574      	cmp	r4, lr
 8008912:	d30e      	bcc.n	8008932 <__mdiff+0xf2>
 8008914:	f10e 0103 	add.w	r1, lr, #3
 8008918:	1b49      	subs	r1, r1, r5
 800891a:	f021 0103 	bic.w	r1, r1, #3
 800891e:	3d03      	subs	r5, #3
 8008920:	45ae      	cmp	lr, r5
 8008922:	bf38      	it	cc
 8008924:	2100      	movcc	r1, #0
 8008926:	4419      	add	r1, r3
 8008928:	f851 3d04 	ldr.w	r3, [r1, #-4]!
 800892c:	b18b      	cbz	r3, 8008952 <__mdiff+0x112>
 800892e:	6117      	str	r7, [r2, #16]
 8008930:	e7a0      	b.n	8008874 <__mdiff+0x34>
 8008932:	f854 8b04 	ldr.w	r8, [r4], #4
 8008936:	fa1f f188 	uxth.w	r1, r8
 800893a:	4461      	add	r1, ip
 800893c:	1408      	asrs	r0, r1, #16
 800893e:	eb00 4018 	add.w	r0, r0, r8, lsr #16
 8008942:	b289      	uxth	r1, r1
 8008944:	ea41 4100 	orr.w	r1, r1, r0, lsl #16
 8008948:	ea4f 4c20 	mov.w	ip, r0, asr #16
 800894c:	f846 1b04 	str.w	r1, [r6], #4
 8008950:	e7de      	b.n	8008910 <__mdiff+0xd0>
 8008952:	3f01      	subs	r7, #1
 8008954:	e7e8      	b.n	8008928 <__mdiff+0xe8>
 8008956:	bf00      	nop
 8008958:	0800a00c 	.word	0x0800a00c
 800895c:	0800a0b3 	.word	0x0800a0b3

08008960 <__ulp>:
 8008960:	4b11      	ldr	r3, [pc, #68]	; (80089a8 <__ulp+0x48>)
 8008962:	400b      	ands	r3, r1
 8008964:	f1a3 7350 	sub.w	r3, r3, #54525952	; 0x3400000
 8008968:	2b00      	cmp	r3, #0
 800896a:	dd02      	ble.n	8008972 <__ulp+0x12>
 800896c:	2000      	movs	r0, #0
 800896e:	4619      	mov	r1, r3
 8008970:	4770      	bx	lr
 8008972:	425b      	negs	r3, r3
 8008974:	f1b3 7fa0 	cmp.w	r3, #20971520	; 0x1400000
 8008978:	f04f 0000 	mov.w	r0, #0
 800897c:	f04f 0100 	mov.w	r1, #0
 8008980:	ea4f 5223 	mov.w	r2, r3, asr #20
 8008984:	da04      	bge.n	8008990 <__ulp+0x30>
 8008986:	f44f 2300 	mov.w	r3, #524288	; 0x80000
 800898a:	fa43 f102 	asr.w	r1, r3, r2
 800898e:	4770      	bx	lr
 8008990:	f1a2 0314 	sub.w	r3, r2, #20
 8008994:	2b1e      	cmp	r3, #30
 8008996:	bfd6      	itet	le
 8008998:	f04f 4200 	movle.w	r2, #2147483648	; 0x80000000
 800899c:	2301      	movgt	r3, #1
 800899e:	fa22 f303 	lsrle.w	r3, r2, r3
 80089a2:	4618      	mov	r0, r3
 80089a4:	4770      	bx	lr
 80089a6:	bf00      	nop
 80089a8:	7ff00000 	.word	0x7ff00000

080089ac <__b2d>:
 80089ac:	e92d 43f8 	stmdb	sp!, {r3, r4, r5, r6, r7, r8, r9, lr}
 80089b0:	6907      	ldr	r7, [r0, #16]
 80089b2:	f100 0914 	add.w	r9, r0, #20
 80089b6:	eb09 0787 	add.w	r7, r9, r7, lsl #2
 80089ba:	f857 6c04 	ldr.w	r6, [r7, #-4]
 80089be:	f1a7 0804 	sub.w	r8, r7, #4
 80089c2:	4630      	mov	r0, r6
 80089c4:	f7ff fd52 	bl	800846c <__hi0bits>
 80089c8:	f1c0 0320 	rsb	r3, r0, #32
 80089cc:	280a      	cmp	r0, #10
 80089ce:	600b      	str	r3, [r1, #0]
 80089d0:	491f      	ldr	r1, [pc, #124]	; (8008a50 <__b2d+0xa4>)
 80089d2:	dc17      	bgt.n	8008a04 <__b2d+0x58>
 80089d4:	45c1      	cmp	r9, r8
 80089d6:	bf28      	it	cs
 80089d8:	2200      	movcs	r2, #0
 80089da:	f1c0 0c0b 	rsb	ip, r0, #11
 80089de:	fa26 f30c 	lsr.w	r3, r6, ip
 80089e2:	bf38      	it	cc
 80089e4:	f857 2c08 	ldrcc.w	r2, [r7, #-8]
 80089e8:	ea43 0501 	orr.w	r5, r3, r1
 80089ec:	f100 0315 	add.w	r3, r0, #21
 80089f0:	fa06 f303 	lsl.w	r3, r6, r3
 80089f4:	fa22 f20c 	lsr.w	r2, r2, ip
 80089f8:	ea43 0402 	orr.w	r4, r3, r2
 80089fc:	4620      	mov	r0, r4
 80089fe:	4629      	mov	r1, r5
 8008a00:	e8bd 83f8 	ldmia.w	sp!, {r3, r4, r5, r6, r7, r8, r9, pc}
 8008a04:	45c1      	cmp	r9, r8
 8008a06:	bf2e      	itee	cs
 8008a08:	2200      	movcs	r2, #0
 8008a0a:	f857 2c08 	ldrcc.w	r2, [r7, #-8]
 8008a0e:	f1a7 0808 	subcc.w	r8, r7, #8
 8008a12:	f1b0 030b 	subs.w	r3, r0, #11
 8008a16:	d016      	beq.n	8008a46 <__b2d+0x9a>
 8008a18:	f1c3 0720 	rsb	r7, r3, #32
 8008a1c:	fa22 f107 	lsr.w	r1, r2, r7
 8008a20:	45c8      	cmp	r8, r9
 8008a22:	fa06 f603 	lsl.w	r6, r6, r3
 8008a26:	ea46 0601 	orr.w	r6, r6, r1
 8008a2a:	bf94      	ite	ls
 8008a2c:	2100      	movls	r1, #0
 8008a2e:	f858 1c04 	ldrhi.w	r1, [r8, #-4]
 8008a32:	f046 557f 	orr.w	r5, r6, #1069547520	; 0x3fc00000
 8008a36:	fa02 f003 	lsl.w	r0, r2, r3
 8008a3a:	40f9      	lsrs	r1, r7
 8008a3c:	f445 1540 	orr.w	r5, r5, #3145728	; 0x300000
 8008a40:	ea40 0401 	orr.w	r4, r0, r1
 8008a44:	e7da      	b.n	80089fc <__b2d+0x50>
 8008a46:	4614      	mov	r4, r2
 8008a48:	ea46 0501 	orr.w	r5, r6, r1
 8008a4c:	e7d6      	b.n	80089fc <__b2d+0x50>
 8008a4e:	bf00      	nop
 8008a50:	3ff00000 	.word	0x3ff00000

08008a54 <__d2b>:
 8008a54:	e92d 41f3 	stmdb	sp!, {r0, r1, r4, r5, r6, r7, r8, lr}
 8008a58:	2101      	movs	r1, #1
 8008a5a:	e9dd 7608 	ldrd	r7, r6, [sp, #32]
 8008a5e:	4690      	mov	r8, r2
 8008a60:	461d      	mov	r5, r3
 8008a62:	f7ff fc0d 	bl	8008280 <_Balloc>
 8008a66:	4604      	mov	r4, r0
 8008a68:	b930      	cbnz	r0, 8008a78 <__d2b+0x24>
 8008a6a:	4602      	mov	r2, r0
 8008a6c:	f240 310a 	movw	r1, #778	; 0x30a
 8008a70:	4b24      	ldr	r3, [pc, #144]	; (8008b04 <__d2b+0xb0>)
 8008a72:	4825      	ldr	r0, [pc, #148]	; (8008b08 <__d2b+0xb4>)
 8008a74:	f000 fe50 	bl	8009718 <__assert_func>
 8008a78:	f3c5 0313 	ubfx	r3, r5, #0, #20
 8008a7c:	f3c5 550a 	ubfx	r5, r5, #20, #11
 8008a80:	bb2d      	cbnz	r5, 8008ace <__d2b+0x7a>
 8008a82:	9301      	str	r3, [sp, #4]
 8008a84:	f1b8 0300 	subs.w	r3, r8, #0
 8008a88:	d026      	beq.n	8008ad8 <__d2b+0x84>
 8008a8a:	4668      	mov	r0, sp
 8008a8c:	9300      	str	r3, [sp, #0]
 8008a8e:	f7ff fd0d 	bl	80084ac <__lo0bits>
 8008a92:	9900      	ldr	r1, [sp, #0]
 8008a94:	b1f0      	cbz	r0, 8008ad4 <__d2b+0x80>
 8008a96:	9a01      	ldr	r2, [sp, #4]
 8008a98:	f1c0 0320 	rsb	r3, r0, #32
 8008a9c:	fa02 f303 	lsl.w	r3, r2, r3
 8008aa0:	430b      	orrs	r3, r1
 8008aa2:	40c2      	lsrs	r2, r0
 8008aa4:	6163      	str	r3, [r4, #20]
 8008aa6:	9201      	str	r2, [sp, #4]
 8008aa8:	9b01      	ldr	r3, [sp, #4]
 8008aaa:	2b00      	cmp	r3, #0
 8008aac:	bf14      	ite	ne
 8008aae:	2102      	movne	r1, #2
 8008ab0:	2101      	moveq	r1, #1
 8008ab2:	61a3      	str	r3, [r4, #24]
 8008ab4:	6121      	str	r1, [r4, #16]
 8008ab6:	b1c5      	cbz	r5, 8008aea <__d2b+0x96>
 8008ab8:	f2a5 4533 	subw	r5, r5, #1075	; 0x433
 8008abc:	4405      	add	r5, r0
 8008abe:	f1c0 0035 	rsb	r0, r0, #53	; 0x35
 8008ac2:	603d      	str	r5, [r7, #0]
 8008ac4:	6030      	str	r0, [r6, #0]
 8008ac6:	4620      	mov	r0, r4
 8008ac8:	b002      	add	sp, #8
 8008aca:	e8bd 81f0 	ldmia.w	sp!, {r4, r5, r6, r7, r8, pc}
 8008ace:	f443 1380 	orr.w	r3, r3, #1048576	; 0x100000
 8008ad2:	e7d6      	b.n	8008a82 <__d2b+0x2e>
 8008ad4:	6161      	str	r1, [r4, #20]
 8008ad6:	e7e7      	b.n	8008aa8 <__d2b+0x54>
 8008ad8:	a801      	add	r0, sp, #4
 8008ada:	f7ff fce7 	bl	80084ac <__lo0bits>
 8008ade:	2101      	movs	r1, #1
 8008ae0:	9b01      	ldr	r3, [sp, #4]
 8008ae2:	6121      	str	r1, [r4, #16]
 8008ae4:	6163      	str	r3, [r4, #20]
 8008ae6:	3020      	adds	r0, #32
 8008ae8:	e7e5      	b.n	8008ab6 <__d2b+0x62>
 8008aea:	eb04 0381 	add.w	r3, r4, r1, lsl #2
 8008aee:	f2a0 4032 	subw	r0, r0, #1074	; 0x432
 8008af2:	6038      	str	r0, [r7, #0]
 8008af4:	6918      	ldr	r0, [r3, #16]
 8008af6:	f7ff fcb9 	bl	800846c <__hi0bits>
 8008afa:	ebc0 1141 	rsb	r1, r0, r1, lsl #5
 8008afe:	6031      	str	r1, [r6, #0]
 8008b00:	e7e1      	b.n	8008ac6 <__d2b+0x72>
 8008b02:	bf00      	nop
 8008b04:	0800a00c 	.word	0x0800a00c
 8008b08:	0800a0b3 	.word	0x0800a0b3

08008b0c <__ratio>:
 8008b0c:	e92d 4ff7 	stmdb	sp!, {r0, r1, r2, r4, r5, r6, r7, r8, r9, sl, fp, lr}
 8008b10:	4688      	mov	r8, r1
 8008b12:	4669      	mov	r1, sp
 8008b14:	4681      	mov	r9, r0
 8008b16:	f7ff ff49 	bl	80089ac <__b2d>
 8008b1a:	460f      	mov	r7, r1
 8008b1c:	4604      	mov	r4, r0
 8008b1e:	460d      	mov	r5, r1
 8008b20:	4640      	mov	r0, r8
 8008b22:	a901      	add	r1, sp, #4
 8008b24:	f7ff ff42 	bl	80089ac <__b2d>
 8008b28:	f8d9 3010 	ldr.w	r3, [r9, #16]
 8008b2c:	f8d8 2010 	ldr.w	r2, [r8, #16]
 8008b30:	468b      	mov	fp, r1
 8008b32:	eba3 0c02 	sub.w	ip, r3, r2
 8008b36:	e9dd 3200 	ldrd	r3, r2, [sp]
 8008b3a:	1a9b      	subs	r3, r3, r2
 8008b3c:	eb03 134c 	add.w	r3, r3, ip, lsl #5
 8008b40:	2b00      	cmp	r3, #0
 8008b42:	bfd5      	itete	le
 8008b44:	460a      	movle	r2, r1
 8008b46:	462a      	movgt	r2, r5
 8008b48:	ebc3 3303 	rsble	r3, r3, r3, lsl #12
 8008b4c:	eb02 5703 	addgt.w	r7, r2, r3, lsl #20
 8008b50:	bfd8      	it	le
 8008b52:	eb02 5b03 	addle.w	fp, r2, r3, lsl #20
 8008b56:	465b      	mov	r3, fp
 8008b58:	4602      	mov	r2, r0
 8008b5a:	4639      	mov	r1, r7
 8008b5c:	4620      	mov	r0, r4
 8008b5e:	f7f7 fe51 	bl	8000804 <__aeabi_ddiv>
 8008b62:	b003      	add	sp, #12
 8008b64:	e8bd 8ff0 	ldmia.w	sp!, {r4, r5, r6, r7, r8, r9, sl, fp, pc}

08008b68 <__copybits>:
 8008b68:	3901      	subs	r1, #1
 8008b6a:	b570      	push	{r4, r5, r6, lr}
 8008b6c:	1149      	asrs	r1, r1, #5
 8008b6e:	6914      	ldr	r4, [r2, #16]
 8008b70:	3101      	adds	r1, #1
 8008b72:	f102 0314 	add.w	r3, r2, #20
 8008b76:	eb00 0181 	add.w	r1, r0, r1, lsl #2
 8008b7a:	eb03 0484 	add.w	r4, r3, r4, lsl #2
 8008b7e:	1f05      	subs	r5, r0, #4
 8008b80:	42a3      	cmp	r3, r4
 8008b82:	d30c      	bcc.n	8008b9e <__copybits+0x36>
 8008b84:	1aa3      	subs	r3, r4, r2
 8008b86:	3b11      	subs	r3, #17
 8008b88:	f023 0303 	bic.w	r3, r3, #3
 8008b8c:	3211      	adds	r2, #17
 8008b8e:	42a2      	cmp	r2, r4
 8008b90:	bf88      	it	hi
 8008b92:	2300      	movhi	r3, #0
 8008b94:	4418      	add	r0, r3
 8008b96:	2300      	movs	r3, #0
 8008b98:	4288      	cmp	r0, r1
 8008b9a:	d305      	bcc.n	8008ba8 <__copybits+0x40>
 8008b9c:	bd70      	pop	{r4, r5, r6, pc}
 8008b9e:	f853 6b04 	ldr.w	r6, [r3], #4
 8008ba2:	f845 6f04 	str.w	r6, [r5, #4]!
 8008ba6:	e7eb      	b.n	8008b80 <__copybits+0x18>
 8008ba8:	f840 3b04 	str.w	r3, [r0], #4
 8008bac:	e7f4      	b.n	8008b98 <__copybits+0x30>

08008bae <__any_on>:
 8008bae:	f100 0214 	add.w	r2, r0, #20
 8008bb2:	6900      	ldr	r0, [r0, #16]
 8008bb4:	114b      	asrs	r3, r1, #5
 8008bb6:	4298      	cmp	r0, r3
 8008bb8:	b510      	push	{r4, lr}
 8008bba:	db11      	blt.n	8008be0 <__any_on+0x32>
 8008bbc:	dd0a      	ble.n	8008bd4 <__any_on+0x26>
 8008bbe:	f011 011f 	ands.w	r1, r1, #31
 8008bc2:	d007      	beq.n	8008bd4 <__any_on+0x26>
 8008bc4:	f852 4023 	ldr.w	r4, [r2, r3, lsl #2]
 8008bc8:	fa24 f001 	lsr.w	r0, r4, r1
 8008bcc:	fa00 f101 	lsl.w	r1, r0, r1
 8008bd0:	428c      	cmp	r4, r1
 8008bd2:	d10b      	bne.n	8008bec <__any_on+0x3e>
 8008bd4:	eb02 0383 	add.w	r3, r2, r3, lsl #2
 8008bd8:	4293      	cmp	r3, r2
 8008bda:	d803      	bhi.n	8008be4 <__any_on+0x36>
 8008bdc:	2000      	movs	r0, #0
 8008bde:	bd10      	pop	{r4, pc}
 8008be0:	4603      	mov	r3, r0
 8008be2:	e7f7      	b.n	8008bd4 <__any_on+0x26>
 8008be4:	f853 1d04 	ldr.w	r1, [r3, #-4]!
 8008be8:	2900      	cmp	r1, #0
 8008bea:	d0f5      	beq.n	8008bd8 <__any_on+0x2a>
 8008bec:	2001      	movs	r0, #1
 8008bee:	e7f6      	b.n	8008bde <__any_on+0x30>

08008bf0 <_calloc_r>:
 8008bf0:	b538      	push	{r3, r4, r5, lr}
 8008bf2:	fb02 f501 	mul.w	r5, r2, r1
 8008bf6:	4629      	mov	r1, r5
 8008bf8:	f7fd ff54 	bl	8006aa4 <_malloc_r>
 8008bfc:	4604      	mov	r4, r0
 8008bfe:	b118      	cbz	r0, 8008c08 <_calloc_r+0x18>
 8008c00:	462a      	mov	r2, r5
 8008c02:	2100      	movs	r1, #0
 8008c04:	f7fd fefa 	bl	80069fc <memset>
 8008c08:	4620      	mov	r0, r4
 8008c0a:	bd38      	pop	{r3, r4, r5, pc}

08008c0c <__ssputs_r>:
 8008c0c:	e92d 47f0 	stmdb	sp!, {r4, r5, r6, r7, r8, r9, sl, lr}
 8008c10:	688e      	ldr	r6, [r1, #8]
 8008c12:	4682      	mov	sl, r0
 8008c14:	429e      	cmp	r6, r3
 8008c16:	460c      	mov	r4, r1
 8008c18:	4690      	mov	r8, r2
 8008c1a:	461f      	mov	r7, r3
 8008c1c:	d838      	bhi.n	8008c90 <__ssputs_r+0x84>
 8008c1e:	898a      	ldrh	r2, [r1, #12]
 8008c20:	f412 6f90 	tst.w	r2, #1152	; 0x480
 8008c24:	d032      	beq.n	8008c8c <__ssputs_r+0x80>
 8008c26:	6825      	ldr	r5, [r4, #0]
 8008c28:	6909      	ldr	r1, [r1, #16]
 8008c2a:	3301      	adds	r3, #1
 8008c2c:	eba5 0901 	sub.w	r9, r5, r1
 8008c30:	6965      	ldr	r5, [r4, #20]
 8008c32:	444b      	add	r3, r9
 8008c34:	eb05 0545 	add.w	r5, r5, r5, lsl #1
 8008c38:	eb05 75d5 	add.w	r5, r5, r5, lsr #31
 8008c3c:	106d      	asrs	r5, r5, #1
 8008c3e:	429d      	cmp	r5, r3
 8008c40:	bf38      	it	cc
 8008c42:	461d      	movcc	r5, r3
 8008c44:	0553      	lsls	r3, r2, #21
 8008c46:	d531      	bpl.n	8008cac <__ssputs_r+0xa0>
 8008c48:	4629      	mov	r1, r5
 8008c4a:	f7fd ff2b 	bl	8006aa4 <_malloc_r>
 8008c4e:	4606      	mov	r6, r0
 8008c50:	b950      	cbnz	r0, 8008c68 <__ssputs_r+0x5c>
 8008c52:	230c      	movs	r3, #12
 8008c54:	f04f 30ff 	mov.w	r0, #4294967295
 8008c58:	f8ca 3000 	str.w	r3, [sl]
 8008c5c:	89a3      	ldrh	r3, [r4, #12]
 8008c5e:	f043 0340 	orr.w	r3, r3, #64	; 0x40
 8008c62:	81a3      	strh	r3, [r4, #12]
 8008c64:	e8bd 87f0 	ldmia.w	sp!, {r4, r5, r6, r7, r8, r9, sl, pc}
 8008c68:	464a      	mov	r2, r9
 8008c6a:	6921      	ldr	r1, [r4, #16]
 8008c6c:	f7ff faed 	bl	800824a <memcpy>
 8008c70:	89a3      	ldrh	r3, [r4, #12]
 8008c72:	f423 6390 	bic.w	r3, r3, #1152	; 0x480
 8008c76:	f043 0380 	orr.w	r3, r3, #128	; 0x80
 8008c7a:	81a3      	strh	r3, [r4, #12]
 8008c7c:	6126      	str	r6, [r4, #16]
 8008c7e:	444e      	add	r6, r9
 8008c80:	6026      	str	r6, [r4, #0]
 8008c82:	463e      	mov	r6, r7
 8008c84:	6165      	str	r5, [r4, #20]
 8008c86:	eba5 0509 	sub.w	r5, r5, r9
 8008c8a:	60a5      	str	r5, [r4, #8]
 8008c8c:	42be      	cmp	r6, r7
 8008c8e:	d900      	bls.n	8008c92 <__ssputs_r+0x86>
 8008c90:	463e      	mov	r6, r7
 8008c92:	4632      	mov	r2, r6
 8008c94:	4641      	mov	r1, r8
 8008c96:	6820      	ldr	r0, [r4, #0]
 8008c98:	f000 fec4 	bl	8009a24 <memmove>
 8008c9c:	68a3      	ldr	r3, [r4, #8]
 8008c9e:	6822      	ldr	r2, [r4, #0]
 8008ca0:	1b9b      	subs	r3, r3, r6
 8008ca2:	4432      	add	r2, r6
 8008ca4:	2000      	movs	r0, #0
 8008ca6:	60a3      	str	r3, [r4, #8]
 8008ca8:	6022      	str	r2, [r4, #0]
 8008caa:	e7db      	b.n	8008c64 <__ssputs_r+0x58>
 8008cac:	462a      	mov	r2, r5
 8008cae:	f000 fed3 	bl	8009a58 <_realloc_r>
 8008cb2:	4606      	mov	r6, r0
 8008cb4:	2800      	cmp	r0, #0
 8008cb6:	d1e1      	bne.n	8008c7c <__ssputs_r+0x70>
 8008cb8:	4650      	mov	r0, sl
 8008cba:	6921      	ldr	r1, [r4, #16]
 8008cbc:	f7fd fea6 	bl	8006a0c <_free_r>
 8008cc0:	e7c7      	b.n	8008c52 <__ssputs_r+0x46>
	...

08008cc4 <_svfiprintf_r>:
 8008cc4:	e92d 4ff0 	stmdb	sp!, {r4, r5, r6, r7, r8, r9, sl, fp, lr}
 8008cc8:	4698      	mov	r8, r3
 8008cca:	898b      	ldrh	r3, [r1, #12]
 8008ccc:	4607      	mov	r7, r0
 8008cce:	061b      	lsls	r3, r3, #24
 8008cd0:	460d      	mov	r5, r1
 8008cd2:	4614      	mov	r4, r2
 8008cd4:	b09d      	sub	sp, #116	; 0x74
 8008cd6:	d50e      	bpl.n	8008cf6 <_svfiprintf_r+0x32>
 8008cd8:	690b      	ldr	r3, [r1, #16]
 8008cda:	b963      	cbnz	r3, 8008cf6 <_svfiprintf_r+0x32>
 8008cdc:	2140      	movs	r1, #64	; 0x40
 8008cde:	f7fd fee1 	bl	8006aa4 <_malloc_r>
 8008ce2:	6028      	str	r0, [r5, #0]
 8008ce4:	6128      	str	r0, [r5, #16]
 8008ce6:	b920      	cbnz	r0, 8008cf2 <_svfiprintf_r+0x2e>
 8008ce8:	230c      	movs	r3, #12
 8008cea:	603b      	str	r3, [r7, #0]
 8008cec:	f04f 30ff 	mov.w	r0, #4294967295
 8008cf0:	e0d1      	b.n	8008e96 <_svfiprintf_r+0x1d2>
 8008cf2:	2340      	movs	r3, #64	; 0x40
 8008cf4:	616b      	str	r3, [r5, #20]
 8008cf6:	2300      	movs	r3, #0
 8008cf8:	9309      	str	r3, [sp, #36]	; 0x24
 8008cfa:	2320      	movs	r3, #32
 8008cfc:	f88d 3029 	strb.w	r3, [sp, #41]	; 0x29
 8008d00:	2330      	movs	r3, #48	; 0x30
 8008d02:	f04f 0901 	mov.w	r9, #1
 8008d06:	f8cd 800c 	str.w	r8, [sp, #12]
 8008d0a:	f8df 81a4 	ldr.w	r8, [pc, #420]	; 8008eb0 <_svfiprintf_r+0x1ec>
 8008d0e:	f88d 302a 	strb.w	r3, [sp, #42]	; 0x2a
 8008d12:	4623      	mov	r3, r4
 8008d14:	469a      	mov	sl, r3
 8008d16:	f813 2b01 	ldrb.w	r2, [r3], #1
 8008d1a:	b10a      	cbz	r2, 8008d20 <_svfiprintf_r+0x5c>
 8008d1c:	2a25      	cmp	r2, #37	; 0x25
 8008d1e:	d1f9      	bne.n	8008d14 <_svfiprintf_r+0x50>
 8008d20:	ebba 0b04 	subs.w	fp, sl, r4
 8008d24:	d00b      	beq.n	8008d3e <_svfiprintf_r+0x7a>
 8008d26:	465b      	mov	r3, fp
 8008d28:	4622      	mov	r2, r4
 8008d2a:	4629      	mov	r1, r5
 8008d2c:	4638      	mov	r0, r7
 8008d2e:	f7ff ff6d 	bl	8008c0c <__ssputs_r>
 8008d32:	3001      	adds	r0, #1
 8008d34:	f000 80aa 	beq.w	8008e8c <_svfiprintf_r+0x1c8>
 8008d38:	9a09      	ldr	r2, [sp, #36]	; 0x24
 8008d3a:	445a      	add	r2, fp
 8008d3c:	9209      	str	r2, [sp, #36]	; 0x24
 8008d3e:	f89a 3000 	ldrb.w	r3, [sl]
 8008d42:	2b00      	cmp	r3, #0
 8008d44:	f000 80a2 	beq.w	8008e8c <_svfiprintf_r+0x1c8>
 8008d48:	2300      	movs	r3, #0
 8008d4a:	f04f 32ff 	mov.w	r2, #4294967295
 8008d4e:	e9cd 2305 	strd	r2, r3, [sp, #20]
 8008d52:	f10a 0a01 	add.w	sl, sl, #1
 8008d56:	9304      	str	r3, [sp, #16]
 8008d58:	9307      	str	r3, [sp, #28]
 8008d5a:	f88d 3053 	strb.w	r3, [sp, #83]	; 0x53
 8008d5e:	931a      	str	r3, [sp, #104]	; 0x68
 8008d60:	4654      	mov	r4, sl
 8008d62:	2205      	movs	r2, #5
 8008d64:	f814 1b01 	ldrb.w	r1, [r4], #1
 8008d68:	4851      	ldr	r0, [pc, #324]	; (8008eb0 <_svfiprintf_r+0x1ec>)
 8008d6a:	f000 fe4d 	bl	8009a08 <memchr>
 8008d6e:	9a04      	ldr	r2, [sp, #16]
 8008d70:	b9d8      	cbnz	r0, 8008daa <_svfiprintf_r+0xe6>
 8008d72:	06d0      	lsls	r0, r2, #27
 8008d74:	bf44      	itt	mi
 8008d76:	2320      	movmi	r3, #32
 8008d78:	f88d 3053 	strbmi.w	r3, [sp, #83]	; 0x53
 8008d7c:	0711      	lsls	r1, r2, #28
 8008d7e:	bf44      	itt	mi
 8008d80:	232b      	movmi	r3, #43	; 0x2b
 8008d82:	f88d 3053 	strbmi.w	r3, [sp, #83]	; 0x53
 8008d86:	f89a 3000 	ldrb.w	r3, [sl]
 8008d8a:	2b2a      	cmp	r3, #42	; 0x2a
 8008d8c:	d015      	beq.n	8008dba <_svfiprintf_r+0xf6>
 8008d8e:	4654      	mov	r4, sl
 8008d90:	2000      	movs	r0, #0
 8008d92:	f04f 0c0a 	mov.w	ip, #10
 8008d96:	9a07      	ldr	r2, [sp, #28]
 8008d98:	4621      	mov	r1, r4
 8008d9a:	f811 3b01 	ldrb.w	r3, [r1], #1
 8008d9e:	3b30      	subs	r3, #48	; 0x30
 8008da0:	2b09      	cmp	r3, #9
 8008da2:	d94e      	bls.n	8008e42 <_svfiprintf_r+0x17e>
 8008da4:	b1b0      	cbz	r0, 8008dd4 <_svfiprintf_r+0x110>
 8008da6:	9207      	str	r2, [sp, #28]
 8008da8:	e014      	b.n	8008dd4 <_svfiprintf_r+0x110>
 8008daa:	eba0 0308 	sub.w	r3, r0, r8
 8008dae:	fa09 f303 	lsl.w	r3, r9, r3
 8008db2:	4313      	orrs	r3, r2
 8008db4:	46a2      	mov	sl, r4
 8008db6:	9304      	str	r3, [sp, #16]
 8008db8:	e7d2      	b.n	8008d60 <_svfiprintf_r+0x9c>
 8008dba:	9b03      	ldr	r3, [sp, #12]
 8008dbc:	1d19      	adds	r1, r3, #4
 8008dbe:	681b      	ldr	r3, [r3, #0]
 8008dc0:	9103      	str	r1, [sp, #12]
 8008dc2:	2b00      	cmp	r3, #0
 8008dc4:	bfbb      	ittet	lt
 8008dc6:	425b      	neglt	r3, r3
 8008dc8:	f042 0202 	orrlt.w	r2, r2, #2
 8008dcc:	9307      	strge	r3, [sp, #28]
 8008dce:	9307      	strlt	r3, [sp, #28]
 8008dd0:	bfb8      	it	lt
 8008dd2:	9204      	strlt	r2, [sp, #16]
 8008dd4:	7823      	ldrb	r3, [r4, #0]
 8008dd6:	2b2e      	cmp	r3, #46	; 0x2e
 8008dd8:	d10c      	bne.n	8008df4 <_svfiprintf_r+0x130>
 8008dda:	7863      	ldrb	r3, [r4, #1]
 8008ddc:	2b2a      	cmp	r3, #42	; 0x2a
 8008dde:	d135      	bne.n	8008e4c <_svfiprintf_r+0x188>
 8008de0:	9b03      	ldr	r3, [sp, #12]
 8008de2:	3402      	adds	r4, #2
 8008de4:	1d1a      	adds	r2, r3, #4
 8008de6:	681b      	ldr	r3, [r3, #0]
 8008de8:	9203      	str	r2, [sp, #12]
 8008dea:	2b00      	cmp	r3, #0
 8008dec:	bfb8      	it	lt
 8008dee:	f04f 33ff 	movlt.w	r3, #4294967295
 8008df2:	9305      	str	r3, [sp, #20]
 8008df4:	f8df a0c8 	ldr.w	sl, [pc, #200]	; 8008ec0 <_svfiprintf_r+0x1fc>
 8008df8:	2203      	movs	r2, #3
 8008dfa:	4650      	mov	r0, sl
 8008dfc:	7821      	ldrb	r1, [r4, #0]
 8008dfe:	f000 fe03 	bl	8009a08 <memchr>
 8008e02:	b140      	cbz	r0, 8008e16 <_svfiprintf_r+0x152>
 8008e04:	2340      	movs	r3, #64	; 0x40
 8008e06:	eba0 000a 	sub.w	r0, r0, sl
 8008e0a:	fa03 f000 	lsl.w	r0, r3, r0
 8008e0e:	9b04      	ldr	r3, [sp, #16]
 8008e10:	3401      	adds	r4, #1
 8008e12:	4303      	orrs	r3, r0
 8008e14:	9304      	str	r3, [sp, #16]
 8008e16:	f814 1b01 	ldrb.w	r1, [r4], #1
 8008e1a:	2206      	movs	r2, #6
 8008e1c:	4825      	ldr	r0, [pc, #148]	; (8008eb4 <_svfiprintf_r+0x1f0>)
 8008e1e:	f88d 1028 	strb.w	r1, [sp, #40]	; 0x28
 8008e22:	f000 fdf1 	bl	8009a08 <memchr>
 8008e26:	2800      	cmp	r0, #0
 8008e28:	d038      	beq.n	8008e9c <_svfiprintf_r+0x1d8>
 8008e2a:	4b23      	ldr	r3, [pc, #140]	; (8008eb8 <_svfiprintf_r+0x1f4>)
 8008e2c:	bb1b      	cbnz	r3, 8008e76 <_svfiprintf_r+0x1b2>
 8008e2e:	9b03      	ldr	r3, [sp, #12]
 8008e30:	3307      	adds	r3, #7
 8008e32:	f023 0307 	bic.w	r3, r3, #7
 8008e36:	3308      	adds	r3, #8
 8008e38:	9303      	str	r3, [sp, #12]
 8008e3a:	9b09      	ldr	r3, [sp, #36]	; 0x24
 8008e3c:	4433      	add	r3, r6
 8008e3e:	9309      	str	r3, [sp, #36]	; 0x24
 8008e40:	e767      	b.n	8008d12 <_svfiprintf_r+0x4e>
 8008e42:	460c      	mov	r4, r1
 8008e44:	2001      	movs	r0, #1
 8008e46:	fb0c 3202 	mla	r2, ip, r2, r3
 8008e4a:	e7a5      	b.n	8008d98 <_svfiprintf_r+0xd4>
 8008e4c:	2300      	movs	r3, #0
 8008e4e:	f04f 0c0a 	mov.w	ip, #10
 8008e52:	4619      	mov	r1, r3
 8008e54:	3401      	adds	r4, #1
 8008e56:	9305      	str	r3, [sp, #20]
 8008e58:	4620      	mov	r0, r4
 8008e5a:	f810 2b01 	ldrb.w	r2, [r0], #1
 8008e5e:	3a30      	subs	r2, #48	; 0x30
 8008e60:	2a09      	cmp	r2, #9
 8008e62:	d903      	bls.n	8008e6c <_svfiprintf_r+0x1a8>
 8008e64:	2b00      	cmp	r3, #0
 8008e66:	d0c5      	beq.n	8008df4 <_svfiprintf_r+0x130>
 8008e68:	9105      	str	r1, [sp, #20]
 8008e6a:	e7c3      	b.n	8008df4 <_svfiprintf_r+0x130>
 8008e6c:	4604      	mov	r4, r0
 8008e6e:	2301      	movs	r3, #1
 8008e70:	fb0c 2101 	mla	r1, ip, r1, r2
 8008e74:	e7f0      	b.n	8008e58 <_svfiprintf_r+0x194>
 8008e76:	ab03      	add	r3, sp, #12
 8008e78:	9300      	str	r3, [sp, #0]
 8008e7a:	462a      	mov	r2, r5
 8008e7c:	4638      	mov	r0, r7
 8008e7e:	4b0f      	ldr	r3, [pc, #60]	; (8008ebc <_svfiprintf_r+0x1f8>)
 8008e80:	a904      	add	r1, sp, #16
 8008e82:	f3af 8000 	nop.w
 8008e86:	1c42      	adds	r2, r0, #1
 8008e88:	4606      	mov	r6, r0
 8008e8a:	d1d6      	bne.n	8008e3a <_svfiprintf_r+0x176>
 8008e8c:	89ab      	ldrh	r3, [r5, #12]
 8008e8e:	065b      	lsls	r3, r3, #25
 8008e90:	f53f af2c 	bmi.w	8008cec <_svfiprintf_r+0x28>
 8008e94:	9809      	ldr	r0, [sp, #36]	; 0x24
 8008e96:	b01d      	add	sp, #116	; 0x74
 8008e98:	e8bd 8ff0 	ldmia.w	sp!, {r4, r5, r6, r7, r8, r9, sl, fp, pc}
 8008e9c:	ab03      	add	r3, sp, #12
 8008e9e:	9300      	str	r3, [sp, #0]
 8008ea0:	462a      	mov	r2, r5
 8008ea2:	4638      	mov	r0, r7
 8008ea4:	4b05      	ldr	r3, [pc, #20]	; (8008ebc <_svfiprintf_r+0x1f8>)
 8008ea6:	a904      	add	r1, sp, #16
 8008ea8:	f000 f9d4 	bl	8009254 <_printf_i>
 8008eac:	e7eb      	b.n	8008e86 <_svfiprintf_r+0x1c2>
 8008eae:	bf00      	nop
 8008eb0:	0800a214 	.word	0x0800a214
 8008eb4:	0800a21e 	.word	0x0800a21e
 8008eb8:	00000000 	.word	0x00000000
 8008ebc:	08008c0d 	.word	0x08008c0d
 8008ec0:	0800a21a 	.word	0x0800a21a

08008ec4 <__sfputc_r>:
 8008ec4:	6893      	ldr	r3, [r2, #8]
 8008ec6:	b410      	push	{r4}
 8008ec8:	3b01      	subs	r3, #1
 8008eca:	2b00      	cmp	r3, #0
 8008ecc:	6093      	str	r3, [r2, #8]
 8008ece:	da07      	bge.n	8008ee0 <__sfputc_r+0x1c>
 8008ed0:	6994      	ldr	r4, [r2, #24]
 8008ed2:	42a3      	cmp	r3, r4
 8008ed4:	db01      	blt.n	8008eda <__sfputc_r+0x16>
 8008ed6:	290a      	cmp	r1, #10
 8008ed8:	d102      	bne.n	8008ee0 <__sfputc_r+0x1c>
 8008eda:	bc10      	pop	{r4}
 8008edc:	f000 bb3c 	b.w	8009558 <__swbuf_r>
 8008ee0:	6813      	ldr	r3, [r2, #0]
 8008ee2:	1c58      	adds	r0, r3, #1
 8008ee4:	6010      	str	r0, [r2, #0]
 8008ee6:	7019      	strb	r1, [r3, #0]
 8008ee8:	4608      	mov	r0, r1
 8008eea:	bc10      	pop	{r4}
 8008eec:	4770      	bx	lr

08008eee <__sfputs_r>:
 8008eee:	b5f8      	push	{r3, r4, r5, r6, r7, lr}
 8008ef0:	4606      	mov	r6, r0
 8008ef2:	460f      	mov	r7, r1
 8008ef4:	4614      	mov	r4, r2
 8008ef6:	18d5      	adds	r5, r2, r3
 8008ef8:	42ac      	cmp	r4, r5
 8008efa:	d101      	bne.n	8008f00 <__sfputs_r+0x12>
 8008efc:	2000      	movs	r0, #0
 8008efe:	e007      	b.n	8008f10 <__sfputs_r+0x22>
 8008f00:	463a      	mov	r2, r7
 8008f02:	4630      	mov	r0, r6
 8008f04:	f814 1b01 	ldrb.w	r1, [r4], #1
 8008f08:	f7ff ffdc 	bl	8008ec4 <__sfputc_r>
 8008f0c:	1c43      	adds	r3, r0, #1
 8008f0e:	d1f3      	bne.n	8008ef8 <__sfputs_r+0xa>
 8008f10:	bdf8      	pop	{r3, r4, r5, r6, r7, pc}
	...

08008f14 <_vfiprintf_r>:
 8008f14:	e92d 4ff0 	stmdb	sp!, {r4, r5, r6, r7, r8, r9, sl, fp, lr}
 8008f18:	460d      	mov	r5, r1
 8008f1a:	4614      	mov	r4, r2
 8008f1c:	4698      	mov	r8, r3
 8008f1e:	4606      	mov	r6, r0
 8008f20:	b09d      	sub	sp, #116	; 0x74
 8008f22:	b118      	cbz	r0, 8008f2c <_vfiprintf_r+0x18>
 8008f24:	6983      	ldr	r3, [r0, #24]
 8008f26:	b90b      	cbnz	r3, 8008f2c <_vfiprintf_r+0x18>
 8008f28:	f7fe fd76 	bl	8007a18 <__sinit>
 8008f2c:	4b89      	ldr	r3, [pc, #548]	; (8009154 <_vfiprintf_r+0x240>)
 8008f2e:	429d      	cmp	r5, r3
 8008f30:	d11b      	bne.n	8008f6a <_vfiprintf_r+0x56>
 8008f32:	6875      	ldr	r5, [r6, #4]
 8008f34:	6e6b      	ldr	r3, [r5, #100]	; 0x64
 8008f36:	07d9      	lsls	r1, r3, #31
 8008f38:	d405      	bmi.n	8008f46 <_vfiprintf_r+0x32>
 8008f3a:	89ab      	ldrh	r3, [r5, #12]
 8008f3c:	059a      	lsls	r2, r3, #22
 8008f3e:	d402      	bmi.n	8008f46 <_vfiprintf_r+0x32>
 8008f40:	6da8      	ldr	r0, [r5, #88]	; 0x58
 8008f42:	f7ff f96e 	bl	8008222 <__retarget_lock_acquire_recursive>
 8008f46:	89ab      	ldrh	r3, [r5, #12]
 8008f48:	071b      	lsls	r3, r3, #28
 8008f4a:	d501      	bpl.n	8008f50 <_vfiprintf_r+0x3c>
 8008f4c:	692b      	ldr	r3, [r5, #16]
 8008f4e:	b9eb      	cbnz	r3, 8008f8c <_vfiprintf_r+0x78>
 8008f50:	4629      	mov	r1, r5
 8008f52:	4630      	mov	r0, r6
 8008f54:	f000 fb72 	bl	800963c <__swsetup_r>
 8008f58:	b1c0      	cbz	r0, 8008f8c <_vfiprintf_r+0x78>
 8008f5a:	6e6b      	ldr	r3, [r5, #100]	; 0x64
 8008f5c:	07dc      	lsls	r4, r3, #31
 8008f5e:	d50e      	bpl.n	8008f7e <_vfiprintf_r+0x6a>
 8008f60:	f04f 30ff 	mov.w	r0, #4294967295
 8008f64:	b01d      	add	sp, #116	; 0x74
 8008f66:	e8bd 8ff0 	ldmia.w	sp!, {r4, r5, r6, r7, r8, r9, sl, fp, pc}
 8008f6a:	4b7b      	ldr	r3, [pc, #492]	; (8009158 <_vfiprintf_r+0x244>)
 8008f6c:	429d      	cmp	r5, r3
 8008f6e:	d101      	bne.n	8008f74 <_vfiprintf_r+0x60>
 8008f70:	68b5      	ldr	r5, [r6, #8]
 8008f72:	e7df      	b.n	8008f34 <_vfiprintf_r+0x20>
 8008f74:	4b79      	ldr	r3, [pc, #484]	; (800915c <_vfiprintf_r+0x248>)
 8008f76:	429d      	cmp	r5, r3
 8008f78:	bf08      	it	eq
 8008f7a:	68f5      	ldreq	r5, [r6, #12]
 8008f7c:	e7da      	b.n	8008f34 <_vfiprintf_r+0x20>
 8008f7e:	89ab      	ldrh	r3, [r5, #12]
 8008f80:	0598      	lsls	r0, r3, #22
 8008f82:	d4ed      	bmi.n	8008f60 <_vfiprintf_r+0x4c>
 8008f84:	6da8      	ldr	r0, [r5, #88]	; 0x58
 8008f86:	f7ff f94d 	bl	8008224 <__retarget_lock_release_recursive>
 8008f8a:	e7e9      	b.n	8008f60 <_vfiprintf_r+0x4c>
 8008f8c:	2300      	movs	r3, #0
 8008f8e:	9309      	str	r3, [sp, #36]	; 0x24
 8008f90:	2320      	movs	r3, #32
 8008f92:	f88d 3029 	strb.w	r3, [sp, #41]	; 0x29
 8008f96:	2330      	movs	r3, #48	; 0x30
 8008f98:	f04f 0901 	mov.w	r9, #1
 8008f9c:	f8cd 800c 	str.w	r8, [sp, #12]
 8008fa0:	f8df 81bc 	ldr.w	r8, [pc, #444]	; 8009160 <_vfiprintf_r+0x24c>
 8008fa4:	f88d 302a 	strb.w	r3, [sp, #42]	; 0x2a
 8008fa8:	4623      	mov	r3, r4
 8008faa:	469a      	mov	sl, r3
 8008fac:	f813 2b01 	ldrb.w	r2, [r3], #1
 8008fb0:	b10a      	cbz	r2, 8008fb6 <_vfiprintf_r+0xa2>
 8008fb2:	2a25      	cmp	r2, #37	; 0x25
 8008fb4:	d1f9      	bne.n	8008faa <_vfiprintf_r+0x96>
 8008fb6:	ebba 0b04 	subs.w	fp, sl, r4
 8008fba:	d00b      	beq.n	8008fd4 <_vfiprintf_r+0xc0>
 8008fbc:	465b      	mov	r3, fp
 8008fbe:	4622      	mov	r2, r4
 8008fc0:	4629      	mov	r1, r5
 8008fc2:	4630      	mov	r0, r6
 8008fc4:	f7ff ff93 	bl	8008eee <__sfputs_r>
 8008fc8:	3001      	adds	r0, #1
 8008fca:	f000 80aa 	beq.w	8009122 <_vfiprintf_r+0x20e>
 8008fce:	9a09      	ldr	r2, [sp, #36]	; 0x24
 8008fd0:	445a      	add	r2, fp
 8008fd2:	9209      	str	r2, [sp, #36]	; 0x24
 8008fd4:	f89a 3000 	ldrb.w	r3, [sl]
 8008fd8:	2b00      	cmp	r3, #0
 8008fda:	f000 80a2 	beq.w	8009122 <_vfiprintf_r+0x20e>
 8008fde:	2300      	movs	r3, #0
 8008fe0:	f04f 32ff 	mov.w	r2, #4294967295
 8008fe4:	e9cd 2305 	strd	r2, r3, [sp, #20]
 8008fe8:	f10a 0a01 	add.w	sl, sl, #1
 8008fec:	9304      	str	r3, [sp, #16]
 8008fee:	9307      	str	r3, [sp, #28]
 8008ff0:	f88d 3053 	strb.w	r3, [sp, #83]	; 0x53
 8008ff4:	931a      	str	r3, [sp, #104]	; 0x68
 8008ff6:	4654      	mov	r4, sl
 8008ff8:	2205      	movs	r2, #5
 8008ffa:	f814 1b01 	ldrb.w	r1, [r4], #1
 8008ffe:	4858      	ldr	r0, [pc, #352]	; (8009160 <_vfiprintf_r+0x24c>)
 8009000:	f000 fd02 	bl	8009a08 <memchr>
 8009004:	9a04      	ldr	r2, [sp, #16]
 8009006:	b9d8      	cbnz	r0, 8009040 <_vfiprintf_r+0x12c>
 8009008:	06d1      	lsls	r1, r2, #27
 800900a:	bf44      	itt	mi
 800900c:	2320      	movmi	r3, #32
 800900e:	f88d 3053 	strbmi.w	r3, [sp, #83]	; 0x53
 8009012:	0713      	lsls	r3, r2, #28
 8009014:	bf44      	itt	mi
 8009016:	232b      	movmi	r3, #43	; 0x2b
 8009018:	f88d 3053 	strbmi.w	r3, [sp, #83]	; 0x53
 800901c:	f89a 3000 	ldrb.w	r3, [sl]
 8009020:	2b2a      	cmp	r3, #42	; 0x2a
 8009022:	d015      	beq.n	8009050 <_vfiprintf_r+0x13c>
 8009024:	4654      	mov	r4, sl
 8009026:	2000      	movs	r0, #0
 8009028:	f04f 0c0a 	mov.w	ip, #10
 800902c:	9a07      	ldr	r2, [sp, #28]
 800902e:	4621      	mov	r1, r4
 8009030:	f811 3b01 	ldrb.w	r3, [r1], #1
 8009034:	3b30      	subs	r3, #48	; 0x30
 8009036:	2b09      	cmp	r3, #9
 8009038:	d94e      	bls.n	80090d8 <_vfiprintf_r+0x1c4>
 800903a:	b1b0      	cbz	r0, 800906a <_vfiprintf_r+0x156>
 800903c:	9207      	str	r2, [sp, #28]
 800903e:	e014      	b.n	800906a <_vfiprintf_r+0x156>
 8009040:	eba0 0308 	sub.w	r3, r0, r8
 8009044:	fa09 f303 	lsl.w	r3, r9, r3
 8009048:	4313      	orrs	r3, r2
 800904a:	46a2      	mov	sl, r4
 800904c:	9304      	str	r3, [sp, #16]
 800904e:	e7d2      	b.n	8008ff6 <_vfiprintf_r+0xe2>
 8009050:	9b03      	ldr	r3, [sp, #12]
 8009052:	1d19      	adds	r1, r3, #4
 8009054:	681b      	ldr	r3, [r3, #0]
 8009056:	9103      	str	r1, [sp, #12]
 8009058:	2b00      	cmp	r3, #0
 800905a:	bfbb      	ittet	lt
 800905c:	425b      	neglt	r3, r3
 800905e:	f042 0202 	orrlt.w	r2, r2, #2
 8009062:	9307      	strge	r3, [sp, #28]
 8009064:	9307      	strlt	r3, [sp, #28]
 8009066:	bfb8      	it	lt
 8009068:	9204      	strlt	r2, [sp, #16]
 800906a:	7823      	ldrb	r3, [r4, #0]
 800906c:	2b2e      	cmp	r3, #46	; 0x2e
 800906e:	d10c      	bne.n	800908a <_vfiprintf_r+0x176>
 8009070:	7863      	ldrb	r3, [r4, #1]
 8009072:	2b2a      	cmp	r3, #42	; 0x2a
 8009074:	d135      	bne.n	80090e2 <_vfiprintf_r+0x1ce>
 8009076:	9b03      	ldr	r3, [sp, #12]
 8009078:	3402      	adds	r4, #2
 800907a:	1d1a      	adds	r2, r3, #4
 800907c:	681b      	ldr	r3, [r3, #0]
 800907e:	9203      	str	r2, [sp, #12]
 8009080:	2b00      	cmp	r3, #0
 8009082:	bfb8      	it	lt
 8009084:	f04f 33ff 	movlt.w	r3, #4294967295
 8009088:	9305      	str	r3, [sp, #20]
 800908a:	f8df a0e4 	ldr.w	sl, [pc, #228]	; 8009170 <_vfiprintf_r+0x25c>
 800908e:	2203      	movs	r2, #3
 8009090:	4650      	mov	r0, sl
 8009092:	7821      	ldrb	r1, [r4, #0]
 8009094:	f000 fcb8 	bl	8009a08 <memchr>
 8009098:	b140      	cbz	r0, 80090ac <_vfiprintf_r+0x198>
 800909a:	2340      	movs	r3, #64	; 0x40
 800909c:	eba0 000a 	sub.w	r0, r0, sl
 80090a0:	fa03 f000 	lsl.w	r0, r3, r0
 80090a4:	9b04      	ldr	r3, [sp, #16]
 80090a6:	3401      	adds	r4, #1
 80090a8:	4303      	orrs	r3, r0
 80090aa:	9304      	str	r3, [sp, #16]
 80090ac:	f814 1b01 	ldrb.w	r1, [r4], #1
 80090b0:	2206      	movs	r2, #6
 80090b2:	482c      	ldr	r0, [pc, #176]	; (8009164 <_vfiprintf_r+0x250>)
 80090b4:	f88d 1028 	strb.w	r1, [sp, #40]	; 0x28
 80090b8:	f000 fca6 	bl	8009a08 <memchr>
 80090bc:	2800      	cmp	r0, #0
 80090be:	d03f      	beq.n	8009140 <_vfiprintf_r+0x22c>
 80090c0:	4b29      	ldr	r3, [pc, #164]	; (8009168 <_vfiprintf_r+0x254>)
 80090c2:	bb1b      	cbnz	r3, 800910c <_vfiprintf_r+0x1f8>
 80090c4:	9b03      	ldr	r3, [sp, #12]
 80090c6:	3307      	adds	r3, #7
 80090c8:	f023 0307 	bic.w	r3, r3, #7
 80090cc:	3308      	adds	r3, #8
 80090ce:	9303      	str	r3, [sp, #12]
 80090d0:	9b09      	ldr	r3, [sp, #36]	; 0x24
 80090d2:	443b      	add	r3, r7
 80090d4:	9309      	str	r3, [sp, #36]	; 0x24
 80090d6:	e767      	b.n	8008fa8 <_vfiprintf_r+0x94>
 80090d8:	460c      	mov	r4, r1
 80090da:	2001      	movs	r0, #1
 80090dc:	fb0c 3202 	mla	r2, ip, r2, r3
 80090e0:	e7a5      	b.n	800902e <_vfiprintf_r+0x11a>
 80090e2:	2300      	movs	r3, #0
 80090e4:	f04f 0c0a 	mov.w	ip, #10
 80090e8:	4619      	mov	r1, r3
 80090ea:	3401      	adds	r4, #1
 80090ec:	9305      	str	r3, [sp, #20]
 80090ee:	4620      	mov	r0, r4
 80090f0:	f810 2b01 	ldrb.w	r2, [r0], #1
 80090f4:	3a30      	subs	r2, #48	; 0x30
 80090f6:	2a09      	cmp	r2, #9
 80090f8:	d903      	bls.n	8009102 <_vfiprintf_r+0x1ee>
 80090fa:	2b00      	cmp	r3, #0
 80090fc:	d0c5      	beq.n	800908a <_vfiprintf_r+0x176>
 80090fe:	9105      	str	r1, [sp, #20]
 8009100:	e7c3      	b.n	800908a <_vfiprintf_r+0x176>
 8009102:	4604      	mov	r4, r0
 8009104:	2301      	movs	r3, #1
 8009106:	fb0c 2101 	mla	r1, ip, r1, r2
 800910a:	e7f0      	b.n	80090ee <_vfiprintf_r+0x1da>
 800910c:	ab03      	add	r3, sp, #12
 800910e:	9300      	str	r3, [sp, #0]
 8009110:	462a      	mov	r2, r5
 8009112:	4630      	mov	r0, r6
 8009114:	4b15      	ldr	r3, [pc, #84]	; (800916c <_vfiprintf_r+0x258>)
 8009116:	a904      	add	r1, sp, #16
 8009118:	f3af 8000 	nop.w
 800911c:	4607      	mov	r7, r0
 800911e:	1c78      	adds	r0, r7, #1
 8009120:	d1d6      	bne.n	80090d0 <_vfiprintf_r+0x1bc>
 8009122:	6e6b      	ldr	r3, [r5, #100]	; 0x64
 8009124:	07d9      	lsls	r1, r3, #31
 8009126:	d405      	bmi.n	8009134 <_vfiprintf_r+0x220>
 8009128:	89ab      	ldrh	r3, [r5, #12]
 800912a:	059a      	lsls	r2, r3, #22
 800912c:	d402      	bmi.n	8009134 <_vfiprintf_r+0x220>
 800912e:	6da8      	ldr	r0, [r5, #88]	; 0x58
 8009130:	f7ff f878 	bl	8008224 <__retarget_lock_release_recursive>
 8009134:	89ab      	ldrh	r3, [r5, #12]
 8009136:	065b      	lsls	r3, r3, #25
 8009138:	f53f af12 	bmi.w	8008f60 <_vfiprintf_r+0x4c>
 800913c:	9809      	ldr	r0, [sp, #36]	; 0x24
 800913e:	e711      	b.n	8008f64 <_vfiprintf_r+0x50>
 8009140:	ab03      	add	r3, sp, #12
 8009142:	9300      	str	r3, [sp, #0]
 8009144:	462a      	mov	r2, r5
 8009146:	4630      	mov	r0, r6
 8009148:	4b08      	ldr	r3, [pc, #32]	; (800916c <_vfiprintf_r+0x258>)
 800914a:	a904      	add	r1, sp, #16
 800914c:	f000 f882 	bl	8009254 <_printf_i>
 8009150:	e7e4      	b.n	800911c <_vfiprintf_r+0x208>
 8009152:	bf00      	nop
 8009154:	08009fcc 	.word	0x08009fcc
 8009158:	08009fec 	.word	0x08009fec
 800915c:	08009fac 	.word	0x08009fac
 8009160:	0800a214 	.word	0x0800a214
 8009164:	0800a21e 	.word	0x0800a21e
 8009168:	00000000 	.word	0x00000000
 800916c:	08008eef 	.word	0x08008eef
 8009170:	0800a21a 	.word	0x0800a21a

08009174 <_printf_common>:
 8009174:	e92d 47f0 	stmdb	sp!, {r4, r5, r6, r7, r8, r9, sl, lr}
 8009178:	4616      	mov	r6, r2
 800917a:	4699      	mov	r9, r3
 800917c:	688a      	ldr	r2, [r1, #8]
 800917e:	690b      	ldr	r3, [r1, #16]
 8009180:	4607      	mov	r7, r0
 8009182:	4293      	cmp	r3, r2
 8009184:	bfb8      	it	lt
 8009186:	4613      	movlt	r3, r2
 8009188:	6033      	str	r3, [r6, #0]
 800918a:	f891 2043 	ldrb.w	r2, [r1, #67]	; 0x43
 800918e:	460c      	mov	r4, r1
 8009190:	f8dd 8020 	ldr.w	r8, [sp, #32]
 8009194:	b10a      	cbz	r2, 800919a <_printf_common+0x26>
 8009196:	3301      	adds	r3, #1
 8009198:	6033      	str	r3, [r6, #0]
 800919a:	6823      	ldr	r3, [r4, #0]
 800919c:	0699      	lsls	r1, r3, #26
 800919e:	bf42      	ittt	mi
 80091a0:	6833      	ldrmi	r3, [r6, #0]
 80091a2:	3302      	addmi	r3, #2
 80091a4:	6033      	strmi	r3, [r6, #0]
 80091a6:	6825      	ldr	r5, [r4, #0]
 80091a8:	f015 0506 	ands.w	r5, r5, #6
 80091ac:	d106      	bne.n	80091bc <_printf_common+0x48>
 80091ae:	f104 0a19 	add.w	sl, r4, #25
 80091b2:	68e3      	ldr	r3, [r4, #12]
 80091b4:	6832      	ldr	r2, [r6, #0]
 80091b6:	1a9b      	subs	r3, r3, r2
 80091b8:	42ab      	cmp	r3, r5
 80091ba:	dc28      	bgt.n	800920e <_printf_common+0x9a>
 80091bc:	f894 2043 	ldrb.w	r2, [r4, #67]	; 0x43
 80091c0:	1e13      	subs	r3, r2, #0
 80091c2:	6822      	ldr	r2, [r4, #0]
 80091c4:	bf18      	it	ne
 80091c6:	2301      	movne	r3, #1
 80091c8:	0692      	lsls	r2, r2, #26
 80091ca:	d42d      	bmi.n	8009228 <_printf_common+0xb4>
 80091cc:	4649      	mov	r1, r9
 80091ce:	4638      	mov	r0, r7
 80091d0:	f104 0243 	add.w	r2, r4, #67	; 0x43
 80091d4:	47c0      	blx	r8
 80091d6:	3001      	adds	r0, #1
 80091d8:	d020      	beq.n	800921c <_printf_common+0xa8>
 80091da:	6823      	ldr	r3, [r4, #0]
 80091dc:	68e5      	ldr	r5, [r4, #12]
 80091de:	f003 0306 	and.w	r3, r3, #6
 80091e2:	2b04      	cmp	r3, #4
 80091e4:	bf18      	it	ne
 80091e6:	2500      	movne	r5, #0
 80091e8:	6832      	ldr	r2, [r6, #0]
 80091ea:	f04f 0600 	mov.w	r6, #0
 80091ee:	68a3      	ldr	r3, [r4, #8]
 80091f0:	bf08      	it	eq
 80091f2:	1aad      	subeq	r5, r5, r2
 80091f4:	6922      	ldr	r2, [r4, #16]
 80091f6:	bf08      	it	eq
 80091f8:	ea25 75e5 	biceq.w	r5, r5, r5, asr #31
 80091fc:	4293      	cmp	r3, r2
 80091fe:	bfc4      	itt	gt
 8009200:	1a9b      	subgt	r3, r3, r2
 8009202:	18ed      	addgt	r5, r5, r3
 8009204:	341a      	adds	r4, #26
 8009206:	42b5      	cmp	r5, r6
 8009208:	d11a      	bne.n	8009240 <_printf_common+0xcc>
 800920a:	2000      	movs	r0, #0
 800920c:	e008      	b.n	8009220 <_printf_common+0xac>
 800920e:	2301      	movs	r3, #1
 8009210:	4652      	mov	r2, sl
 8009212:	4649      	mov	r1, r9
 8009214:	4638      	mov	r0, r7
 8009216:	47c0      	blx	r8
 8009218:	3001      	adds	r0, #1
 800921a:	d103      	bne.n	8009224 <_printf_common+0xb0>
 800921c:	f04f 30ff 	mov.w	r0, #4294967295
 8009220:	e8bd 87f0 	ldmia.w	sp!, {r4, r5, r6, r7, r8, r9, sl, pc}
 8009224:	3501      	adds	r5, #1
 8009226:	e7c4      	b.n	80091b2 <_printf_common+0x3e>
 8009228:	2030      	movs	r0, #48	; 0x30
 800922a:	18e1      	adds	r1, r4, r3
 800922c:	f881 0043 	strb.w	r0, [r1, #67]	; 0x43
 8009230:	1c5a      	adds	r2, r3, #1
 8009232:	f894 1045 	ldrb.w	r1, [r4, #69]	; 0x45
 8009236:	4422      	add	r2, r4
 8009238:	3302      	adds	r3, #2
 800923a:	f882 1043 	strb.w	r1, [r2, #67]	; 0x43
 800923e:	e7c5      	b.n	80091cc <_printf_common+0x58>
 8009240:	2301      	movs	r3, #1
 8009242:	4622      	mov	r2, r4
 8009244:	4649      	mov	r1, r9
 8009246:	4638      	mov	r0, r7
 8009248:	47c0      	blx	r8
 800924a:	3001      	adds	r0, #1
 800924c:	d0e6      	beq.n	800921c <_printf_common+0xa8>
 800924e:	3601      	adds	r6, #1
 8009250:	e7d9      	b.n	8009206 <_printf_common+0x92>
	...

08009254 <_printf_i>:
 8009254:	e92d 47ff 	stmdb	sp!, {r0, r1, r2, r3, r4, r5, r6, r7, r8, r9, sl, lr}
 8009258:	460c      	mov	r4, r1
 800925a:	7e27      	ldrb	r7, [r4, #24]
 800925c:	4691      	mov	r9, r2
 800925e:	2f78      	cmp	r7, #120	; 0x78
 8009260:	4680      	mov	r8, r0
 8009262:	469a      	mov	sl, r3
 8009264:	990c      	ldr	r1, [sp, #48]	; 0x30
 8009266:	f104 0243 	add.w	r2, r4, #67	; 0x43
 800926a:	d807      	bhi.n	800927c <_printf_i+0x28>
 800926c:	2f62      	cmp	r7, #98	; 0x62
 800926e:	d80a      	bhi.n	8009286 <_printf_i+0x32>
 8009270:	2f00      	cmp	r7, #0
 8009272:	f000 80d9 	beq.w	8009428 <_printf_i+0x1d4>
 8009276:	2f58      	cmp	r7, #88	; 0x58
 8009278:	f000 80a4 	beq.w	80093c4 <_printf_i+0x170>
 800927c:	f104 0642 	add.w	r6, r4, #66	; 0x42
 8009280:	f884 7042 	strb.w	r7, [r4, #66]	; 0x42
 8009284:	e03a      	b.n	80092fc <_printf_i+0xa8>
 8009286:	f1a7 0363 	sub.w	r3, r7, #99	; 0x63
 800928a:	2b15      	cmp	r3, #21
 800928c:	d8f6      	bhi.n	800927c <_printf_i+0x28>
 800928e:	a001      	add	r0, pc, #4	; (adr r0, 8009294 <_printf_i+0x40>)
 8009290:	f850 f023 	ldr.w	pc, [r0, r3, lsl #2]
 8009294:	080092ed 	.word	0x080092ed
 8009298:	08009301 	.word	0x08009301
 800929c:	0800927d 	.word	0x0800927d
 80092a0:	0800927d 	.word	0x0800927d
 80092a4:	0800927d 	.word	0x0800927d
 80092a8:	0800927d 	.word	0x0800927d
 80092ac:	08009301 	.word	0x08009301
 80092b0:	0800927d 	.word	0x0800927d
 80092b4:	0800927d 	.word	0x0800927d
 80092b8:	0800927d 	.word	0x0800927d
 80092bc:	0800927d 	.word	0x0800927d
 80092c0:	0800940f 	.word	0x0800940f
 80092c4:	08009331 	.word	0x08009331
 80092c8:	080093f1 	.word	0x080093f1
 80092cc:	0800927d 	.word	0x0800927d
 80092d0:	0800927d 	.word	0x0800927d
 80092d4:	08009431 	.word	0x08009431
 80092d8:	0800927d 	.word	0x0800927d
 80092dc:	08009331 	.word	0x08009331
 80092e0:	0800927d 	.word	0x0800927d
 80092e4:	0800927d 	.word	0x0800927d
 80092e8:	080093f9 	.word	0x080093f9
 80092ec:	680b      	ldr	r3, [r1, #0]
 80092ee:	f104 0642 	add.w	r6, r4, #66	; 0x42
 80092f2:	1d1a      	adds	r2, r3, #4
 80092f4:	681b      	ldr	r3, [r3, #0]
 80092f6:	600a      	str	r2, [r1, #0]
 80092f8:	f884 3042 	strb.w	r3, [r4, #66]	; 0x42
 80092fc:	2301      	movs	r3, #1
 80092fe:	e0a4      	b.n	800944a <_printf_i+0x1f6>
 8009300:	6825      	ldr	r5, [r4, #0]
 8009302:	6808      	ldr	r0, [r1, #0]
 8009304:	062e      	lsls	r6, r5, #24
 8009306:	f100 0304 	add.w	r3, r0, #4
 800930a:	d50a      	bpl.n	8009322 <_printf_i+0xce>
 800930c:	6805      	ldr	r5, [r0, #0]
 800930e:	600b      	str	r3, [r1, #0]
 8009310:	2d00      	cmp	r5, #0
 8009312:	da03      	bge.n	800931c <_printf_i+0xc8>
 8009314:	232d      	movs	r3, #45	; 0x2d
 8009316:	426d      	negs	r5, r5
 8009318:	f884 3043 	strb.w	r3, [r4, #67]	; 0x43
 800931c:	230a      	movs	r3, #10
 800931e:	485e      	ldr	r0, [pc, #376]	; (8009498 <_printf_i+0x244>)
 8009320:	e019      	b.n	8009356 <_printf_i+0x102>
 8009322:	f015 0f40 	tst.w	r5, #64	; 0x40
 8009326:	6805      	ldr	r5, [r0, #0]
 8009328:	600b      	str	r3, [r1, #0]
 800932a:	bf18      	it	ne
 800932c:	b22d      	sxthne	r5, r5
 800932e:	e7ef      	b.n	8009310 <_printf_i+0xbc>
 8009330:	680b      	ldr	r3, [r1, #0]
 8009332:	6825      	ldr	r5, [r4, #0]
 8009334:	1d18      	adds	r0, r3, #4
 8009336:	6008      	str	r0, [r1, #0]
 8009338:	0628      	lsls	r0, r5, #24
 800933a:	d501      	bpl.n	8009340 <_printf_i+0xec>
 800933c:	681d      	ldr	r5, [r3, #0]
 800933e:	e002      	b.n	8009346 <_printf_i+0xf2>
 8009340:	0669      	lsls	r1, r5, #25
 8009342:	d5fb      	bpl.n	800933c <_printf_i+0xe8>
 8009344:	881d      	ldrh	r5, [r3, #0]
 8009346:	2f6f      	cmp	r7, #111	; 0x6f
 8009348:	bf0c      	ite	eq
 800934a:	2308      	moveq	r3, #8
 800934c:	230a      	movne	r3, #10
 800934e:	4852      	ldr	r0, [pc, #328]	; (8009498 <_printf_i+0x244>)
 8009350:	2100      	movs	r1, #0
 8009352:	f884 1043 	strb.w	r1, [r4, #67]	; 0x43
 8009356:	6866      	ldr	r6, [r4, #4]
 8009358:	2e00      	cmp	r6, #0
 800935a:	bfa8      	it	ge
 800935c:	6821      	ldrge	r1, [r4, #0]
 800935e:	60a6      	str	r6, [r4, #8]
 8009360:	bfa4      	itt	ge
 8009362:	f021 0104 	bicge.w	r1, r1, #4
 8009366:	6021      	strge	r1, [r4, #0]
 8009368:	b90d      	cbnz	r5, 800936e <_printf_i+0x11a>
 800936a:	2e00      	cmp	r6, #0
 800936c:	d04d      	beq.n	800940a <_printf_i+0x1b6>
 800936e:	4616      	mov	r6, r2
 8009370:	fbb5 f1f3 	udiv	r1, r5, r3
 8009374:	fb03 5711 	mls	r7, r3, r1, r5
 8009378:	5dc7      	ldrb	r7, [r0, r7]
 800937a:	f806 7d01 	strb.w	r7, [r6, #-1]!
 800937e:	462f      	mov	r7, r5
 8009380:	42bb      	cmp	r3, r7
 8009382:	460d      	mov	r5, r1
 8009384:	d9f4      	bls.n	8009370 <_printf_i+0x11c>
 8009386:	2b08      	cmp	r3, #8
 8009388:	d10b      	bne.n	80093a2 <_printf_i+0x14e>
 800938a:	6823      	ldr	r3, [r4, #0]
 800938c:	07df      	lsls	r7, r3, #31
 800938e:	d508      	bpl.n	80093a2 <_printf_i+0x14e>
 8009390:	6923      	ldr	r3, [r4, #16]
 8009392:	6861      	ldr	r1, [r4, #4]
 8009394:	4299      	cmp	r1, r3
 8009396:	bfde      	ittt	le
 8009398:	2330      	movle	r3, #48	; 0x30
 800939a:	f806 3c01 	strble.w	r3, [r6, #-1]
 800939e:	f106 36ff 	addle.w	r6, r6, #4294967295
 80093a2:	1b92      	subs	r2, r2, r6
 80093a4:	6122      	str	r2, [r4, #16]
 80093a6:	464b      	mov	r3, r9
 80093a8:	4621      	mov	r1, r4
 80093aa:	4640      	mov	r0, r8
 80093ac:	f8cd a000 	str.w	sl, [sp]
 80093b0:	aa03      	add	r2, sp, #12
 80093b2:	f7ff fedf 	bl	8009174 <_printf_common>
 80093b6:	3001      	adds	r0, #1
 80093b8:	d14c      	bne.n	8009454 <_printf_i+0x200>
 80093ba:	f04f 30ff 	mov.w	r0, #4294967295
 80093be:	b004      	add	sp, #16
 80093c0:	e8bd 87f0 	ldmia.w	sp!, {r4, r5, r6, r7, r8, r9, sl, pc}
 80093c4:	4834      	ldr	r0, [pc, #208]	; (8009498 <_printf_i+0x244>)
 80093c6:	f884 7045 	strb.w	r7, [r4, #69]	; 0x45
 80093ca:	680e      	ldr	r6, [r1, #0]
 80093cc:	6823      	ldr	r3, [r4, #0]
 80093ce:	f856 5b04 	ldr.w	r5, [r6], #4
 80093d2:	061f      	lsls	r7, r3, #24
 80093d4:	600e      	str	r6, [r1, #0]
 80093d6:	d514      	bpl.n	8009402 <_printf_i+0x1ae>
 80093d8:	07d9      	lsls	r1, r3, #31
 80093da:	bf44      	itt	mi
 80093dc:	f043 0320 	orrmi.w	r3, r3, #32
 80093e0:	6023      	strmi	r3, [r4, #0]
 80093e2:	b91d      	cbnz	r5, 80093ec <_printf_i+0x198>
 80093e4:	6823      	ldr	r3, [r4, #0]
 80093e6:	f023 0320 	bic.w	r3, r3, #32
 80093ea:	6023      	str	r3, [r4, #0]
 80093ec:	2310      	movs	r3, #16
 80093ee:	e7af      	b.n	8009350 <_printf_i+0xfc>
 80093f0:	6823      	ldr	r3, [r4, #0]
 80093f2:	f043 0320 	orr.w	r3, r3, #32
 80093f6:	6023      	str	r3, [r4, #0]
 80093f8:	2378      	movs	r3, #120	; 0x78
 80093fa:	4828      	ldr	r0, [pc, #160]	; (800949c <_printf_i+0x248>)
 80093fc:	f884 3045 	strb.w	r3, [r4, #69]	; 0x45
 8009400:	e7e3      	b.n	80093ca <_printf_i+0x176>
 8009402:	065e      	lsls	r6, r3, #25
 8009404:	bf48      	it	mi
 8009406:	b2ad      	uxthmi	r5, r5
 8009408:	e7e6      	b.n	80093d8 <_printf_i+0x184>
 800940a:	4616      	mov	r6, r2
 800940c:	e7bb      	b.n	8009386 <_printf_i+0x132>
 800940e:	680b      	ldr	r3, [r1, #0]
 8009410:	6826      	ldr	r6, [r4, #0]
 8009412:	1d1d      	adds	r5, r3, #4
 8009414:	6960      	ldr	r0, [r4, #20]
 8009416:	600d      	str	r5, [r1, #0]
 8009418:	0635      	lsls	r5, r6, #24
 800941a:	681b      	ldr	r3, [r3, #0]
 800941c:	d501      	bpl.n	8009422 <_printf_i+0x1ce>
 800941e:	6018      	str	r0, [r3, #0]
 8009420:	e002      	b.n	8009428 <_printf_i+0x1d4>
 8009422:	0671      	lsls	r1, r6, #25
 8009424:	d5fb      	bpl.n	800941e <_printf_i+0x1ca>
 8009426:	8018      	strh	r0, [r3, #0]
 8009428:	2300      	movs	r3, #0
 800942a:	4616      	mov	r6, r2
 800942c:	6123      	str	r3, [r4, #16]
 800942e:	e7ba      	b.n	80093a6 <_printf_i+0x152>
 8009430:	680b      	ldr	r3, [r1, #0]
 8009432:	1d1a      	adds	r2, r3, #4
 8009434:	600a      	str	r2, [r1, #0]
 8009436:	681e      	ldr	r6, [r3, #0]
 8009438:	2100      	movs	r1, #0
 800943a:	4630      	mov	r0, r6
 800943c:	6862      	ldr	r2, [r4, #4]
 800943e:	f000 fae3 	bl	8009a08 <memchr>
 8009442:	b108      	cbz	r0, 8009448 <_printf_i+0x1f4>
 8009444:	1b80      	subs	r0, r0, r6
 8009446:	6060      	str	r0, [r4, #4]
 8009448:	6863      	ldr	r3, [r4, #4]
 800944a:	6123      	str	r3, [r4, #16]
 800944c:	2300      	movs	r3, #0
 800944e:	f884 3043 	strb.w	r3, [r4, #67]	; 0x43
 8009452:	e7a8      	b.n	80093a6 <_printf_i+0x152>
 8009454:	4632      	mov	r2, r6
 8009456:	4649      	mov	r1, r9
 8009458:	4640      	mov	r0, r8
 800945a:	6923      	ldr	r3, [r4, #16]
 800945c:	47d0      	blx	sl
 800945e:	3001      	adds	r0, #1
 8009460:	d0ab      	beq.n	80093ba <_printf_i+0x166>
 8009462:	6823      	ldr	r3, [r4, #0]
 8009464:	079b      	lsls	r3, r3, #30
 8009466:	d413      	bmi.n	8009490 <_printf_i+0x23c>
 8009468:	68e0      	ldr	r0, [r4, #12]
 800946a:	9b03      	ldr	r3, [sp, #12]
 800946c:	4298      	cmp	r0, r3
 800946e:	bfb8      	it	lt
 8009470:	4618      	movlt	r0, r3
 8009472:	e7a4      	b.n	80093be <_printf_i+0x16a>
 8009474:	2301      	movs	r3, #1
 8009476:	4632      	mov	r2, r6
 8009478:	4649      	mov	r1, r9
 800947a:	4640      	mov	r0, r8
 800947c:	47d0      	blx	sl
 800947e:	3001      	adds	r0, #1
 8009480:	d09b      	beq.n	80093ba <_printf_i+0x166>
 8009482:	3501      	adds	r5, #1
 8009484:	68e3      	ldr	r3, [r4, #12]
 8009486:	9903      	ldr	r1, [sp, #12]
 8009488:	1a5b      	subs	r3, r3, r1
 800948a:	42ab      	cmp	r3, r5
 800948c:	dcf2      	bgt.n	8009474 <_printf_i+0x220>
 800948e:	e7eb      	b.n	8009468 <_printf_i+0x214>
 8009490:	2500      	movs	r5, #0
 8009492:	f104 0619 	add.w	r6, r4, #25
 8009496:	e7f5      	b.n	8009484 <_printf_i+0x230>
 8009498:	0800a225 	.word	0x0800a225
 800949c:	0800a236 	.word	0x0800a236

080094a0 <nan>:
 80094a0:	2000      	movs	r0, #0
 80094a2:	4901      	ldr	r1, [pc, #4]	; (80094a8 <nan+0x8>)
 80094a4:	4770      	bx	lr
 80094a6:	bf00      	nop
 80094a8:	7ff80000 	.word	0x7ff80000

080094ac <__sread>:
 80094ac:	b510      	push	{r4, lr}
 80094ae:	460c      	mov	r4, r1
 80094b0:	f9b1 100e 	ldrsh.w	r1, [r1, #14]
 80094b4:	f000 faf6 	bl	8009aa4 <_read_r>
 80094b8:	2800      	cmp	r0, #0
 80094ba:	bfab      	itete	ge
 80094bc:	6d63      	ldrge	r3, [r4, #84]	; 0x54
 80094be:	89a3      	ldrhlt	r3, [r4, #12]
 80094c0:	181b      	addge	r3, r3, r0
 80094c2:	f423 5380 	biclt.w	r3, r3, #4096	; 0x1000
 80094c6:	bfac      	ite	ge
 80094c8:	6563      	strge	r3, [r4, #84]	; 0x54
 80094ca:	81a3      	strhlt	r3, [r4, #12]
 80094cc:	bd10      	pop	{r4, pc}

080094ce <__swrite>:
 80094ce:	e92d 41f0 	stmdb	sp!, {r4, r5, r6, r7, r8, lr}
 80094d2:	461f      	mov	r7, r3
 80094d4:	898b      	ldrh	r3, [r1, #12]
 80094d6:	4605      	mov	r5, r0
 80094d8:	05db      	lsls	r3, r3, #23
 80094da:	460c      	mov	r4, r1
 80094dc:	4616      	mov	r6, r2
 80094de:	d505      	bpl.n	80094ec <__swrite+0x1e>
 80094e0:	2302      	movs	r3, #2
 80094e2:	2200      	movs	r2, #0
 80094e4:	f9b1 100e 	ldrsh.w	r1, [r1, #14]
 80094e8:	f000 fa18 	bl	800991c <_lseek_r>
 80094ec:	89a3      	ldrh	r3, [r4, #12]
 80094ee:	4632      	mov	r2, r6
 80094f0:	f423 5380 	bic.w	r3, r3, #4096	; 0x1000
 80094f4:	81a3      	strh	r3, [r4, #12]
 80094f6:	4628      	mov	r0, r5
 80094f8:	463b      	mov	r3, r7
 80094fa:	f9b4 100e 	ldrsh.w	r1, [r4, #14]
 80094fe:	e8bd 41f0 	ldmia.w	sp!, {r4, r5, r6, r7, r8, lr}
 8009502:	f000 b889 	b.w	8009618 <_write_r>

08009506 <__sseek>:
 8009506:	b510      	push	{r4, lr}
 8009508:	460c      	mov	r4, r1
 800950a:	f9b1 100e 	ldrsh.w	r1, [r1, #14]
 800950e:	f000 fa05 	bl	800991c <_lseek_r>
 8009512:	1c43      	adds	r3, r0, #1
 8009514:	89a3      	ldrh	r3, [r4, #12]
 8009516:	bf15      	itete	ne
 8009518:	6560      	strne	r0, [r4, #84]	; 0x54
 800951a:	f423 5380 	biceq.w	r3, r3, #4096	; 0x1000
 800951e:	f443 5380 	orrne.w	r3, r3, #4096	; 0x1000
 8009522:	81a3      	strheq	r3, [r4, #12]
 8009524:	bf18      	it	ne
 8009526:	81a3      	strhne	r3, [r4, #12]
 8009528:	bd10      	pop	{r4, pc}

0800952a <__sclose>:
 800952a:	f9b1 100e 	ldrsh.w	r1, [r1, #14]
 800952e:	f000 b911 	b.w	8009754 <_close_r>

08009532 <strncmp>:
 8009532:	b510      	push	{r4, lr}
 8009534:	b16a      	cbz	r2, 8009552 <strncmp+0x20>
 8009536:	3901      	subs	r1, #1
 8009538:	1884      	adds	r4, r0, r2
 800953a:	f810 3b01 	ldrb.w	r3, [r0], #1
 800953e:	f811 2f01 	ldrb.w	r2, [r1, #1]!
 8009542:	4293      	cmp	r3, r2
 8009544:	d103      	bne.n	800954e <strncmp+0x1c>
 8009546:	42a0      	cmp	r0, r4
 8009548:	d001      	beq.n	800954e <strncmp+0x1c>
 800954a:	2b00      	cmp	r3, #0
 800954c:	d1f5      	bne.n	800953a <strncmp+0x8>
 800954e:	1a98      	subs	r0, r3, r2
 8009550:	bd10      	pop	{r4, pc}
 8009552:	4610      	mov	r0, r2
 8009554:	e7fc      	b.n	8009550 <strncmp+0x1e>
	...

08009558 <__swbuf_r>:
 8009558:	b5f8      	push	{r3, r4, r5, r6, r7, lr}
 800955a:	460e      	mov	r6, r1
 800955c:	4614      	mov	r4, r2
 800955e:	4605      	mov	r5, r0
 8009560:	b118      	cbz	r0, 800956a <__swbuf_r+0x12>
 8009562:	6983      	ldr	r3, [r0, #24]
 8009564:	b90b      	cbnz	r3, 800956a <__swbuf_r+0x12>
 8009566:	f7fe fa57 	bl	8007a18 <__sinit>
 800956a:	4b21      	ldr	r3, [pc, #132]	; (80095f0 <__swbuf_r+0x98>)
 800956c:	429c      	cmp	r4, r3
 800956e:	d12b      	bne.n	80095c8 <__swbuf_r+0x70>
 8009570:	686c      	ldr	r4, [r5, #4]
 8009572:	69a3      	ldr	r3, [r4, #24]
 8009574:	60a3      	str	r3, [r4, #8]
 8009576:	89a3      	ldrh	r3, [r4, #12]
 8009578:	071a      	lsls	r2, r3, #28
 800957a:	d52f      	bpl.n	80095dc <__swbuf_r+0x84>
 800957c:	6923      	ldr	r3, [r4, #16]
 800957e:	b36b      	cbz	r3, 80095dc <__swbuf_r+0x84>
 8009580:	6923      	ldr	r3, [r4, #16]
 8009582:	6820      	ldr	r0, [r4, #0]
 8009584:	b2f6      	uxtb	r6, r6
 8009586:	1ac0      	subs	r0, r0, r3
 8009588:	6963      	ldr	r3, [r4, #20]
 800958a:	4637      	mov	r7, r6
 800958c:	4283      	cmp	r3, r0
 800958e:	dc04      	bgt.n	800959a <__swbuf_r+0x42>
 8009590:	4621      	mov	r1, r4
 8009592:	4628      	mov	r0, r5
 8009594:	f000 f974 	bl	8009880 <_fflush_r>
 8009598:	bb30      	cbnz	r0, 80095e8 <__swbuf_r+0x90>
 800959a:	68a3      	ldr	r3, [r4, #8]
 800959c:	3001      	adds	r0, #1
 800959e:	3b01      	subs	r3, #1
 80095a0:	60a3      	str	r3, [r4, #8]
 80095a2:	6823      	ldr	r3, [r4, #0]
 80095a4:	1c5a      	adds	r2, r3, #1
 80095a6:	6022      	str	r2, [r4, #0]
 80095a8:	701e      	strb	r6, [r3, #0]
 80095aa:	6963      	ldr	r3, [r4, #20]
 80095ac:	4283      	cmp	r3, r0
 80095ae:	d004      	beq.n	80095ba <__swbuf_r+0x62>
 80095b0:	89a3      	ldrh	r3, [r4, #12]
 80095b2:	07db      	lsls	r3, r3, #31
 80095b4:	d506      	bpl.n	80095c4 <__swbuf_r+0x6c>
 80095b6:	2e0a      	cmp	r6, #10
 80095b8:	d104      	bne.n	80095c4 <__swbuf_r+0x6c>
 80095ba:	4621      	mov	r1, r4
 80095bc:	4628      	mov	r0, r5
 80095be:	f000 f95f 	bl	8009880 <_fflush_r>
 80095c2:	b988      	cbnz	r0, 80095e8 <__swbuf_r+0x90>
 80095c4:	4638      	mov	r0, r7
 80095c6:	bdf8      	pop	{r3, r4, r5, r6, r7, pc}
 80095c8:	4b0a      	ldr	r3, [pc, #40]	; (80095f4 <__swbuf_r+0x9c>)
 80095ca:	429c      	cmp	r4, r3
 80095cc:	d101      	bne.n	80095d2 <__swbuf_r+0x7a>
 80095ce:	68ac      	ldr	r4, [r5, #8]
 80095d0:	e7cf      	b.n	8009572 <__swbuf_r+0x1a>
 80095d2:	4b09      	ldr	r3, [pc, #36]	; (80095f8 <__swbuf_r+0xa0>)
 80095d4:	429c      	cmp	r4, r3
 80095d6:	bf08      	it	eq
 80095d8:	68ec      	ldreq	r4, [r5, #12]
 80095da:	e7ca      	b.n	8009572 <__swbuf_r+0x1a>
 80095dc:	4621      	mov	r1, r4
 80095de:	4628      	mov	r0, r5
 80095e0:	f000 f82c 	bl	800963c <__swsetup_r>
 80095e4:	2800      	cmp	r0, #0
 80095e6:	d0cb      	beq.n	8009580 <__swbuf_r+0x28>
 80095e8:	f04f 37ff 	mov.w	r7, #4294967295
 80095ec:	e7ea      	b.n	80095c4 <__swbuf_r+0x6c>
 80095ee:	bf00      	nop
 80095f0:	08009fcc 	.word	0x08009fcc
 80095f4:	08009fec 	.word	0x08009fec
 80095f8:	08009fac 	.word	0x08009fac

080095fc <__ascii_wctomb>:
 80095fc:	4603      	mov	r3, r0
 80095fe:	4608      	mov	r0, r1
 8009600:	b141      	cbz	r1, 8009614 <__ascii_wctomb+0x18>
 8009602:	2aff      	cmp	r2, #255	; 0xff
 8009604:	d904      	bls.n	8009610 <__ascii_wctomb+0x14>
 8009606:	228a      	movs	r2, #138	; 0x8a
 8009608:	f04f 30ff 	mov.w	r0, #4294967295
 800960c:	601a      	str	r2, [r3, #0]
 800960e:	4770      	bx	lr
 8009610:	2001      	movs	r0, #1
 8009612:	700a      	strb	r2, [r1, #0]
 8009614:	4770      	bx	lr
	...

08009618 <_write_r>:
 8009618:	b538      	push	{r3, r4, r5, lr}
 800961a:	4604      	mov	r4, r0
 800961c:	4608      	mov	r0, r1
 800961e:	4611      	mov	r1, r2
 8009620:	2200      	movs	r2, #0
 8009622:	4d05      	ldr	r5, [pc, #20]	; (8009638 <_write_r+0x20>)
 8009624:	602a      	str	r2, [r5, #0]
 8009626:	461a      	mov	r2, r3
 8009628:	f7f8 fc7c 	bl	8001f24 <_write>
 800962c:	1c43      	adds	r3, r0, #1
 800962e:	d102      	bne.n	8009636 <_write_r+0x1e>
 8009630:	682b      	ldr	r3, [r5, #0]
 8009632:	b103      	cbz	r3, 8009636 <_write_r+0x1e>
 8009634:	6023      	str	r3, [r4, #0]
 8009636:	bd38      	pop	{r3, r4, r5, pc}
 8009638:	20000bcc 	.word	0x20000bcc

0800963c <__swsetup_r>:
 800963c:	4b32      	ldr	r3, [pc, #200]	; (8009708 <__swsetup_r+0xcc>)
 800963e:	b570      	push	{r4, r5, r6, lr}
 8009640:	681d      	ldr	r5, [r3, #0]
 8009642:	4606      	mov	r6, r0
 8009644:	460c      	mov	r4, r1
 8009646:	b125      	cbz	r5, 8009652 <__swsetup_r+0x16>
 8009648:	69ab      	ldr	r3, [r5, #24]
 800964a:	b913      	cbnz	r3, 8009652 <__swsetup_r+0x16>
 800964c:	4628      	mov	r0, r5
 800964e:	f7fe f9e3 	bl	8007a18 <__sinit>
 8009652:	4b2e      	ldr	r3, [pc, #184]	; (800970c <__swsetup_r+0xd0>)
 8009654:	429c      	cmp	r4, r3
 8009656:	d10f      	bne.n	8009678 <__swsetup_r+0x3c>
 8009658:	686c      	ldr	r4, [r5, #4]
 800965a:	89a3      	ldrh	r3, [r4, #12]
 800965c:	f9b4 200c 	ldrsh.w	r2, [r4, #12]
 8009660:	0719      	lsls	r1, r3, #28
 8009662:	d42c      	bmi.n	80096be <__swsetup_r+0x82>
 8009664:	06dd      	lsls	r5, r3, #27
 8009666:	d411      	bmi.n	800968c <__swsetup_r+0x50>
 8009668:	2309      	movs	r3, #9
 800966a:	6033      	str	r3, [r6, #0]
 800966c:	f042 0340 	orr.w	r3, r2, #64	; 0x40
 8009670:	f04f 30ff 	mov.w	r0, #4294967295
 8009674:	81a3      	strh	r3, [r4, #12]
 8009676:	e03e      	b.n	80096f6 <__swsetup_r+0xba>
 8009678:	4b25      	ldr	r3, [pc, #148]	; (8009710 <__swsetup_r+0xd4>)
 800967a:	429c      	cmp	r4, r3
 800967c:	d101      	bne.n	8009682 <__swsetup_r+0x46>
 800967e:	68ac      	ldr	r4, [r5, #8]
 8009680:	e7eb      	b.n	800965a <__swsetup_r+0x1e>
 8009682:	4b24      	ldr	r3, [pc, #144]	; (8009714 <__swsetup_r+0xd8>)
 8009684:	429c      	cmp	r4, r3
 8009686:	bf08      	it	eq
 8009688:	68ec      	ldreq	r4, [r5, #12]
 800968a:	e7e6      	b.n	800965a <__swsetup_r+0x1e>
 800968c:	0758      	lsls	r0, r3, #29
 800968e:	d512      	bpl.n	80096b6 <__swsetup_r+0x7a>
 8009690:	6b61      	ldr	r1, [r4, #52]	; 0x34
 8009692:	b141      	cbz	r1, 80096a6 <__swsetup_r+0x6a>
 8009694:	f104 0344 	add.w	r3, r4, #68	; 0x44
 8009698:	4299      	cmp	r1, r3
 800969a:	d002      	beq.n	80096a2 <__swsetup_r+0x66>
 800969c:	4630      	mov	r0, r6
 800969e:	f7fd f9b5 	bl	8006a0c <_free_r>
 80096a2:	2300      	movs	r3, #0
 80096a4:	6363      	str	r3, [r4, #52]	; 0x34
 80096a6:	89a3      	ldrh	r3, [r4, #12]
 80096a8:	f023 0324 	bic.w	r3, r3, #36	; 0x24
 80096ac:	81a3      	strh	r3, [r4, #12]
 80096ae:	2300      	movs	r3, #0
 80096b0:	6063      	str	r3, [r4, #4]
 80096b2:	6923      	ldr	r3, [r4, #16]
 80096b4:	6023      	str	r3, [r4, #0]
 80096b6:	89a3      	ldrh	r3, [r4, #12]
 80096b8:	f043 0308 	orr.w	r3, r3, #8
 80096bc:	81a3      	strh	r3, [r4, #12]
 80096be:	6923      	ldr	r3, [r4, #16]
 80096c0:	b94b      	cbnz	r3, 80096d6 <__swsetup_r+0x9a>
 80096c2:	89a3      	ldrh	r3, [r4, #12]
 80096c4:	f403 7320 	and.w	r3, r3, #640	; 0x280
 80096c8:	f5b3 7f00 	cmp.w	r3, #512	; 0x200
 80096cc:	d003      	beq.n	80096d6 <__swsetup_r+0x9a>
 80096ce:	4621      	mov	r1, r4
 80096d0:	4630      	mov	r0, r6
 80096d2:	f000 f959 	bl	8009988 <__smakebuf_r>
 80096d6:	89a0      	ldrh	r0, [r4, #12]
 80096d8:	f9b4 200c 	ldrsh.w	r2, [r4, #12]
 80096dc:	f010 0301 	ands.w	r3, r0, #1
 80096e0:	d00a      	beq.n	80096f8 <__swsetup_r+0xbc>
 80096e2:	2300      	movs	r3, #0
 80096e4:	60a3      	str	r3, [r4, #8]
 80096e6:	6963      	ldr	r3, [r4, #20]
 80096e8:	425b      	negs	r3, r3
 80096ea:	61a3      	str	r3, [r4, #24]
 80096ec:	6923      	ldr	r3, [r4, #16]
 80096ee:	b943      	cbnz	r3, 8009702 <__swsetup_r+0xc6>
 80096f0:	f010 0080 	ands.w	r0, r0, #128	; 0x80
 80096f4:	d1ba      	bne.n	800966c <__swsetup_r+0x30>
 80096f6:	bd70      	pop	{r4, r5, r6, pc}
 80096f8:	0781      	lsls	r1, r0, #30
 80096fa:	bf58      	it	pl
 80096fc:	6963      	ldrpl	r3, [r4, #20]
 80096fe:	60a3      	str	r3, [r4, #8]
 8009700:	e7f4      	b.n	80096ec <__swsetup_r+0xb0>
 8009702:	2000      	movs	r0, #0
 8009704:	e7f7      	b.n	80096f6 <__swsetup_r+0xba>
 8009706:	bf00      	nop
 8009708:	20000010 	.word	0x20000010
 800970c:	08009fcc 	.word	0x08009fcc
 8009710:	08009fec 	.word	0x08009fec
 8009714:	08009fac 	.word	0x08009fac

08009718 <__assert_func>:
 8009718:	b51f      	push	{r0, r1, r2, r3, r4, lr}
 800971a:	4614      	mov	r4, r2
 800971c:	461a      	mov	r2, r3
 800971e:	4b09      	ldr	r3, [pc, #36]	; (8009744 <__assert_func+0x2c>)
 8009720:	4605      	mov	r5, r0
 8009722:	681b      	ldr	r3, [r3, #0]
 8009724:	68d8      	ldr	r0, [r3, #12]
 8009726:	b14c      	cbz	r4, 800973c <__assert_func+0x24>
 8009728:	4b07      	ldr	r3, [pc, #28]	; (8009748 <__assert_func+0x30>)
 800972a:	e9cd 3401 	strd	r3, r4, [sp, #4]
 800972e:	9100      	str	r1, [sp, #0]
 8009730:	462b      	mov	r3, r5
 8009732:	4906      	ldr	r1, [pc, #24]	; (800974c <__assert_func+0x34>)
 8009734:	f000 f8e0 	bl	80098f8 <fiprintf>
 8009738:	f000 f9c6 	bl	8009ac8 <abort>
 800973c:	4b04      	ldr	r3, [pc, #16]	; (8009750 <__assert_func+0x38>)
 800973e:	461c      	mov	r4, r3
 8009740:	e7f3      	b.n	800972a <__assert_func+0x12>
 8009742:	bf00      	nop
 8009744:	20000010 	.word	0x20000010
 8009748:	0800a247 	.word	0x0800a247
 800974c:	0800a254 	.word	0x0800a254
 8009750:	0800a282 	.word	0x0800a282

08009754 <_close_r>:
 8009754:	b538      	push	{r3, r4, r5, lr}
 8009756:	2300      	movs	r3, #0
 8009758:	4d05      	ldr	r5, [pc, #20]	; (8009770 <_close_r+0x1c>)
 800975a:	4604      	mov	r4, r0
 800975c:	4608      	mov	r0, r1
 800975e:	602b      	str	r3, [r5, #0]
 8009760:	f7f8 fbfc 	bl	8001f5c <_close>
 8009764:	1c43      	adds	r3, r0, #1
 8009766:	d102      	bne.n	800976e <_close_r+0x1a>
 8009768:	682b      	ldr	r3, [r5, #0]
 800976a:	b103      	cbz	r3, 800976e <_close_r+0x1a>
 800976c:	6023      	str	r3, [r4, #0]
 800976e:	bd38      	pop	{r3, r4, r5, pc}
 8009770:	20000bcc 	.word	0x20000bcc

08009774 <__sflush_r>:
 8009774:	898a      	ldrh	r2, [r1, #12]
 8009776:	e92d 41f0 	stmdb	sp!, {r4, r5, r6, r7, r8, lr}
 800977a:	4605      	mov	r5, r0
 800977c:	0710      	lsls	r0, r2, #28
 800977e:	460c      	mov	r4, r1
 8009780:	d458      	bmi.n	8009834 <__sflush_r+0xc0>
 8009782:	684b      	ldr	r3, [r1, #4]
 8009784:	2b00      	cmp	r3, #0
 8009786:	dc05      	bgt.n	8009794 <__sflush_r+0x20>
 8009788:	6c0b      	ldr	r3, [r1, #64]	; 0x40
 800978a:	2b00      	cmp	r3, #0
 800978c:	dc02      	bgt.n	8009794 <__sflush_r+0x20>
 800978e:	2000      	movs	r0, #0
 8009790:	e8bd 81f0 	ldmia.w	sp!, {r4, r5, r6, r7, r8, pc}
 8009794:	6ae6      	ldr	r6, [r4, #44]	; 0x2c
 8009796:	2e00      	cmp	r6, #0
 8009798:	d0f9      	beq.n	800978e <__sflush_r+0x1a>
 800979a:	2300      	movs	r3, #0
 800979c:	f412 5280 	ands.w	r2, r2, #4096	; 0x1000
 80097a0:	682f      	ldr	r7, [r5, #0]
 80097a2:	602b      	str	r3, [r5, #0]
 80097a4:	d032      	beq.n	800980c <__sflush_r+0x98>
 80097a6:	6d60      	ldr	r0, [r4, #84]	; 0x54
 80097a8:	89a3      	ldrh	r3, [r4, #12]
 80097aa:	075a      	lsls	r2, r3, #29
 80097ac:	d505      	bpl.n	80097ba <__sflush_r+0x46>
 80097ae:	6863      	ldr	r3, [r4, #4]
 80097b0:	1ac0      	subs	r0, r0, r3
 80097b2:	6b63      	ldr	r3, [r4, #52]	; 0x34
 80097b4:	b10b      	cbz	r3, 80097ba <__sflush_r+0x46>
 80097b6:	6c23      	ldr	r3, [r4, #64]	; 0x40
 80097b8:	1ac0      	subs	r0, r0, r3
 80097ba:	2300      	movs	r3, #0
 80097bc:	4602      	mov	r2, r0
 80097be:	6ae6      	ldr	r6, [r4, #44]	; 0x2c
 80097c0:	4628      	mov	r0, r5
 80097c2:	6a21      	ldr	r1, [r4, #32]
 80097c4:	47b0      	blx	r6
 80097c6:	1c43      	adds	r3, r0, #1
 80097c8:	89a3      	ldrh	r3, [r4, #12]
 80097ca:	d106      	bne.n	80097da <__sflush_r+0x66>
 80097cc:	6829      	ldr	r1, [r5, #0]
 80097ce:	291d      	cmp	r1, #29
 80097d0:	d82c      	bhi.n	800982c <__sflush_r+0xb8>
 80097d2:	4a2a      	ldr	r2, [pc, #168]	; (800987c <__sflush_r+0x108>)
 80097d4:	40ca      	lsrs	r2, r1
 80097d6:	07d6      	lsls	r6, r2, #31
 80097d8:	d528      	bpl.n	800982c <__sflush_r+0xb8>
 80097da:	2200      	movs	r2, #0
 80097dc:	6062      	str	r2, [r4, #4]
 80097de:	6922      	ldr	r2, [r4, #16]
 80097e0:	04d9      	lsls	r1, r3, #19
 80097e2:	6022      	str	r2, [r4, #0]
 80097e4:	d504      	bpl.n	80097f0 <__sflush_r+0x7c>
 80097e6:	1c42      	adds	r2, r0, #1
 80097e8:	d101      	bne.n	80097ee <__sflush_r+0x7a>
 80097ea:	682b      	ldr	r3, [r5, #0]
 80097ec:	b903      	cbnz	r3, 80097f0 <__sflush_r+0x7c>
 80097ee:	6560      	str	r0, [r4, #84]	; 0x54
 80097f0:	6b61      	ldr	r1, [r4, #52]	; 0x34
 80097f2:	602f      	str	r7, [r5, #0]
 80097f4:	2900      	cmp	r1, #0
 80097f6:	d0ca      	beq.n	800978e <__sflush_r+0x1a>
 80097f8:	f104 0344 	add.w	r3, r4, #68	; 0x44
 80097fc:	4299      	cmp	r1, r3
 80097fe:	d002      	beq.n	8009806 <__sflush_r+0x92>
 8009800:	4628      	mov	r0, r5
 8009802:	f7fd f903 	bl	8006a0c <_free_r>
 8009806:	2000      	movs	r0, #0
 8009808:	6360      	str	r0, [r4, #52]	; 0x34
 800980a:	e7c1      	b.n	8009790 <__sflush_r+0x1c>
 800980c:	6a21      	ldr	r1, [r4, #32]
 800980e:	2301      	movs	r3, #1
 8009810:	4628      	mov	r0, r5
 8009812:	47b0      	blx	r6
 8009814:	1c41      	adds	r1, r0, #1
 8009816:	d1c7      	bne.n	80097a8 <__sflush_r+0x34>
 8009818:	682b      	ldr	r3, [r5, #0]
 800981a:	2b00      	cmp	r3, #0
 800981c:	d0c4      	beq.n	80097a8 <__sflush_r+0x34>
 800981e:	2b1d      	cmp	r3, #29
 8009820:	d001      	beq.n	8009826 <__sflush_r+0xb2>
 8009822:	2b16      	cmp	r3, #22
 8009824:	d101      	bne.n	800982a <__sflush_r+0xb6>
 8009826:	602f      	str	r7, [r5, #0]
 8009828:	e7b1      	b.n	800978e <__sflush_r+0x1a>
 800982a:	89a3      	ldrh	r3, [r4, #12]
 800982c:	f043 0340 	orr.w	r3, r3, #64	; 0x40
 8009830:	81a3      	strh	r3, [r4, #12]
 8009832:	e7ad      	b.n	8009790 <__sflush_r+0x1c>
 8009834:	690f      	ldr	r7, [r1, #16]
 8009836:	2f00      	cmp	r7, #0
 8009838:	d0a9      	beq.n	800978e <__sflush_r+0x1a>
 800983a:	0793      	lsls	r3, r2, #30
 800983c:	bf18      	it	ne
 800983e:	2300      	movne	r3, #0
 8009840:	680e      	ldr	r6, [r1, #0]
 8009842:	bf08      	it	eq
 8009844:	694b      	ldreq	r3, [r1, #20]
 8009846:	eba6 0807 	sub.w	r8, r6, r7
 800984a:	600f      	str	r7, [r1, #0]
 800984c:	608b      	str	r3, [r1, #8]
 800984e:	f1b8 0f00 	cmp.w	r8, #0
 8009852:	dd9c      	ble.n	800978e <__sflush_r+0x1a>
 8009854:	4643      	mov	r3, r8
 8009856:	463a      	mov	r2, r7
 8009858:	4628      	mov	r0, r5
 800985a:	6a21      	ldr	r1, [r4, #32]
 800985c:	6aa6      	ldr	r6, [r4, #40]	; 0x28
 800985e:	47b0      	blx	r6
 8009860:	2800      	cmp	r0, #0
 8009862:	dc06      	bgt.n	8009872 <__sflush_r+0xfe>
 8009864:	89a3      	ldrh	r3, [r4, #12]
 8009866:	f04f 30ff 	mov.w	r0, #4294967295
 800986a:	f043 0340 	orr.w	r3, r3, #64	; 0x40
 800986e:	81a3      	strh	r3, [r4, #12]
 8009870:	e78e      	b.n	8009790 <__sflush_r+0x1c>
 8009872:	4407      	add	r7, r0
 8009874:	eba8 0800 	sub.w	r8, r8, r0
 8009878:	e7e9      	b.n	800984e <__sflush_r+0xda>
 800987a:	bf00      	nop
 800987c:	20400001 	.word	0x20400001

08009880 <_fflush_r>:
 8009880:	b538      	push	{r3, r4, r5, lr}
 8009882:	690b      	ldr	r3, [r1, #16]
 8009884:	4605      	mov	r5, r0
 8009886:	460c      	mov	r4, r1
 8009888:	b913      	cbnz	r3, 8009890 <_fflush_r+0x10>
 800988a:	2500      	movs	r5, #0
 800988c:	4628      	mov	r0, r5
 800988e:	bd38      	pop	{r3, r4, r5, pc}
 8009890:	b118      	cbz	r0, 800989a <_fflush_r+0x1a>
 8009892:	6983      	ldr	r3, [r0, #24]
 8009894:	b90b      	cbnz	r3, 800989a <_fflush_r+0x1a>
 8009896:	f7fe f8bf 	bl	8007a18 <__sinit>
 800989a:	4b14      	ldr	r3, [pc, #80]	; (80098ec <_fflush_r+0x6c>)
 800989c:	429c      	cmp	r4, r3
 800989e:	d11b      	bne.n	80098d8 <_fflush_r+0x58>
 80098a0:	686c      	ldr	r4, [r5, #4]
 80098a2:	f9b4 300c 	ldrsh.w	r3, [r4, #12]
 80098a6:	2b00      	cmp	r3, #0
 80098a8:	d0ef      	beq.n	800988a <_fflush_r+0xa>
 80098aa:	6e62      	ldr	r2, [r4, #100]	; 0x64
 80098ac:	07d0      	lsls	r0, r2, #31
 80098ae:	d404      	bmi.n	80098ba <_fflush_r+0x3a>
 80098b0:	0599      	lsls	r1, r3, #22
 80098b2:	d402      	bmi.n	80098ba <_fflush_r+0x3a>
 80098b4:	6da0      	ldr	r0, [r4, #88]	; 0x58
 80098b6:	f7fe fcb4 	bl	8008222 <__retarget_lock_acquire_recursive>
 80098ba:	4628      	mov	r0, r5
 80098bc:	4621      	mov	r1, r4
 80098be:	f7ff ff59 	bl	8009774 <__sflush_r>
 80098c2:	6e63      	ldr	r3, [r4, #100]	; 0x64
 80098c4:	4605      	mov	r5, r0
 80098c6:	07da      	lsls	r2, r3, #31
 80098c8:	d4e0      	bmi.n	800988c <_fflush_r+0xc>
 80098ca:	89a3      	ldrh	r3, [r4, #12]
 80098cc:	059b      	lsls	r3, r3, #22
 80098ce:	d4dd      	bmi.n	800988c <_fflush_r+0xc>
 80098d0:	6da0      	ldr	r0, [r4, #88]	; 0x58
 80098d2:	f7fe fca7 	bl	8008224 <__retarget_lock_release_recursive>
 80098d6:	e7d9      	b.n	800988c <_fflush_r+0xc>
 80098d8:	4b05      	ldr	r3, [pc, #20]	; (80098f0 <_fflush_r+0x70>)
 80098da:	429c      	cmp	r4, r3
 80098dc:	d101      	bne.n	80098e2 <_fflush_r+0x62>
 80098de:	68ac      	ldr	r4, [r5, #8]
 80098e0:	e7df      	b.n	80098a2 <_fflush_r+0x22>
 80098e2:	4b04      	ldr	r3, [pc, #16]	; (80098f4 <_fflush_r+0x74>)
 80098e4:	429c      	cmp	r4, r3
 80098e6:	bf08      	it	eq
 80098e8:	68ec      	ldreq	r4, [r5, #12]
 80098ea:	e7da      	b.n	80098a2 <_fflush_r+0x22>
 80098ec:	08009fcc 	.word	0x08009fcc
 80098f0:	08009fec 	.word	0x08009fec
 80098f4:	08009fac 	.word	0x08009fac

080098f8 <fiprintf>:
 80098f8:	b40e      	push	{r1, r2, r3}
 80098fa:	b503      	push	{r0, r1, lr}
 80098fc:	4601      	mov	r1, r0
 80098fe:	ab03      	add	r3, sp, #12
 8009900:	4805      	ldr	r0, [pc, #20]	; (8009918 <fiprintf+0x20>)
 8009902:	f853 2b04 	ldr.w	r2, [r3], #4
 8009906:	6800      	ldr	r0, [r0, #0]
 8009908:	9301      	str	r3, [sp, #4]
 800990a:	f7ff fb03 	bl	8008f14 <_vfiprintf_r>
 800990e:	b002      	add	sp, #8
 8009910:	f85d eb04 	ldr.w	lr, [sp], #4
 8009914:	b003      	add	sp, #12
 8009916:	4770      	bx	lr
 8009918:	20000010 	.word	0x20000010

0800991c <_lseek_r>:
 800991c:	b538      	push	{r3, r4, r5, lr}
 800991e:	4604      	mov	r4, r0
 8009920:	4608      	mov	r0, r1
 8009922:	4611      	mov	r1, r2
 8009924:	2200      	movs	r2, #0
 8009926:	4d05      	ldr	r5, [pc, #20]	; (800993c <_lseek_r+0x20>)
 8009928:	602a      	str	r2, [r5, #0]
 800992a:	461a      	mov	r2, r3
 800992c:	f7f8 fb20 	bl	8001f70 <_lseek>
 8009930:	1c43      	adds	r3, r0, #1
 8009932:	d102      	bne.n	800993a <_lseek_r+0x1e>
 8009934:	682b      	ldr	r3, [r5, #0]
 8009936:	b103      	cbz	r3, 800993a <_lseek_r+0x1e>
 8009938:	6023      	str	r3, [r4, #0]
 800993a:	bd38      	pop	{r3, r4, r5, pc}
 800993c:	20000bcc 	.word	0x20000bcc

08009940 <__swhatbuf_r>:
 8009940:	b570      	push	{r4, r5, r6, lr}
 8009942:	460e      	mov	r6, r1
 8009944:	f9b1 100e 	ldrsh.w	r1, [r1, #14]
 8009948:	4614      	mov	r4, r2
 800994a:	2900      	cmp	r1, #0
 800994c:	461d      	mov	r5, r3
 800994e:	b096      	sub	sp, #88	; 0x58
 8009950:	da07      	bge.n	8009962 <__swhatbuf_r+0x22>
 8009952:	2300      	movs	r3, #0
 8009954:	602b      	str	r3, [r5, #0]
 8009956:	89b3      	ldrh	r3, [r6, #12]
 8009958:	061a      	lsls	r2, r3, #24
 800995a:	d410      	bmi.n	800997e <__swhatbuf_r+0x3e>
 800995c:	f44f 6380 	mov.w	r3, #1024	; 0x400
 8009960:	e00e      	b.n	8009980 <__swhatbuf_r+0x40>
 8009962:	466a      	mov	r2, sp
 8009964:	f000 f8b8 	bl	8009ad8 <_fstat_r>
 8009968:	2800      	cmp	r0, #0
 800996a:	dbf2      	blt.n	8009952 <__swhatbuf_r+0x12>
 800996c:	9a01      	ldr	r2, [sp, #4]
 800996e:	f402 4270 	and.w	r2, r2, #61440	; 0xf000
 8009972:	f5a2 5300 	sub.w	r3, r2, #8192	; 0x2000
 8009976:	425a      	negs	r2, r3
 8009978:	415a      	adcs	r2, r3
 800997a:	602a      	str	r2, [r5, #0]
 800997c:	e7ee      	b.n	800995c <__swhatbuf_r+0x1c>
 800997e:	2340      	movs	r3, #64	; 0x40
 8009980:	2000      	movs	r0, #0
 8009982:	6023      	str	r3, [r4, #0]
 8009984:	b016      	add	sp, #88	; 0x58
 8009986:	bd70      	pop	{r4, r5, r6, pc}

08009988 <__smakebuf_r>:
 8009988:	898b      	ldrh	r3, [r1, #12]
 800998a:	b573      	push	{r0, r1, r4, r5, r6, lr}
 800998c:	079d      	lsls	r5, r3, #30
 800998e:	4606      	mov	r6, r0
 8009990:	460c      	mov	r4, r1
 8009992:	d507      	bpl.n	80099a4 <__smakebuf_r+0x1c>
 8009994:	f104 0347 	add.w	r3, r4, #71	; 0x47
 8009998:	6023      	str	r3, [r4, #0]
 800999a:	6123      	str	r3, [r4, #16]
 800999c:	2301      	movs	r3, #1
 800999e:	6163      	str	r3, [r4, #20]
 80099a0:	b002      	add	sp, #8
 80099a2:	bd70      	pop	{r4, r5, r6, pc}
 80099a4:	466a      	mov	r2, sp
 80099a6:	ab01      	add	r3, sp, #4
 80099a8:	f7ff ffca 	bl	8009940 <__swhatbuf_r>
 80099ac:	9900      	ldr	r1, [sp, #0]
 80099ae:	4605      	mov	r5, r0
 80099b0:	4630      	mov	r0, r6
 80099b2:	f7fd f877 	bl	8006aa4 <_malloc_r>
 80099b6:	b948      	cbnz	r0, 80099cc <__smakebuf_r+0x44>
 80099b8:	f9b4 300c 	ldrsh.w	r3, [r4, #12]
 80099bc:	059a      	lsls	r2, r3, #22
 80099be:	d4ef      	bmi.n	80099a0 <__smakebuf_r+0x18>
 80099c0:	f023 0303 	bic.w	r3, r3, #3
 80099c4:	f043 0302 	orr.w	r3, r3, #2
 80099c8:	81a3      	strh	r3, [r4, #12]
 80099ca:	e7e3      	b.n	8009994 <__smakebuf_r+0xc>
 80099cc:	4b0d      	ldr	r3, [pc, #52]	; (8009a04 <__smakebuf_r+0x7c>)
 80099ce:	62b3      	str	r3, [r6, #40]	; 0x28
 80099d0:	89a3      	ldrh	r3, [r4, #12]
 80099d2:	6020      	str	r0, [r4, #0]
 80099d4:	f043 0380 	orr.w	r3, r3, #128	; 0x80
 80099d8:	81a3      	strh	r3, [r4, #12]
 80099da:	9b00      	ldr	r3, [sp, #0]
 80099dc:	6120      	str	r0, [r4, #16]
 80099de:	6163      	str	r3, [r4, #20]
 80099e0:	9b01      	ldr	r3, [sp, #4]
 80099e2:	b15b      	cbz	r3, 80099fc <__smakebuf_r+0x74>
 80099e4:	4630      	mov	r0, r6
 80099e6:	f9b4 100e 	ldrsh.w	r1, [r4, #14]
 80099ea:	f000 f887 	bl	8009afc <_isatty_r>
 80099ee:	b128      	cbz	r0, 80099fc <__smakebuf_r+0x74>
 80099f0:	89a3      	ldrh	r3, [r4, #12]
 80099f2:	f023 0303 	bic.w	r3, r3, #3
 80099f6:	f043 0301 	orr.w	r3, r3, #1
 80099fa:	81a3      	strh	r3, [r4, #12]
 80099fc:	89a0      	ldrh	r0, [r4, #12]
 80099fe:	4305      	orrs	r5, r0
 8009a00:	81a5      	strh	r5, [r4, #12]
 8009a02:	e7cd      	b.n	80099a0 <__smakebuf_r+0x18>
 8009a04:	080079b1 	.word	0x080079b1

08009a08 <memchr>:
 8009a08:	4603      	mov	r3, r0
 8009a0a:	b510      	push	{r4, lr}
 8009a0c:	b2c9      	uxtb	r1, r1
 8009a0e:	4402      	add	r2, r0
 8009a10:	4293      	cmp	r3, r2
 8009a12:	4618      	mov	r0, r3
 8009a14:	d101      	bne.n	8009a1a <memchr+0x12>
 8009a16:	2000      	movs	r0, #0
 8009a18:	e003      	b.n	8009a22 <memchr+0x1a>
 8009a1a:	7804      	ldrb	r4, [r0, #0]
 8009a1c:	3301      	adds	r3, #1
 8009a1e:	428c      	cmp	r4, r1
 8009a20:	d1f6      	bne.n	8009a10 <memchr+0x8>
 8009a22:	bd10      	pop	{r4, pc}

08009a24 <memmove>:
 8009a24:	4288      	cmp	r0, r1
 8009a26:	b510      	push	{r4, lr}
 8009a28:	eb01 0402 	add.w	r4, r1, r2
 8009a2c:	d902      	bls.n	8009a34 <memmove+0x10>
 8009a2e:	4284      	cmp	r4, r0
 8009a30:	4623      	mov	r3, r4
 8009a32:	d807      	bhi.n	8009a44 <memmove+0x20>
 8009a34:	1e43      	subs	r3, r0, #1
 8009a36:	42a1      	cmp	r1, r4
 8009a38:	d008      	beq.n	8009a4c <memmove+0x28>
 8009a3a:	f811 2b01 	ldrb.w	r2, [r1], #1
 8009a3e:	f803 2f01 	strb.w	r2, [r3, #1]!
 8009a42:	e7f8      	b.n	8009a36 <memmove+0x12>
 8009a44:	4601      	mov	r1, r0
 8009a46:	4402      	add	r2, r0
 8009a48:	428a      	cmp	r2, r1
 8009a4a:	d100      	bne.n	8009a4e <memmove+0x2a>
 8009a4c:	bd10      	pop	{r4, pc}
 8009a4e:	f813 4d01 	ldrb.w	r4, [r3, #-1]!
 8009a52:	f802 4d01 	strb.w	r4, [r2, #-1]!
 8009a56:	e7f7      	b.n	8009a48 <memmove+0x24>

08009a58 <_realloc_r>:
 8009a58:	b5f8      	push	{r3, r4, r5, r6, r7, lr}
 8009a5a:	4607      	mov	r7, r0
 8009a5c:	4614      	mov	r4, r2
 8009a5e:	460e      	mov	r6, r1
 8009a60:	b921      	cbnz	r1, 8009a6c <_realloc_r+0x14>
 8009a62:	4611      	mov	r1, r2
 8009a64:	e8bd 40f8 	ldmia.w	sp!, {r3, r4, r5, r6, r7, lr}
 8009a68:	f7fd b81c 	b.w	8006aa4 <_malloc_r>
 8009a6c:	b922      	cbnz	r2, 8009a78 <_realloc_r+0x20>
 8009a6e:	f7fc ffcd 	bl	8006a0c <_free_r>
 8009a72:	4625      	mov	r5, r4
 8009a74:	4628      	mov	r0, r5
 8009a76:	bdf8      	pop	{r3, r4, r5, r6, r7, pc}
 8009a78:	f000 f850 	bl	8009b1c <_malloc_usable_size_r>
 8009a7c:	42a0      	cmp	r0, r4
 8009a7e:	d20f      	bcs.n	8009aa0 <_realloc_r+0x48>
 8009a80:	4621      	mov	r1, r4
 8009a82:	4638      	mov	r0, r7
 8009a84:	f7fd f80e 	bl	8006aa4 <_malloc_r>
 8009a88:	4605      	mov	r5, r0
 8009a8a:	2800      	cmp	r0, #0
 8009a8c:	d0f2      	beq.n	8009a74 <_realloc_r+0x1c>
 8009a8e:	4631      	mov	r1, r6
 8009a90:	4622      	mov	r2, r4
 8009a92:	f7fe fbda 	bl	800824a <memcpy>
 8009a96:	4631      	mov	r1, r6
 8009a98:	4638      	mov	r0, r7
 8009a9a:	f7fc ffb7 	bl	8006a0c <_free_r>
 8009a9e:	e7e9      	b.n	8009a74 <_realloc_r+0x1c>
 8009aa0:	4635      	mov	r5, r6
 8009aa2:	e7e7      	b.n	8009a74 <_realloc_r+0x1c>

08009aa4 <_read_r>:
 8009aa4:	b538      	push	{r3, r4, r5, lr}
 8009aa6:	4604      	mov	r4, r0
 8009aa8:	4608      	mov	r0, r1
 8009aaa:	4611      	mov	r1, r2
 8009aac:	2200      	movs	r2, #0
 8009aae:	4d05      	ldr	r5, [pc, #20]	; (8009ac4 <_read_r+0x20>)
 8009ab0:	602a      	str	r2, [r5, #0]
 8009ab2:	461a      	mov	r2, r3
 8009ab4:	f7f8 fa28 	bl	8001f08 <_read>
 8009ab8:	1c43      	adds	r3, r0, #1
 8009aba:	d102      	bne.n	8009ac2 <_read_r+0x1e>
 8009abc:	682b      	ldr	r3, [r5, #0]
 8009abe:	b103      	cbz	r3, 8009ac2 <_read_r+0x1e>
 8009ac0:	6023      	str	r3, [r4, #0]
 8009ac2:	bd38      	pop	{r3, r4, r5, pc}
 8009ac4:	20000bcc 	.word	0x20000bcc

08009ac8 <abort>:
 8009ac8:	2006      	movs	r0, #6
 8009aca:	b508      	push	{r3, lr}
 8009acc:	f000 f856 	bl	8009b7c <raise>
 8009ad0:	2001      	movs	r0, #1
 8009ad2:	f7f8 fa13 	bl	8001efc <_exit>
	...

08009ad8 <_fstat_r>:
 8009ad8:	b538      	push	{r3, r4, r5, lr}
 8009ada:	2300      	movs	r3, #0
 8009adc:	4d06      	ldr	r5, [pc, #24]	; (8009af8 <_fstat_r+0x20>)
 8009ade:	4604      	mov	r4, r0
 8009ae0:	4608      	mov	r0, r1
 8009ae2:	4611      	mov	r1, r2
 8009ae4:	602b      	str	r3, [r5, #0]
 8009ae6:	f7f8 fa3c 	bl	8001f62 <_fstat>
 8009aea:	1c43      	adds	r3, r0, #1
 8009aec:	d102      	bne.n	8009af4 <_fstat_r+0x1c>
 8009aee:	682b      	ldr	r3, [r5, #0]
 8009af0:	b103      	cbz	r3, 8009af4 <_fstat_r+0x1c>
 8009af2:	6023      	str	r3, [r4, #0]
 8009af4:	bd38      	pop	{r3, r4, r5, pc}
 8009af6:	bf00      	nop
 8009af8:	20000bcc 	.word	0x20000bcc

08009afc <_isatty_r>:
 8009afc:	b538      	push	{r3, r4, r5, lr}
 8009afe:	2300      	movs	r3, #0
 8009b00:	4d05      	ldr	r5, [pc, #20]	; (8009b18 <_isatty_r+0x1c>)
 8009b02:	4604      	mov	r4, r0
 8009b04:	4608      	mov	r0, r1
 8009b06:	602b      	str	r3, [r5, #0]
 8009b08:	f7f8 fa30 	bl	8001f6c <_isatty>
 8009b0c:	1c43      	adds	r3, r0, #1
 8009b0e:	d102      	bne.n	8009b16 <_isatty_r+0x1a>
 8009b10:	682b      	ldr	r3, [r5, #0]
 8009b12:	b103      	cbz	r3, 8009b16 <_isatty_r+0x1a>
 8009b14:	6023      	str	r3, [r4, #0]
 8009b16:	bd38      	pop	{r3, r4, r5, pc}
 8009b18:	20000bcc 	.word	0x20000bcc

08009b1c <_malloc_usable_size_r>:
 8009b1c:	f851 3c04 	ldr.w	r3, [r1, #-4]
 8009b20:	1f18      	subs	r0, r3, #4
 8009b22:	2b00      	cmp	r3, #0
 8009b24:	bfbc      	itt	lt
 8009b26:	580b      	ldrlt	r3, [r1, r0]
 8009b28:	18c0      	addlt	r0, r0, r3
 8009b2a:	4770      	bx	lr

08009b2c <_raise_r>:
 8009b2c:	291f      	cmp	r1, #31
 8009b2e:	b538      	push	{r3, r4, r5, lr}
 8009b30:	4604      	mov	r4, r0
 8009b32:	460d      	mov	r5, r1
 8009b34:	d904      	bls.n	8009b40 <_raise_r+0x14>
 8009b36:	2316      	movs	r3, #22
 8009b38:	6003      	str	r3, [r0, #0]
 8009b3a:	f04f 30ff 	mov.w	r0, #4294967295
 8009b3e:	bd38      	pop	{r3, r4, r5, pc}
 8009b40:	6c42      	ldr	r2, [r0, #68]	; 0x44
 8009b42:	b112      	cbz	r2, 8009b4a <_raise_r+0x1e>
 8009b44:	f852 3021 	ldr.w	r3, [r2, r1, lsl #2]
 8009b48:	b94b      	cbnz	r3, 8009b5e <_raise_r+0x32>
 8009b4a:	4620      	mov	r0, r4
 8009b4c:	f000 f830 	bl	8009bb0 <_getpid_r>
 8009b50:	462a      	mov	r2, r5
 8009b52:	4601      	mov	r1, r0
 8009b54:	4620      	mov	r0, r4
 8009b56:	e8bd 4038 	ldmia.w	sp!, {r3, r4, r5, lr}
 8009b5a:	f000 b817 	b.w	8009b8c <_kill_r>
 8009b5e:	2b01      	cmp	r3, #1
 8009b60:	d00a      	beq.n	8009b78 <_raise_r+0x4c>
 8009b62:	1c59      	adds	r1, r3, #1
 8009b64:	d103      	bne.n	8009b6e <_raise_r+0x42>
 8009b66:	2316      	movs	r3, #22
 8009b68:	6003      	str	r3, [r0, #0]
 8009b6a:	2001      	movs	r0, #1
 8009b6c:	e7e7      	b.n	8009b3e <_raise_r+0x12>
 8009b6e:	2400      	movs	r4, #0
 8009b70:	4628      	mov	r0, r5
 8009b72:	f842 4025 	str.w	r4, [r2, r5, lsl #2]
 8009b76:	4798      	blx	r3
 8009b78:	2000      	movs	r0, #0
 8009b7a:	e7e0      	b.n	8009b3e <_raise_r+0x12>

08009b7c <raise>:
 8009b7c:	4b02      	ldr	r3, [pc, #8]	; (8009b88 <raise+0xc>)
 8009b7e:	4601      	mov	r1, r0
 8009b80:	6818      	ldr	r0, [r3, #0]
 8009b82:	f7ff bfd3 	b.w	8009b2c <_raise_r>
 8009b86:	bf00      	nop
 8009b88:	20000010 	.word	0x20000010

08009b8c <_kill_r>:
 8009b8c:	b538      	push	{r3, r4, r5, lr}
 8009b8e:	2300      	movs	r3, #0
 8009b90:	4d06      	ldr	r5, [pc, #24]	; (8009bac <_kill_r+0x20>)
 8009b92:	4604      	mov	r4, r0
 8009b94:	4608      	mov	r0, r1
 8009b96:	4611      	mov	r1, r2
 8009b98:	602b      	str	r3, [r5, #0]
 8009b9a:	f7f8 f9a7 	bl	8001eec <_kill>
 8009b9e:	1c43      	adds	r3, r0, #1
 8009ba0:	d102      	bne.n	8009ba8 <_kill_r+0x1c>
 8009ba2:	682b      	ldr	r3, [r5, #0]
 8009ba4:	b103      	cbz	r3, 8009ba8 <_kill_r+0x1c>
 8009ba6:	6023      	str	r3, [r4, #0]
 8009ba8:	bd38      	pop	{r3, r4, r5, pc}
 8009baa:	bf00      	nop
 8009bac:	20000bcc 	.word	0x20000bcc

08009bb0 <_getpid_r>:
 8009bb0:	f7f8 b99a 	b.w	8001ee8 <_getpid>

08009bb4 <_init>:
 8009bb4:	b5f8      	push	{r3, r4, r5, r6, r7, lr}
 8009bb6:	bf00      	nop
 8009bb8:	bcf8      	pop	{r3, r4, r5, r6, r7}
 8009bba:	bc08      	pop	{r3}
 8009bbc:	469e      	mov	lr, r3
 8009bbe:	4770      	bx	lr

08009bc0 <_fini>:
 8009bc0:	b5f8      	push	{r3, r4, r5, r6, r7, lr}
 8009bc2:	bf00      	nop
 8009bc4:	bcf8      	pop	{r3, r4, r5, r6, r7}
 8009bc6:	bc08      	pop	{r3}
 8009bc8:	469e      	mov	lr, r3
 8009bca:	4770      	bx	lr
